

Microchip MPLAB XC8 Assembler V2.41 build 20230208172133 
                                                                                               Sun Apr 23 21:10:41 2023

Microchip MPLAB XC8 C Compiler v2.41 (Free license) build 20230208172133 Og1 
     1                           	processor	18F2550
     2                           	fnconf	rparam,??,?,0
     3                           	pagewidth 120
     4                           	opt	flic
     5                           	psect	idataBANK1,global,class=CODE,delta=1,noexec
     6                           	psect	idataBANK2,global,class=CODE,delta=1,noexec
     7                           	psect	smallconst,global,reloc=2,class=SMALLCONST,delta=1,noexec
     8                           	psect	cinit,global,reloc=2,class=CODE,delta=1
     9                           	psect	bssCOMRAM,global,class=COMRAM,space=1,delta=1,lowdata,noexec
    10                           	psect	bssBANK0,global,class=BANK0,space=1,delta=1,lowdata,noexec
    11                           	psect	bssBANK1,global,class=BANK1,space=1,delta=1,lowdata,noexec
    12                           	psect	dataBANK1,global,class=BANK1,space=1,delta=1,lowdata,noexec
    13                           	psect	dataBANK2,global,class=BANK2,space=1,delta=1,lowdata,noexec
    14                           	psect	cstackBANK1,global,class=BANK1,space=1,delta=1,lowdata,noexec
    15                           	psect	cstackBANK0,global,class=BANK0,space=1,delta=1,lowdata,noexec
    16                           	psect	cstackCOMRAM,global,class=COMRAM,space=1,delta=1,lowdata,noexec
    17                           	psect	text0,global,reloc=2,class=CODE,delta=1
    18                           	psect	text1,global,reloc=2,class=CODE,delta=1,group=3
    19                           	psect	text2,global,reloc=2,class=CODE,delta=1,group=1
    20                           	psect	text3,global,reloc=2,class=CODE,delta=1,group=1
    21                           	psect	text4,global,reloc=2,class=CODE,delta=1,group=1
    22                           	psect	text5,global,reloc=2,class=CODE,delta=1,group=2
    23                           	psect	text6,global,reloc=2,class=CODE,delta=1,group=2
    24                           	psect	text7,global,reloc=2,class=CODE,delta=1,group=1
    25                           	psect	text8,global,reloc=2,class=CODE,delta=1,group=2
    26                           	psect	text9,global,reloc=2,class=CODE,delta=1,group=1
    27                           	psect	text10,global,reloc=2,class=CODE,delta=1,group=3
    28                           	psect	text11,global,reloc=2,class=CODE,delta=1,group=3
    29                           	psect	text12,global,reloc=2,class=CODE,delta=1,group=3
    30                           	psect	text13,global,reloc=2,class=CODE,delta=1,group=3
    31                           	psect	text14,global,reloc=2,class=CODE,delta=1,group=3
    32                           	psect	text15,global,reloc=2,class=CODE,delta=1,group=2
    33                           	psect	text16,global,reloc=2,class=CODE,delta=1,group=2
    34                           	psect	text17,global,reloc=2,class=CODE,delta=1,group=2
    35                           	psect	text18,global,reloc=2,class=CODE,delta=1,group=2
    36                           	psect	text19,global,reloc=2,class=CODE,delta=1,group=2
    37                           	psect	text20,global,reloc=2,class=CODE,delta=1,group=2
    38                           	psect	text21,global,reloc=2,class=CODE,delta=1,group=2
    39                           	psect	text22,global,reloc=2,class=CODE,delta=1,group=2
    40                           	psect	text23,global,reloc=2,class=CODE,delta=1,group=1
    41                           	psect	text24,global,reloc=2,class=CODE,delta=1,group=1
    42                           	psect	text25,global,reloc=2,class=CODE,delta=1,group=3
    43                           	psect	text26,global,reloc=2,class=CODE,delta=1,group=3
    44                           	psect	text27,global,reloc=2,class=CODE,delta=1,group=3
    45                           	psect	text28,global,reloc=2,class=CODE,delta=1,group=3
    46                           	psect	text29,global,reloc=2,class=CODE,delta=1,group=2
    47                           	psect	text30,global,reloc=2,class=CODE,delta=1,group=2
    48                           	psect	text31,global,reloc=2,class=CODE,delta=1,group=2
    49                           	psect	text32,global,reloc=2,class=CODE,delta=1,group=2
    50                           	psect	text33,global,reloc=2,class=CODE,delta=1
    51                           	psect	text34,global,reloc=2,class=CODE,delta=1
    52                           	psect	text35,global,reloc=2,class=CODE,delta=1
    53                           	psect	text36,global,reloc=2,class=CODE,delta=1
    54                           	psect	text37,global,reloc=2,class=CODE,delta=1
    55                           	psect	text38,global,reloc=2,class=CODE,delta=1
    56                           	psect	text39,global,reloc=2,class=CODE,delta=1
    57                           	psect	text40,global,reloc=2,class=CODE,delta=1
    58                           	psect	text41,global,reloc=2,class=CODE,delta=1
    59                           	psect	text42,global,reloc=2,class=CODE,delta=1
    60                           	psect	text43,global,reloc=2,class=CODE,delta=1
    61                           	psect	text44,global,reloc=2,class=CODE,delta=1
    62                           	psect	text45,global,reloc=2,class=CODE,delta=1
    63                           	psect	text46,global,reloc=2,class=CODE,delta=1
    64                           	psect	text47,global,reloc=2,class=CODE,delta=1
    65                           	psect	text48,global,reloc=2,class=CODE,delta=1
    66                           	psect	intcodelo,global,reloc=2,class=CODE,delta=1
    67                           	psect	text50,global,reloc=2,class=CODE,delta=1
    68                           	psect	text51,global,reloc=2,class=CODE,delta=1
    69                           	psect	text52,global,reloc=2,class=CODE,delta=1
    70                           	psect	text53,global,reloc=2,class=CODE,delta=1
    71                           	psect	intcode,global,reloc=2,class=CODE,delta=1
    72                           	psect	intcode_body,global,reloc=2,class=CODE,delta=1
    73                           	psect	intsave_regs,global,class=BIGRAM,space=1,delta=1,noexec
    74                           	psect	rparam,global,class=COMRAM,space=1,delta=1,noexec
    75                           	psect	temp,global,ovrld,common,class=COMRAM,space=1,delta=1
    76                           	psect	idloc,global,abs,ovrld,class=IDLOC,space=5,delta=1,noexec
    77                           	psect	config,global,abs,ovrld,class=CONFIG,space=4,delta=1,noexec
    78   000000                     
    79                           ; Version 2.40
    80                           ; Generated 17/11/2021 GMT
    81                           ; 
    82                           ; Copyright © 2021, Microchip Technology Inc. and its subsidiaries ("Microchip")
    83                           ; All rights reserved.
    84                           ; 
    85                           ; This software is developed by Microchip Technology Inc. and its subsidiaries ("Microch
      +                          ip").
    86                           ; 
    87                           ; Redistribution and use in source and binary forms, with or without modification, are
    88                           ; permitted provided that the following conditions are met:
    89                           ; 
    90                           ;     1. Redistributions of source code must retain the above copyright notice, this lis
      +                          t of
    91                           ;        conditions and the following disclaimer.
    92                           ; 
    93                           ;     2. Redistributions in binary form must reproduce the above copyright notice, this 
      +                          list
    94                           ;        of conditions and the following disclaimer in the documentation and/or other
    95                           ;        materials provided with the distribution. Publication is not required when
    96                           ;        this file is used in an embedded application.
    97                           ; 
    98                           ;     3. Microchip's name may not be used to endorse or promote products derived from th
      +                          is
    99                           ;        software without specific prior written permission.
   100                           ; 
   101                           ; THIS SOFTWARE IS PROVIDED BY MICROCHIP "AS IS" AND ANY EXPRESS OR IMPLIED WARRANTIES,
   102                           ; INCLUDING, BUT NOT LIMITED TO, THE IMPLIED WARRANTIES OF MERCHANTABILITY AND FITNESS F
      +                          OR
   103                           ; PURPOSE ARE DISCLAIMED.  IN NO EVENT SHALL MICROCHIP BE LIABLE FOR ANY DIRECT, INDIREC
      +                          T,
   104                           ; INCIDENTAL, SPECIAL, EXEMPLARY, OR CONSEQUENTIAL DAMAGES (INCLUDING BUT NOT LIMITED TO
   105                           ; PROCUREMENT OF SUBSTITUTE GOODS OR SERVICES; LOSS OF USE, DATA OR PROFITS; OR BUSINESS
   106                           ; INTERRUPTION) HOWSOEVER CAUSED AND ON ANY THEORY OF LIABILITY, WHETHER IN CONTRACT, ST
      +                          RICT
   107                           ; LIABILITY, OR TORT (INCLUDING NEGLIGENCE OR OTHERWISE) ARISING IN ANY WAY OUT OF THE U
      +                          SE OF
   108                           ; THIS SOFTWARE, EVEN IF ADVISED OF THE POSSIBILITY OF SUCH DAMAGE.
   109                           ; 
   110                           ; 
   111                           ; Code-generator required, PIC18F2550 Definitions
   112                           ; 
   113                           ; SFR Addresses
   114   000000                     
   115                           	psect	idataBANK1
   116   0048DE                     __pidataBANK1:
   117                           	callstack 0
   118                           
   119                           ;initializer for _NIVEL_UNBRAL_500MV
   120   0048DE  199A               	dw	6554
   121                           
   122                           	psect	idataBANK2
   123   003E4A                     __pidataBANK2:
   124                           	callstack 0
   125                           
   126                           ;initializer for _datos_sensores_afm_radio
   127   003E4A  30                 	db	48
   128   003E4B  00                 	db	0
   129   003E4C  00                 	db	0
   130   003E4D  00                 	db	0
   131   003E4E  00                 	db	0
   132   003E4F  00                 	db	0
   133   003E50  00                 	db	0
   134   003E51  00                 	db	0
   135   003E52  00                 	db	0
   136   003E53  00                 	db	0
   137   003E54  00                 	db	0
   138   003E55  00                 	db	0
   139   003E56  00                 	db	0
   140   003E57  00                 	db	0
   141   003E58  00                 	db	0
   142   003E59  00                 	db	0
   143   003E5A  00                 	db	0
   144   003E5B  00                 	db	0
   145   003E5C  00                 	db	0
   146   003E5D  00                 	db	0
   147   003E5E  00                 	db	0
   148   003E5F  00                 	db	0
   149   003E60  00                 	db	0
   150   003E61  00                 	db	0
   151   003E62  00                 	db	0
   152   003E63  00                 	db	0
   153   003E64  00                 	db	0
   154   003E65  00                 	db	0
   155   003E66  00                 	db	0
   156   003E67  00                 	db	0
   157   003E68  00                 	db	0
   158   003E69  00                 	db	0
   159   003E6A  00                 	db	0
   160   003E6B  00                 	db	0
   161   003E6C  00                 	db	0
   162   003E6D  00                 	db	0
   163   003E6E  00                 	db	0
   164   003E6F  00                 	db	0
   165   003E70  00                 	db	0
   166   003E71  00                 	db	0
   167   003E72  00                 	db	0
   168   003E73  00                 	db	0
   169   003E74  00                 	db	0
   170   003E75  00                 	db	0
   171   003E76  00                 	db	0
   172   003E77  00                 	db	0
   173   003E78  00                 	db	0
   174   003E79  00                 	db	0
   175   003E7A  00                 	db	0
   176   003E7B  00                 	db	0
   177   003E7C  00                 	db	0
   178   003E7D  00                 	db	0
   179   003E7E  00                 	db	0
   180   003E7F  00                 	db	0
   181   003E80  00                 	db	0
   182   003E81  00                 	db	0
   183   003E82  00                 	db	0
   184   003E83  00                 	db	0
   185   003E84  00                 	db	0
   186   003E85  00                 	db	0
   187   003E86  00                 	db	0
   188   003E87  00                 	db	0
   189   003E88  00                 	db	0
   190   003E89  00                 	db	0
   191   003E8A  00                 	db	0
   192   003E8B  00                 	db	0
   193   003E8C  00                 	db	0
   194   003E8D  00                 	db	0
   195   003E8E  00                 	db	0
   196   003E8F  00                 	db	0
   197   003E90  00                 	db	0
   198   003E91  00                 	db	0
   199   003E92  00                 	db	0
   200   003E93  00                 	db	0
   201   003E94  00                 	db	0
   202   003E95  00                 	db	0
   203   003E96  00                 	db	0
   204   003E97  00                 	db	0
   205   003E98  00                 	db	0
   206   003E99  00                 	db	0
   207   003E9A  00                 	db	0
   208   003E9B  00                 	db	0
   209   003E9C  00                 	db	0
   210   003E9D  00                 	db	0
   211   003E9E  00                 	db	0
   212   003E9F  00                 	db	0
   213   003EA0  00                 	db	0
   214   003EA1  00                 	db	0
   215   003EA2  00                 	db	0
   216   003EA3  00                 	db	0
   217                           
   218                           ;initializer for _datos_sensores_afm_pc
   219   003EA4  30                 	db	48
   220   003EA5  00                 	db	0
   221   003EA6  00                 	db	0
   222   003EA7  00                 	db	0
   223   003EA8  00                 	db	0
   224   003EA9  00                 	db	0
   225   003EAA  00                 	db	0
   226   003EAB  00                 	db	0
   227   003EAC  00                 	db	0
   228   003EAD  00                 	db	0
   229   003EAE  00                 	db	0
   230   003EAF  00                 	db	0
   231   003EB0  00                 	db	0
   232   003EB1  00                 	db	0
   233   003EB2  00                 	db	0
   234   003EB3  00                 	db	0
   235   003EB4  00                 	db	0
   236   003EB5  00                 	db	0
   237   003EB6  00                 	db	0
   238   003EB7  00                 	db	0
   239   003EB8  00                 	db	0
   240   003EB9  00                 	db	0
   241   003EBA  00                 	db	0
   242   003EBB  00                 	db	0
   243   003EBC  00                 	db	0
   244   003EBD  00                 	db	0
   245   003EBE  00                 	db	0
   246   003EBF  00                 	db	0
   247   003EC0  00                 	db	0
   248   003EC1  00                 	db	0
   249   003EC2  00                 	db	0
   250   003EC3  00                 	db	0
   251   003EC4  00                 	db	0
   252   003EC5  00                 	db	0
   253   003EC6  00                 	db	0
   254   003EC7  00                 	db	0
   255   003EC8  00                 	db	0
   256   003EC9  00                 	db	0
   257   003ECA  00                 	db	0
   258   003ECB  00                 	db	0
   259   003ECC  00                 	db	0
   260   003ECD  00                 	db	0
   261   003ECE  00                 	db	0
   262   003ECF  00                 	db	0
   263   003ED0  00                 	db	0
   264   003ED1  00                 	db	0
   265   003ED2  00                 	db	0
   266   003ED3  00                 	db	0
   267   003ED4  00                 	db	0
   268   003ED5  00                 	db	0
   269   003ED6  00                 	db	0
   270   003ED7  00                 	db	0
   271   003ED8  00                 	db	0
   272   003ED9  00                 	db	0
   273   003EDA  00                 	db	0
   274   003EDB  00                 	db	0
   275   003EDC  00                 	db	0
   276   003EDD  00                 	db	0
   277   003EDE  00                 	db	0
   278   003EDF  00                 	db	0
   279   003EE0  00                 	db	0
   280   003EE1  00                 	db	0
   281   003EE2  00                 	db	0
   282   003EE3  00                 	db	0
   283   003EE4  00                 	db	0
   284   003EE5  00                 	db	0
   285   003EE6  00                 	db	0
   286   003EE7  00                 	db	0
   287   003EE8  00                 	db	0
   288   003EE9  00                 	db	0
   289   003EEA  00                 	db	0
   290   003EEB  00                 	db	0
   291   003EEC  00                 	db	0
   292   003EED  00                 	db	0
   293   003EEE  00                 	db	0
   294   003EEF  00                 	db	0
   295   003EF0  00                 	db	0
   296   003EF1  00                 	db	0
   297   003EF2  00                 	db	0
   298   003EF3  00                 	db	0
   299   003EF4  00                 	db	0
   300   003EF5  00                 	db	0
   301   003EF6  00                 	db	0
   302   003EF7  00                 	db	0
   303   003EF8  00                 	db	0
   304   003EF9  00                 	db	0
   305   003EFA  00                 	db	0
   306   003EFB  00                 	db	0
   307   003EFC  00                 	db	0
   308   003EFD  00                 	db	0
   309   000000                     _ADRESL	set	4035
   310   000000                     _ADRESH	set	4036
   311   000000                     _TXREG	set	4013
   312   000000                     _TXSTAbits	set	4012
   313   000000                     _SSPSTATbits	set	4039
   314   000000                     _SSPCON1	set	4038
   315   000000                     _T2CONbits	set	4042
   316   000000                     _UCONbits	set	3949
   317   000000                     _UCFGbits	set	3951
   318   000000                     _OSCCONbits	set	4051
   319   000000                     _T0CONbits	set	4053
   320   000000                     _TMR0L	set	4054
   321   000000                     _INTCONbits	set	4082
   322   000000                     _PORTAbits	set	3968
   323   000000                     _PORTBbits	set	3969
   324   000000                     _TRISCbits	set	3988
   325   000000                     _PIE1bits	set	3997
   326   000000                     _PIR1bits	set	3998
   327   000000                     _IPR1bits	set	3999
   328   000000                     _RCSTAbits	set	4011
   329   000000                     _RCREG	set	4014
   330   000000                     _SPBRG	set	4015
   331   000000                     _BAUDCONbits	set	4024
   332   000000                     _ADCON0bits	set	4034
   333   000000                     _SSPCON1bits	set	4038
   334   000000                     _INTCON2bits	set	4081
   335   000000                     _TMR0H	set	4055
   336   000000                     _SSPBUF	set	4041
   337   000000                     _SSPSTAT	set	4039
   338   000000                     _T2CON	set	4042
   339   000000                     _RCONbits	set	4048
   340   000000                     _PORTCbits	set	3970
   341   000000                     _LATBbits	set	3978
   342   000000                     _TRISAbits	set	3986
   343   000000                     _TRISBbits	set	3987
   344   000000                     _TMR2	set	4044
   345   000000                     _PR2	set	4043
   346   000000                     _ADCON2bits	set	4032
   347   000000                     _ADCON1bits	set	4033
   348                           
   349                           	psect	smallconst
   350   000800                     __psmallconst:
   351                           	callstack 0
   352   000800  00                 	db	0
   353   000801                     STR_2:
   354   000801  20                 	db	32
   355   000802  25                 	db	37
   356   000803  30                 	db	48	;'0'
   357   000804  31                 	db	49	;'1'
   358   000805  64                 	db	100	;'d'
   359   000806  20                 	db	32
   360   000807  50                 	db	80	;'P'
   361   000808  3A                 	db	58	;':'
   362   000809  25                 	db	37
   363   00080A  30                 	db	48	;'0'
   364   00080B  31                 	db	49	;'1'
   365   00080C  64                 	db	100	;'d'
   366   00080D  20                 	db	32
   367   00080E  42                 	db	66	;'B'
   368   00080F  3A                 	db	58	;':'
   369   000810  25                 	db	37
   370   000811  32                 	db	50	;'2'
   371   000812  2E                 	db	46
   372   000813  31                 	db	49	;'1'
   373   000814  66                 	db	102	;'f'
   374   000815  20                 	db	32
   375   000816  25                 	db	37
   376   000817  30                 	db	48	;'0'
   377   000818  34                 	db	52	;'4'
   378   000819  64                 	db	100	;'d'
   379   00081A  20                 	db	32
   380   00081B  46                 	db	70	;'F'
   381   00081C  3A                 	db	58	;':'
   382   00081D  25                 	db	37
   383   00081E  30                 	db	48	;'0'
   384   00081F  32                 	db	50	;'2'
   385   000820  64                 	db	100	;'d'
   386   000821  20                 	db	32
   387   000822  4E                 	db	78	;'N'
   388   000823  3A                 	db	58	;':'
   389   000824  25                 	db	37
   390   000825  30                 	db	48	;'0'
   391   000826  32                 	db	50	;'2'
   392   000827  75                 	db	117	;'u'
   393   000828  20                 	db	32
   394   000829  4C                 	db	76	;'L'
   395   00082A  3A                 	db	58	;':'
   396   00082B  25                 	db	37
   397   00082C  75                 	db	117	;'u'
   398   00082D  20                 	db	32
   399   00082E  48                 	db	72	;'H'
   400   00082F  3A                 	db	58	;':'
   401   000830  25                 	db	37
   402   000831  75                 	db	117	;'u'
   403   000832  20                 	db	32
   404   000833  46                 	db	70	;'F'
   405   000834  3A                 	db	58	;':'
   406   000835  25                 	db	37
   407   000836  75                 	db	117	;'u'
   408   000837  00                 	db	0
   409   000838                     STR_3:
   410   000838  69                 	db	105	;'i'
   411   000839  6E                 	db	110	;'n'
   412   00083A  66                 	db	102	;'f'
   413   00083B  00                 	db	0
   414   00083C                     STR_6:
   415   00083C  6E                 	db	110	;'n'
   416   00083D  61                 	db	97	;'a'
   417   00083E  6E                 	db	110	;'n'
   418   00083F  00                 	db	0
   419   000840                     STR_1:
   420   000840  0D                 	db	13
   421   000841  00                 	db	0
   422   000842  00                 	db	0	; dummy byte at the end
   423   000000                     
   424                           ; #config settings
   425                           
   426                           	psect	cinit
   427   0042A2                     __pcinit:
   428                           	callstack 0
   429   0042A2                     start_initialization:
   430                           	callstack 0
   431   0042A2                     __initialization:
   432                           	callstack 0
   433                           
   434                           ; Initialize objects allocated to BANK2 (180 bytes)
   435                           ; load TBLPTR registers with __pidataBANK2
   436   0042A2  0E4A               	movlw	low __pidataBANK2
   437   0042A4  6EF6               	movwf	tblptrl,c
   438   0042A6  0E3E               	movlw	high __pidataBANK2
   439   0042A8  6EF7               	movwf	tblptrh,c
   440   0042AA  0E00               	movlw	low (__pidataBANK2 shr (0+16))
   441   0042AC  6EF8               	movwf	tblptru,c
   442   0042AE  EE02  F000         	lfsr	0,__pdataBANK2
   443   0042B2  EE10 F0B4          	lfsr	1,180
   444   0042B6                     copy_data0:
   445   0042B6  0009               	tblrd		*+
   446   0042B8  CFF5 FFEE          	movff	tablat,postinc0
   447   0042BC  50E5               	movf	postdec1,w,c
   448   0042BE  50E1               	movf	fsr1l,w,c
   449   0042C0  E1FA               	bnz	copy_data0
   450                           
   451                           ; Initialize objects allocated to BANK1 (2 bytes)
   452                           ; load TBLPTR registers with __pidataBANK1
   453   0042C2  0EDE               	movlw	low __pidataBANK1
   454   0042C4  6EF6               	movwf	tblptrl,c
   455   0042C6  0E48               	movlw	high __pidataBANK1
   456   0042C8  6EF7               	movwf	tblptrh,c
   457   0042CA  0E00               	movlw	low (__pidataBANK1 shr (0+16))
   458   0042CC  6EF8               	movwf	tblptru,c
   459   0042CE  0009               	tblrd		*+	;fetch initializer
   460   0042D0  CFF5 F1F8          	movff	tablat,__pdataBANK1
   461   0042D4  0009               	tblrd		*+	;fetch initializer
   462   0042D6  CFF5 F1F9          	movff	tablat,__pdataBANK1+1
   463                           
   464                           ; Clear objects allocated to BANK1 (204 bytes)
   465   0042DA  EE01  F000         	lfsr	0,__pbssBANK1
   466   0042DE  0ECC               	movlw	204
   467   0042E0                     clear_0:
   468   0042E0  6AEE               	clrf	postinc0,c
   469   0042E2  06E8               	decf	wreg,f,c
   470   0042E4  E1FD               	bnz	clear_0
   471                           
   472                           ; Clear objects allocated to BANK0 (6 bytes)
   473   0042E6  0100               	movlb	0
   474   0042E8  6BFF               	clrf	(__pbssBANK0+5)& (0+255),b
   475   0042EA  6BFE               	clrf	(__pbssBANK0+4)& (0+255),b
   476   0042EC  6BFD               	clrf	(__pbssBANK0+3)& (0+255),b
   477   0042EE  6BFC               	clrf	(__pbssBANK0+2)& (0+255),b
   478   0042F0  6BFB               	clrf	(__pbssBANK0+1)& (0+255),b
   479   0042F2  6BFA               	clrf	__pbssBANK0& (0+255),b
   480                           
   481                           ; Clear objects allocated to COMRAM (29 bytes)
   482   0042F4  EE00  F024         	lfsr	0,__pbssCOMRAM
   483   0042F8  0E1D               	movlw	29
   484   0042FA                     clear_1:
   485   0042FA  6AEE               	clrf	postinc0,c
   486   0042FC  06E8               	decf	wreg,f,c
   487   0042FE  E1FD               	bnz	clear_1
   488   004300                     end_of_initialization:
   489                           	callstack 0
   490   004300                     __end_of__initialization:
   491                           	callstack 0
   492   004300  9041               	bcf	int$flags,0,c	;clear compiler interrupt flag (level 1)
   493   004302  9241               	bcf	int$flags,1,c	;clear compiler interrupt flag (level 2)
   494   004304  0E00               	movlw	low (__Lmediumconst shr (0+16))
   495   004306  6EF8               	movwf	tblptru,c
   496   004308  0100               	movlb	0
   497   00430A  EF58  F009         	goto	_main	;jump to C main() function
   498                           
   499                           	psect	bssCOMRAM
   500   000024                     __pbssCOMRAM:
   501                           	callstack 0
   502   000024                     _width:
   503                           	callstack 0
   504   000024                     	ds	2
   505   000026                     _prec:
   506                           	callstack 0
   507   000026                     	ds	2
   508   000028                     _cont_task5:
   509                           	callstack 0
   510   000028                     	ds	2
   511   00002A                     _cont_task4:
   512                           	callstack 0
   513   00002A                     	ds	2
   514   00002C                     _cont_task3:
   515                           	callstack 0
   516   00002C                     	ds	2
   517   00002E                     _cont_task2:
   518                           	callstack 0
   519   00002E                     	ds	2
   520   000030                     _cont_task1:
   521                           	callstack 0
   522   000030                     	ds	2
   523   000032                     _cont_task0:
   524                           	callstack 0
   525   000032                     	ds	2
   526   000034                     _contador_minutos_t0:
   527                           	callstack 0
   528   000034                     	ds	2
   529   000036                     _flags:
   530                           	callstack 0
   531   000036                     	ds	1
   532   000037                     	ds	1
   533   000038                     _longitud_paq_datos:
   534                           	callstack 0
   535   000038                     	ds	1
   536   000039                     _dato_recibido:
   537                           	callstack 0
   538   000039                     	ds	1
   539   00003A                     _HABILITAR_TASK10:
   540                           	callstack 0
   541   00003A                     	ds	1
   542   00003B                     _HABILITAR_TASK9:
   543                           	callstack 0
   544   00003B                     	ds	1
   545   00003C                     _HABILITAR_TASK8:
   546                           	callstack 0
   547   00003C                     	ds	1
   548   00003D                     _HABILITAR_TASK7:
   549                           	callstack 0
   550   00003D                     	ds	1
   551   00003E                     _HABILITAR_TASK6:
   552                           	callstack 0
   553   00003E                     	ds	1
   554   00003F                     _HABILITAR_TASK5:
   555                           	callstack 0
   556   00003F                     	ds	1
   557   000040                     	ds	1
   558                           
   559                           	psect	bssBANK0
   560   0000FA                     __pbssBANK0:
   561                           	callstack 0
   562   0000FA                     _frec_tx_datos:
   563                           	callstack 0
   564   0000FA                     	ds	1
   565   0000FB                     _HABILITAR_TASK1:
   566                           	callstack 0
   567   0000FB                     	ds	1
   568   0000FC                     _HABILITAR_TASK0:
   569                           	callstack 0
   570   0000FC                     	ds	1
   571   0000FD                     _contador_pluviometro:
   572                           	callstack 0
   573   0000FD                     	ds	1
   574   0000FE                     _FLANCO_NEG:
   575                           	callstack 0
   576   0000FE                     	ds	1
   577   0000FF                     _HABLILITAR_LECTURA_CH0:
   578                           	callstack 0
   579   0000FF                     	ds	1
   580                           
   581                           	psect	bssBANK1
   582   000100                     __pbssBANK1:
   583                           	callstack 0
   584   000100                     _datos_afm_high_str:
   585                           	callstack 0
   586   000100                     	ds	6
   587   000106                     _datos_afm_low_str:
   588                           	callstack 0
   589   000106                     	ds	6
   590   00010C                     _datos_afm_full_str:
   591                           	callstack 0
   592   00010C                     	ds	6
   593   000112                     floorf@F526:
   594                           	callstack 0
   595   000112                     	ds	4
   596   000116                     ___fpclassifyf@F465:
   597                           	callstack 0
   598   000116                     	ds	4
   599   00011A                     	ds	4
   600   00011E                     	ds	4
   601   000122                     _medida_nivel_bateria_flt:
   602                           	callstack 0
   603   000122                     	ds	4
   604   000126                     _dato_spi_high_band:
   605                           	callstack 0
   606   000126                     	ds	4
   607   00012A                     _dato_spi_low_band:
   608                           	callstack 0
   609   00012A                     	ds	4
   610   00012E                     _dato_spi_full_band:
   611                           	callstack 0
   612   00012E                     	ds	4
   613   000132                     _resultado_adc_flotante@interrupt_manager$F659:
   614                           	callstack 0
   615   000132                     	ds	4
   616   000136                     _suma_lectura_adc@interrupt_manager$F658:
   617                           	callstack 0
   618   000136                     	ds	4
   619   00013A                     _temp_num_minutos_t0:
   620                           	callstack 0
   621   00013A                     	ds	4
   622   00013E                     	ds	4
   623   000142                     	ds	4
   624   000146                     _medida_nivel_bateria_dec:
   625                           	callstack 0
   626   000146                     	ds	2
   627   000148                     _medida_nivel_bateria_pc:
   628                           	callstack 0
   629   000148                     	ds	2
   630   00014A                     _CONT_TIEMPO_CHEKEO:
   631                           	callstack 0
   632   00014A                     	ds	2
   633   00014C                     _CONT_TIEMPO_UMBRAL:
   634                           	callstack 0
   635   00014C                     	ds	2
   636   00014E                     _lectura_sensor_low_band_test:
   637                           	callstack 0
   638   00014E                     	ds	2
   639   000150                     _check_sum_valor_calculado:
   640                           	callstack 0
   641   000150                     	ds	2
   642   000152                     _lectura_sensor_high_band:
   643                           	callstack 0
   644   000152                     	ds	2
   645   000154                     _lectura_sensor_low_band:
   646                           	callstack 0
   647   000154                     	ds	2
   648   000156                     _lectura_sensor_full_band:
   649                           	callstack 0
   650   000156                     	ds	2
   651   000158                     _dato_spi_temp_h:
   652                           	callstack 0
   653   000158                     	ds	2
   654   00015A                     _dato_spi_temp_l:
   655                           	callstack 0
   656   00015A                     	ds	2
   657   00015C                     _dato_spi_temp_f:
   658                           	callstack 0
   659   00015C                     	ds	2
   660   00015E                     _cont_task10:
   661                           	callstack 0
   662   00015E                     	ds	2
   663   000160                     _cont_task9:
   664                           	callstack 0
   665   000160                     	ds	2
   666   000162                     _cont_task8:
   667                           	callstack 0
   668   000162                     	ds	2
   669   000164                     _cont_task7:
   670                           	callstack 0
   671   000164                     	ds	2
   672   000166                     _cont_task6:
   673                           	callstack 0
   674   000166                     	ds	2
   675   000168                     _Lectura_ADC_CH0:
   676                           	callstack 0
   677   000168                     	ds	2
   678   00016A                     _DATOS_LISTOS_EMPAQUEADO:
   679                           	callstack 0
   680   00016A                     	ds	1
   681   00016B                     _DATOS_LISTOS_SENSOR_AFM:
   682                           	callstack 0
   683   00016B                     	ds	1
   684   00016C                     _DATOS_LISTOS_ADC_BAT:
   685                           	callstack 0
   686   00016C                     	ds	1
   687   00016D                     _HABILITAR_VERIFICAR_UMBRAL:
   688                           	callstack 0
   689   00016D                     	ds	1
   690   00016E                     _HABILITAR_LECTURA_SENSOR:
   691                           	callstack 0
   692   00016E                     	ds	1
   693   00016F                     _HABILITAR_TX_DATOS_AFM:
   694                           	callstack 0
   695   00016F                     	ds	1
   696   000170                     _frecuencia_tx_datos_pc:
   697                           	callstack 0
   698   000170                     	ds	1
   699   000171                     _ALARMA_ACTIVA:
   700                           	callstack 0
   701   000171                     	ds	1
   702   000172                     _contador_lectura_adc@interrupt_manager$F657:
   703                           	callstack 0
   704   000172                     	ds	1
   705   000173                     _num_de_estacion:
   706                           	callstack 0
   707   000173                     	ds	1
   708   000174                     _HABILITAR_TAREA_MINUTOS_SOL:
   709                           	callstack 0
   710   000174                     	ds	1
   711   000175                     _HABILITAR_TASK4:
   712                           	callstack 0
   713   000175                     	ds	1
   714   000176                     _HABILITAR_TASK3:
   715                           	callstack 0
   716   000176                     	ds	1
   717   000177                     _HABILITAR_TASK2:
   718                           	callstack 0
   719   000177                     	ds	1
   720   000178                     _dbuf:
   721                           	callstack 0
   722   000178                     	ds	80
   723   0001C8                     _NUM_MINUTOS_T0:
   724                           	callstack 0
   725   0001C8                     	ds	4
   726                           
   727                           	psect	dataBANK1
   728   0001F8                     __pdataBANK1:
   729                           	callstack 0
   730   0001F8                     _NIVEL_UNBRAL_500MV:
   731                           	callstack 0
   732   0001F8                     	ds	2
   733                           
   734                           	psect	dataBANK2
   735   000200                     __pdataBANK2:
   736                           	callstack 0
   737   000200                     _datos_sensores_afm_radio:
   738                           	callstack 0
   739   000200                     	ds	90
   740   00025A                     _datos_sensores_afm_pc:
   741                           	callstack 0
   742   00025A                     	ds	90
   743                           
   744                           	psect	cstackBANK1
   745   0001CC                     __pcstackBANK1:
   746                           	callstack 0
   747   0001CC                     ?_vfprintf:
   748                           	callstack 0
   749   0001CC                     vfprintf@fp:
   750                           	callstack 0
   751                           
   752                           ; 2 bytes @ 0x0
   753   0001CC                     	ds	2
   754   0001CE                     vfprintf@fmt:
   755                           	callstack 0
   756                           
   757                           ; 2 bytes @ 0x2
   758   0001CE                     	ds	2
   759   0001D0                     vfprintf@ap:
   760                           	callstack 0
   761                           
   762                           ; 2 bytes @ 0x4
   763   0001D0                     	ds	2
   764   0001D2                     ?_sprintf:
   765                           	callstack 0
   766   0001D2                     sprintf@s:
   767                           	callstack 0
   768                           
   769                           ; 2 bytes @ 0x6
   770   0001D2                     	ds	2
   771   0001D4                     sprintf@fmt:
   772                           	callstack 0
   773                           
   774                           ; 2 bytes @ 0x8
   775   0001D4                     	ds	22
   776   0001EA                     sprintf@ap:
   777                           	callstack 0
   778                           
   779                           ; 2 bytes @ 0x1E
   780   0001EA                     	ds	2
   781   0001EC                     sprintf@f:
   782                           	callstack 0
   783                           
   784                           ; 12 bytes @ 0x20
   785   0001EC                     	ds	12
   786                           
   787                           	psect	cstackBANK0
   788   000060                     __pcstackBANK0:
   789                           	callstack 0
   790   000060                     ??_fputc:
   791   000060                     ??___fpclassifyf:
   792   000060                     ??_labs:
   793   000060                     ??___xxtofl:
   794   000060                     ?___fladd:
   795                           	callstack 0
   796   000060                     ?___lldiv:
   797                           	callstack 0
   798   000060                     ___awdiv@counter:
   799                           	callstack 0
   800   000060                     ___awmod@counter:
   801                           	callstack 0
   802   000060                     ___lwdiv@counter:
   803                           	callstack 0
   804   000060                     ___wmul@product:
   805                           	callstack 0
   806   000060                     memcpy@d1:
   807                           	callstack 0
   808   000060                     strcpy@s:
   809                           	callstack 0
   810   000060                     ___lldiv@dividend:
   811                           	callstack 0
   812   000060                     ___fleq@ff1:
   813                           	callstack 0
   814   000060                     ___fladd@b:
   815                           	callstack 0
   816                           
   817                           ; 4 bytes @ 0x0
   818   000060                     	ds	1
   819   000061                     ___awdiv@sign:
   820                           	callstack 0
   821   000061                     ___awmod@sign:
   822                           	callstack 0
   823   000061                     ___lwdiv@quotient:
   824                           	callstack 0
   825                           
   826                           ; 2 bytes @ 0x1
   827   000061                     	ds	1
   828   000062                     ?_abs:
   829                           	callstack 0
   830   000062                     ?_read_prec_or_width:
   831                           	callstack 0
   832   000062                     ___awdiv@quotient:
   833                           	callstack 0
   834   000062                     read_prec_or_width@fmt:
   835                           	callstack 0
   836   000062                     abs@a:
   837                           	callstack 0
   838   000062                     memcpy@s1:
   839                           	callstack 0
   840   000062                     strcpy@d:
   841                           	callstack 0
   842                           
   843                           ; 2 bytes @ 0x2
   844   000062                     	ds	2
   845   000064                     ??_abs:
   846   000064                     ___xxtofl@sign:
   847                           	callstack 0
   848   000064                     read_prec_or_width@ap:
   849                           	callstack 0
   850   000064                     ___fpclassifyf@e:
   851                           	callstack 0
   852   000064                     memcpy@n:
   853                           	callstack 0
   854   000064                     ___lldiv@divisor:
   855                           	callstack 0
   856   000064                     ___fleq@ff2:
   857                           	callstack 0
   858   000064                     ___fladd@a:
   859                           	callstack 0
   860                           
   861                           ; 4 bytes @ 0x4
   862   000064                     	ds	1
   863   000065                     ___xxtofl@exp:
   864                           	callstack 0
   865   000065                     fputs@s:
   866                           	callstack 0
   867                           
   868                           ; 2 bytes @ 0x5
   869   000065                     	ds	1
   870   000066                     ??_read_prec_or_width:
   871   000066                     ___xxtofl@arg:
   872                           	callstack 0
   873   000066                     ___fpclassifyf@u:
   874                           	callstack 0
   875                           
   876                           ; 4 bytes @ 0x6
   877   000066                     	ds	1
   878   000067                     fputs@fp:
   879                           	callstack 0
   880                           
   881                           ; 2 bytes @ 0x7
   882   000067                     	ds	1
   883   000068                     ___fladd@signs:
   884                           	callstack 0
   885   000068                     read_prec_or_width@c:
   886                           	callstack 0
   887                           
   888                           ; 1 bytes @ 0x8
   889   000068                     	ds	1
   890   000069                     ___fladd@aexp:
   891                           	callstack 0
   892   000069                     fputs@c:
   893                           	callstack 0
   894   000069                     read_prec_or_width@n:
   895                           	callstack 0
   896                           
   897                           ; 2 bytes @ 0x9
   898   000069                     	ds	1
   899   00006A                     ?___flmul:
   900                           	callstack 0
   901   00006A                     ___fladd@bexp:
   902                           	callstack 0
   903   00006A                     fputs@i:
   904                           	callstack 0
   905   00006A                     Asignar_Minutos_Timer0@minutos:
   906                           	callstack 0
   907   00006A                     ___flmul@b:
   908                           	callstack 0
   909                           
   910                           ; 4 bytes @ 0xA
   911   00006A                     	ds	1
   912   00006B                     ___fladd@grs:
   913                           	callstack 0
   914                           
   915                           ; 1 bytes @ 0xB
   916   00006B                     	ds	1
   917   00006C                     pad@fp:
   918                           	callstack 0
   919                           
   920                           ; 2 bytes @ 0xC
   921   00006C                     	ds	2
   922   00006E                     pad@buf:
   923                           	callstack 0
   924   00006E                     ___flmul@a:
   925                           	callstack 0
   926                           
   927                           ; 4 bytes @ 0xE
   928   00006E                     	ds	2
   929   000070                     pad@p:
   930                           	callstack 0
   931                           
   932                           ; 2 bytes @ 0x10
   933   000070                     	ds	2
   934   000072                     ??___flmul:
   935   000072                     pad@i:
   936                           	callstack 0
   937                           
   938                           ; 2 bytes @ 0x12
   939   000072                     	ds	2
   940   000074                     pad@w:
   941                           	callstack 0
   942                           
   943                           ; 2 bytes @ 0x14
   944   000074                     	ds	2
   945   000076                     ___flmul@sign:
   946                           	callstack 0
   947   000076                     dtoa@fp:
   948                           	callstack 0
   949   000076                     utoa@fp:
   950                           	callstack 0
   951                           
   952                           ; 2 bytes @ 0x16
   953   000076                     	ds	1
   954   000077                     ___flmul@aexp:
   955                           	callstack 0
   956                           
   957                           ; 1 bytes @ 0x17
   958   000077                     	ds	1
   959   000078                     dtoa@d:
   960                           	callstack 0
   961   000078                     utoa@d:
   962                           	callstack 0
   963   000078                     ___flmul@grs:
   964                           	callstack 0
   965                           
   966                           ; 4 bytes @ 0x18
   967   000078                     	ds	2
   968   00007A                     _dtoa$2512:
   969                           	callstack 0
   970   00007A                     utoa@p:
   971                           	callstack 0
   972                           
   973                           ; 2 bytes @ 0x1A
   974   00007A                     	ds	2
   975   00007C                     ___flmul@bexp:
   976                           	callstack 0
   977   00007C                     dtoa@p:
   978                           	callstack 0
   979   00007C                     utoa@w:
   980                           	callstack 0
   981                           
   982                           ; 2 bytes @ 0x1C
   983   00007C                     	ds	1
   984   00007D                     ___flmul@prod:
   985                           	callstack 0
   986                           
   987                           ; 4 bytes @ 0x1D
   988   00007D                     	ds	1
   989   00007E                     dtoa@w:
   990                           	callstack 0
   991   00007E                     utoa@i:
   992                           	callstack 0
   993                           
   994                           ; 2 bytes @ 0x1E
   995   00007E                     	ds	2
   996   000080                     dtoa@s:
   997                           	callstack 0
   998                           
   999                           ; 1 bytes @ 0x20
  1000   000080                     	ds	1
  1001   000081                     ___flmul@temp:
  1002                           	callstack 0
  1003   000081                     dtoa@i:
  1004                           	callstack 0
  1005                           
  1006                           ; 2 bytes @ 0x21
  1007   000081                     	ds	2
  1008   000083                     ?___fldiv:
  1009                           	callstack 0
  1010   000083                     ?___flsub:
  1011                           	callstack 0
  1012   000083                     ___flge@ff1:
  1013                           	callstack 0
  1014   000083                     ___flsub@b:
  1015                           	callstack 0
  1016   000083                     ___fldiv@b:
  1017                           	callstack 0
  1018                           
  1019                           ; 4 bytes @ 0x23
  1020   000083                     	ds	4
  1021   000087                     ___flge@ff2:
  1022                           	callstack 0
  1023   000087                     ___flsub@a:
  1024                           	callstack 0
  1025   000087                     ___fldiv@a:
  1026                           	callstack 0
  1027                           
  1028                           ; 4 bytes @ 0x27
  1029   000087                     	ds	4
  1030   00008B                     ??___fldiv:
  1031   00008B                     ??___flge:
  1032                           
  1033                           ; 1 bytes @ 0x2B
  1034   00008B                     	ds	4
  1035   00008F                     ___fldiv@rem:
  1036                           	callstack 0
  1037                           
  1038                           ; 4 bytes @ 0x2F
  1039   00008F                     	ds	4
  1040   000093                     ___fldiv@sign:
  1041                           	callstack 0
  1042                           
  1043                           ; 1 bytes @ 0x33
  1044   000093                     	ds	1
  1045   000094                     ___fldiv@new_exp:
  1046                           	callstack 0
  1047                           
  1048                           ; 2 bytes @ 0x34
  1049   000094                     	ds	2
  1050   000096                     ___fldiv@grs:
  1051                           	callstack 0
  1052                           
  1053                           ; 4 bytes @ 0x36
  1054   000096                     	ds	4
  1055   00009A                     ___fldiv@bexp:
  1056                           	callstack 0
  1057                           
  1058                           ; 1 bytes @ 0x3A
  1059   00009A                     	ds	1
  1060   00009B                     ___fldiv@aexp:
  1061                           	callstack 0
  1062                           
  1063                           ; 1 bytes @ 0x3B
  1064   00009B                     	ds	1
  1065   00009C                     ?_floorf:
  1066                           	callstack 0
  1067   00009C                     ?___fltol:
  1068                           	callstack 0
  1069   00009C                     ___fltol@f1:
  1070                           	callstack 0
  1071   00009C                     floorf@x:
  1072                           	callstack 0
  1073                           
  1074                           ; 4 bytes @ 0x3C
  1075   00009C                     	ds	4
  1076   0000A0                     ??_floorf:
  1077   0000A0                     ??___fltol:
  1078                           
  1079                           ; 1 bytes @ 0x40
  1080   0000A0                     	ds	4
  1081   0000A4                     ___fltol@sign1:
  1082                           	callstack 0
  1083                           
  1084                           ; 1 bytes @ 0x44
  1085   0000A4                     	ds	1
  1086   0000A5                     ___fltol@exp1:
  1087                           	callstack 0
  1088                           
  1089                           ; 1 bytes @ 0x45
  1090   0000A5                     	ds	1
  1091   0000A6                     floorf@m:
  1092                           	callstack 0
  1093                           
  1094                           ; 4 bytes @ 0x46
  1095   0000A6                     	ds	4
  1096   0000AA                     floorf@e:
  1097                           	callstack 0
  1098                           
  1099                           ; 2 bytes @ 0x4A
  1100   0000AA                     	ds	2
  1101   0000AC                     floorf@u:
  1102                           	callstack 0
  1103                           
  1104                           ; 4 bytes @ 0x4C
  1105   0000AC                     	ds	4
  1106   0000B0                     efgtoa@fp:
  1107                           	callstack 0
  1108                           
  1109                           ; 2 bytes @ 0x50
  1110   0000B0                     	ds	2
  1111   0000B2                     efgtoa@f:
  1112                           	callstack 0
  1113                           
  1114                           ; 4 bytes @ 0x52
  1115   0000B2                     	ds	4
  1116   0000B6                     efgtoa@c:
  1117                           	callstack 0
  1118                           
  1119                           ; 1 bytes @ 0x56
  1120   0000B6                     	ds	1
  1121   0000B7                     ??_efgtoa:
  1122                           
  1123                           ; 1 bytes @ 0x57
  1124   0000B7                     	ds	2
  1125   0000B9                     efgtoa@ne:
  1126                           	callstack 0
  1127                           
  1128                           ; 2 bytes @ 0x59
  1129   0000B9                     	ds	2
  1130   0000BB                     efgtoa@p:
  1131                           	callstack 0
  1132                           
  1133                           ; 2 bytes @ 0x5B
  1134   0000BB                     	ds	2
  1135   0000BD                     efgtoa@t:
  1136                           	callstack 0
  1137                           
  1138                           ; 2 bytes @ 0x5D
  1139   0000BD                     	ds	2
  1140   0000BF                     _efgtoa$2543:
  1141                           	callstack 0
  1142                           
  1143                           ; 2 bytes @ 0x5F
  1144   0000BF                     	ds	2
  1145   0000C1                     efgtoa@pp:
  1146                           	callstack 0
  1147                           
  1148                           ; 1 bytes @ 0x61
  1149   0000C1                     	ds	1
  1150   0000C2                     efgtoa@mode:
  1151                           	callstack 0
  1152                           
  1153                           ; 1 bytes @ 0x62
  1154   0000C2                     	ds	1
  1155   0000C3                     efgtoa@nmode:
  1156                           	callstack 0
  1157                           
  1158                           ; 1 bytes @ 0x63
  1159   0000C3                     	ds	1
  1160   0000C4                     efgtoa@d:
  1161                           	callstack 0
  1162                           
  1163                           ; 2 bytes @ 0x64
  1164   0000C4                     	ds	2
  1165   0000C6                     efgtoa@m:
  1166                           	callstack 0
  1167                           
  1168                           ; 2 bytes @ 0x66
  1169   0000C6                     	ds	2
  1170   0000C8                     efgtoa@e:
  1171                           	callstack 0
  1172                           
  1173                           ; 2 bytes @ 0x68
  1174   0000C8                     	ds	2
  1175   0000CA                     efgtoa@ou:
  1176                           	callstack 0
  1177                           
  1178                           ; 4 bytes @ 0x6A
  1179   0000CA                     	ds	4
  1180   0000CE                     efgtoa@w:
  1181                           	callstack 0
  1182                           
  1183                           ; 2 bytes @ 0x6E
  1184   0000CE                     	ds	2
  1185   0000D0                     efgtoa@h:
  1186                           	callstack 0
  1187                           
  1188                           ; 4 bytes @ 0x70
  1189   0000D0                     	ds	4
  1190   0000D4                     efgtoa@l:
  1191                           	callstack 0
  1192                           
  1193                           ; 4 bytes @ 0x74
  1194   0000D4                     	ds	4
  1195   0000D8                     efgtoa@i:
  1196                           	callstack 0
  1197                           
  1198                           ; 2 bytes @ 0x78
  1199   0000D8                     	ds	2
  1200   0000DA                     efgtoa@sign:
  1201                           	callstack 0
  1202                           
  1203                           ; 1 bytes @ 0x7A
  1204   0000DA                     	ds	1
  1205   0000DB                     efgtoa@g:
  1206                           	callstack 0
  1207                           
  1208                           ; 4 bytes @ 0x7B
  1209   0000DB                     	ds	4
  1210   0000DF                     efgtoa@n:
  1211                           	callstack 0
  1212                           
  1213                           ; 2 bytes @ 0x7F
  1214   0000DF                     	ds	2
  1215   0000E1                     efgtoa@u:
  1216                           	callstack 0
  1217                           
  1218                           ; 4 bytes @ 0x81
  1219   0000E1                     	ds	4
  1220   0000E5                     vfpfcnvrt@fp:
  1221                           	callstack 0
  1222                           
  1223                           ; 2 bytes @ 0x85
  1224   0000E5                     	ds	2
  1225   0000E7                     vfpfcnvrt@fmt:
  1226                           	callstack 0
  1227                           
  1228                           ; 2 bytes @ 0x87
  1229   0000E7                     	ds	2
  1230   0000E9                     vfpfcnvrt@ap:
  1231                           	callstack 0
  1232                           
  1233                           ; 2 bytes @ 0x89
  1234   0000E9                     	ds	2
  1235   0000EB                     ??_vfpfcnvrt:
  1236                           
  1237                           ; 1 bytes @ 0x8B
  1238   0000EB                     	ds	2
  1239   0000ED                     vfpfcnvrt@done:
  1240                           	callstack 0
  1241                           
  1242                           ; 2 bytes @ 0x8D
  1243   0000ED                     	ds	2
  1244   0000EF                     vfpfcnvrt@c:
  1245                           	callstack 0
  1246                           
  1247                           ; 1 bytes @ 0x8F
  1248   0000EF                     	ds	1
  1249   0000F0                     vfpfcnvrt@convarg:
  1250                           	callstack 0
  1251                           
  1252                           ; 4 bytes @ 0x90
  1253   0000F0                     	ds	4
  1254   0000F4                     vfpfcnvrt@cp:
  1255                           	callstack 0
  1256                           
  1257                           ; 2 bytes @ 0x94
  1258   0000F4                     	ds	2
  1259   0000F6                     vfprintf@cfmt:
  1260                           	callstack 0
  1261                           
  1262                           ; 2 bytes @ 0x96
  1263   0000F6                     	ds	2
  1264   0000F8                     ??_main:
  1265                           
  1266                           ; 1 bytes @ 0x98
  1267   0000F8                     	ds	1
  1268   0000F9                     main@i:
  1269                           	callstack 0
  1270                           
  1271                           ; 1 bytes @ 0x99
  1272   0000F9                     	ds	1
  1273                           
  1274                           	psect	cstackCOMRAM
  1275   000001                     __pcstackCOMRAM:
  1276                           	callstack 0
  1277   000001                     ?i1___fltol:
  1278                           	callstack 0
  1279   000001                     ?i1___flmul:
  1280                           	callstack 0
  1281   000001                     i1___fltol@f1:
  1282                           	callstack 0
  1283   000001                     i1___flmul@b:
  1284                           	callstack 0
  1285                           
  1286                           ; 4 bytes @ 0x0
  1287   000001                     	ds	4
  1288   000005                     ??i1___fltol:
  1289   000005                     i1___flmul@a:
  1290                           	callstack 0
  1291                           
  1292                           ; 4 bytes @ 0x4
  1293   000005                     	ds	4
  1294   000009                     ??i1___flmul:
  1295   000009                     i1___fltol@sign1:
  1296                           	callstack 0
  1297                           
  1298                           ; 1 bytes @ 0x8
  1299   000009                     	ds	1
  1300   00000A                     i1___fltol@exp1:
  1301                           	callstack 0
  1302                           
  1303                           ; 1 bytes @ 0x9
  1304   00000A                     	ds	3
  1305   00000D                     i1___flmul@sign:
  1306                           	callstack 0
  1307                           
  1308                           ; 1 bytes @ 0xC
  1309   00000D                     	ds	1
  1310   00000E                     i1___flmul@grs:
  1311                           	callstack 0
  1312                           
  1313                           ; 4 bytes @ 0xD
  1314   00000E                     	ds	4
  1315   000012                     i1___flmul@aexp:
  1316                           	callstack 0
  1317                           
  1318                           ; 1 bytes @ 0x11
  1319   000012                     	ds	1
  1320   000013                     i1___flmul@bexp:
  1321                           	callstack 0
  1322                           
  1323                           ; 1 bytes @ 0x12
  1324   000013                     	ds	1
  1325   000014                     i1___flmul@prod:
  1326                           	callstack 0
  1327                           
  1328                           ; 4 bytes @ 0x13
  1329   000014                     	ds	4
  1330   000018                     i1___flmul@temp:
  1331                           	callstack 0
  1332                           
  1333                           ; 2 bytes @ 0x17
  1334   000018                     	ds	2
  1335   00001A                     ??_low_isr:
  1336                           
  1337                           ; 1 bytes @ 0x19
  1338   00001A                     	ds	5
  1339   00001F                     ??_Lectura_Numero_Est:
  1340   00001F                     ??_Lectura_Frecuencia_tx:
  1341   00001F                     ??___fladd:
  1342   00001F                     ??___fleq:
  1343   00001F                     ?_Leer_ADC:
  1344                           	callstack 0
  1345   00001F                     ?___fpclassifyf:
  1346                           	callstack 0
  1347   00001F                     ?___wmul:
  1348                           	callstack 0
  1349   00001F                     ?___awdiv:
  1350                           	callstack 0
  1351   00001F                     ?___awmod:
  1352                           	callstack 0
  1353   00001F                     ?___lwdiv:
  1354                           	callstack 0
  1355   00001F                     ?___lwmod:
  1356                           	callstack 0
  1357   00001F                     ?_labs:
  1358                           	callstack 0
  1359   00001F                     ?___flneg:
  1360                           	callstack 0
  1361   00001F                     ?___xxtofl:
  1362                           	callstack 0
  1363   00001F                     UART_Enviar_Caracter@dato:
  1364                           	callstack 0
  1365   00001F                     SPI_Enviar_Caracter@spi_tx:
  1366                           	callstack 0
  1367   00001F                     memcpy@tmp:
  1368                           	callstack 0
  1369   00001F                     ___wmul@multiplier:
  1370                           	callstack 0
  1371   00001F                     ___awdiv@dividend:
  1372                           	callstack 0
  1373   00001F                     ___awmod@dividend:
  1374                           	callstack 0
  1375   00001F                     ___lwdiv@dividend:
  1376                           	callstack 0
  1377   00001F                     ___lwmod@dividend:
  1378                           	callstack 0
  1379   00001F                     fputc@c:
  1380                           	callstack 0
  1381   00001F                     strcpy@dest:
  1382                           	callstack 0
  1383   00001F                     ___lldiv@quotient:
  1384                           	callstack 0
  1385   00001F                     ___flneg@f1:
  1386                           	callstack 0
  1387   00001F                     ___xxtofl@val:
  1388                           	callstack 0
  1389   00001F                     ___fpclassifyf@x:
  1390                           	callstack 0
  1391   00001F                     labs@a:
  1392                           	callstack 0
  1393                           
  1394                           ; 4 bytes @ 0x1E
  1395   00001F                     	ds	1
  1396   000020                     UART_Enviar_Cadena@cadena:
  1397                           	callstack 0
  1398   000020                     memcpy@d:
  1399                           	callstack 0
  1400                           
  1401                           ; 2 bytes @ 0x1F
  1402   000020                     	ds	1
  1403   000021                     ??_Leer_ADC:
  1404   000021                     ___wmul@multiplicand:
  1405                           	callstack 0
  1406   000021                     ___awdiv@divisor:
  1407                           	callstack 0
  1408   000021                     ___awmod@divisor:
  1409                           	callstack 0
  1410   000021                     ___lwdiv@divisor:
  1411                           	callstack 0
  1412   000021                     ___lwmod@divisor:
  1413                           	callstack 0
  1414   000021                     fputc@fp:
  1415                           	callstack 0
  1416   000021                     strcpy@src:
  1417                           	callstack 0
  1418                           
  1419                           ; 2 bytes @ 0x20
  1420   000021                     	ds	1
  1421   000022                     memcpy@s:
  1422                           	callstack 0
  1423                           
  1424                           ; 2 bytes @ 0x21
  1425   000022                     	ds	1
  1426   000023                     ??_pad:
  1427   000023                     ___lldiv@counter:
  1428                           	callstack 0
  1429   000023                     ___lwmod@counter:
  1430                           	callstack 0
  1431                           
  1432                           ; 1 bytes @ 0x22
  1433   000023                     	ds	1
  1434   000024                     
  1435                           ; 1 bytes @ 0x23
  1436 ;;
  1437 ;;Main: autosize = 0, tempsize = 1, incstack = 0, save=0
  1438 ;;
  1439 ;; *************** function _main *****************
  1440 ;; Defined at:
  1441 ;;		line 55 in file "main.c"
  1442 ;; Parameters:    Size  Location     Type
  1443 ;;		None
  1444 ;; Auto vars:     Size  Location     Type
  1445 ;;  i               1  153[BANK0 ] unsigned char 
  1446 ;; Return value:  Size  Location     Type
  1447 ;;                  1    wreg      void 
  1448 ;; Registers used:
  1449 ;;		wreg, fsr1l, fsr1h, fsr2l, fsr2h, status,2, status,0, tblptrl, tblptrh, tblptru, prodl, prodh, cstack
  1450 ;; Tracked objects:
  1451 ;;		On entry : 0/0
  1452 ;;		On exit  : 0/0
  1453 ;;		Unchanged: 0/0
  1454 ;; Data sizes:     COMRAM   BANK0   BANK1   BANK2   BANK3   BANK4   BANK5   BANK6   BANK7
  1455 ;;      Params:         0       0       0       0       0       0       0       0       0
  1456 ;;      Locals:         0       1       0       0       0       0       0       0       0
  1457 ;;      Temps:          0       1       0       0       0       0       0       0       0
  1458 ;;      Totals:         0       2       0       0       0       0       0       0       0
  1459 ;;Total ram usage:        2 bytes
  1460 ;; Hardware stack levels required when called: 12
  1461 ;; This function calls:
  1462 ;;		_Asignar_Minutos_Timer0
  1463 ;;		_Inicializar_Sistema
  1464 ;;		_Lectura_Frecuencia_tx
  1465 ;;		_Lectura_Numero_Est
  1466 ;;		_Leer_ADC
  1467 ;;		_SPI_Enviar_Caracter
  1468 ;;		_SPI_Recibir_Caracter
  1469 ;;		_UART_Enviar_Cadena
  1470 ;;		___fldiv
  1471 ;;		___flmul
  1472 ;;		___fltol
  1473 ;;		___lldiv
  1474 ;;		___xxtofl
  1475 ;;		_sprintf
  1476 ;; This function is called by:
  1477 ;;		Startup code after reset
  1478 ;; This function uses a non-reentrant model
  1479 ;;
  1480                           
  1481                           	psect	text0
  1482   0012B0                     __ptext0:
  1483                           	callstack 0
  1484   0012B0                     _main:
  1485                           	callstack 19
  1486   0012B0                     
  1487                           ;main.c: 58:     Inicializar_Sistema();
  1488   0012B0  EC82  F023         	call	_Inicializar_Sistema	;wreg free
  1489   0012B4                     
  1490                           ;main.c: 61:     (SSPCON1bits.SSPEN = 1);
  1491   0012B4  8AC6               	bsf	198,5,c	;volatile
  1492   0012B6                     
  1493                           ;main.c: 62:     (RCSTAbits.SPEN = 0);
  1494   0012B6  9EAB               	bcf	171,7,c	;volatile
  1495   0012B8                     
  1496                           ;main.c: 64:     (TRISCbits.TRISC7 = 0);
  1497   0012B8  9E94               	bcf	148,7,c	;volatile
  1498   0012BA                     
  1499                           ;main.c: 67:  SPI_Enviar_Caracter(0xFF);
  1500   0012BA  0EFF               	movlw	255
  1501   0012BC  EC34  F024         	call	_SPI_Enviar_Caracter
  1502   0012C0                     
  1503                           ;main.c: 68:  SPI_Enviar_Caracter(0xFF);
  1504   0012C0  0EFF               	movlw	255
  1505   0012C2  EC34  F024         	call	_SPI_Enviar_Caracter
  1506   0012C6                     
  1507                           ;main.c: 69:  SPI_Enviar_Caracter(0xFF);
  1508   0012C6  0EFF               	movlw	255
  1509   0012C8  EC34  F024         	call	_SPI_Enviar_Caracter
  1510   0012CC                     
  1511                           ;main.c: 70:  SPI_Enviar_Caracter(0xFF);
  1512   0012CC  0EFF               	movlw	255
  1513   0012CE  EC34  F024         	call	_SPI_Enviar_Caracter
  1514   0012D2                     
  1515                           ;main.c: 71:  SPI_Enviar_Caracter(0xFF);
  1516   0012D2  0EFF               	movlw	255
  1517   0012D4  EC34  F024         	call	_SPI_Enviar_Caracter
  1518   0012D8                     
  1519                           ;main.c: 74:  HABILITAR_TX_DATOS_AFM = 1;
  1520   0012D8  0E01               	movlw	1
  1521   0012DA  0101               	movlb	1	; () banked
  1522   0012DC  6F6F               	movwf	_HABILITAR_TX_DATOS_AFM& (0+255),b
  1523   0012DE                     
  1524                           ; BSR set to: 1
  1525                           ;main.c: 75:     DATOS_LISTOS_ADC_BAT = 0;
  1526   0012DE  0E00               	movlw	0
  1527   0012E0  6F6C               	movwf	_DATOS_LISTOS_ADC_BAT& (0+255),b
  1528   0012E2                     
  1529                           ; BSR set to: 1
  1530                           ;main.c: 76:     DATOS_LISTOS_SENSOR_AFM = 0;
  1531   0012E2  0E00               	movlw	0
  1532   0012E4  6F6B               	movwf	_DATOS_LISTOS_SENSOR_AFM& (0+255),b
  1533   0012E6                     
  1534                           ; BSR set to: 1
  1535                           ;main.c: 77:     DATOS_LISTOS_EMPAQUEADO = 0;
  1536   0012E6  0E00               	movlw	0
  1537   0012E8  6F6A               	movwf	_DATOS_LISTOS_EMPAQUEADO& (0+255),b
  1538   0012EA                     
  1539                           ; BSR set to: 1
  1540                           ;main.c: 79:     (SSPCON1bits.SSPEN = 0);
  1541   0012EA  9AC6               	bcf	198,5,c	;volatile
  1542   0012EC                     
  1543                           ; BSR set to: 1
  1544                           ;main.c: 80:     (RCSTAbits.SPEN = 1);
  1545   0012EC  8EAB               	bsf	171,7,c	;volatile
  1546   0012EE                     
  1547                           ; BSR set to: 1
  1548                           ;main.c: 81:     (TRISCbits.TRISC7 = 1);
  1549   0012EE  8E94               	bsf	148,7,c	;volatile
  1550   0012F0                     
  1551                           ; BSR set to: 1
  1552                           ;main.c: 85:     (INTCONbits.GIE = 1);
  1553   0012F0  8EF2               	bsf	242,7,c	;volatile
  1554   0012F2                     
  1555                           ; BSR set to: 1
  1556                           ;main.c: 88:     (INTCONbits.PEIE = 1);
  1557   0012F2  8CF2               	bsf	242,6,c	;volatile
  1558   0012F4                     
  1559                           ; BSR set to: 1
  1560                           ;main.c: 91:     HABILITAR_TAREA_MINUTOS_SOL = 1;
  1561   0012F4  0E01               	movlw	1
  1562   0012F6  6F74               	movwf	_HABILITAR_TAREA_MINUTOS_SOL& (0+255),b	;volatile
  1563   0012F8                     l7200:
  1564                           
  1565                           ; BSR set to: 1
  1566                           ;main.c: 94:      {;main.c: 96:         if(HABILITAR_TAREA_MINUTOS_SOL && DATOS_LISTOS_E
      +                          MPAQUEADO){
  1567   0012F8  5174               	movf	_HABILITAR_TAREA_MINUTOS_SOL& (0+255),w,b	;volatile
  1568   0012FA  B4D8               	btfsc	status,2,c
  1569   0012FC  EF82  F009         	goto	u8231
  1570   001300  EF84  F009         	goto	u8230
  1571   001304                     u8231:
  1572   001304  EFA3  F009         	goto	l298
  1573   001308                     u8230:
  1574   001308                     
  1575                           ; BSR set to: 1
  1576   001308  516A               	movf	_DATOS_LISTOS_EMPAQUEADO& (0+255),w,b
  1577   00130A  B4D8               	btfsc	status,2,c
  1578   00130C  EF8A  F009         	goto	u8241
  1579   001310  EF8C  F009         	goto	u8240
  1580   001314                     u8241:
  1581   001314  EFA3  F009         	goto	l298
  1582   001318                     u8240:
  1583   001318                     
  1584                           ; BSR set to: 1
  1585                           ;main.c: 97:             HABILITAR_TAREA_MINUTOS_SOL = 0;
  1586   001318  0E00               	movlw	0
  1587   00131A  6F74               	movwf	_HABILITAR_TAREA_MINUTOS_SOL& (0+255),b	;volatile
  1588                           
  1589                           ;main.c: 98:             DATOS_LISTOS_EMPAQUEADO = 0;
  1590   00131C  0E00               	movlw	0
  1591   00131E  6F6A               	movwf	_DATOS_LISTOS_EMPAQUEADO& (0+255),b
  1592   001320                     
  1593                           ; BSR set to: 1
  1594                           ;main.c: 101:             (SSPCON1bits.SSPEN = 0);
  1595   001320  9AC6               	bcf	198,5,c	;volatile
  1596   001322                     
  1597                           ; BSR set to: 1
  1598                           ;main.c: 102:             (RCSTAbits.SPEN = 1);
  1599   001322  8EAB               	bsf	171,7,c	;volatile
  1600   001324                     
  1601                           ; BSR set to: 1
  1602                           ;main.c: 107:           UART_Enviar_Cadena(datos_sensores_afm_pc);
  1603   001324  0E5A               	movlw	low _datos_sensores_afm_pc
  1604   001326  6E20               	movwf	UART_Enviar_Cadena@cadena^0,c
  1605   001328  0E02               	movlw	high _datos_sensores_afm_pc
  1606   00132A  6E21               	movwf	(UART_Enviar_Cadena@cadena+1)^0,c
  1607   00132C  EC4F  F022         	call	_UART_Enviar_Cadena	;wreg free
  1608   001330                     
  1609                           ;main.c: 108:           UART_Enviar_Cadena("\r");
  1610   001330  0E40               	movlw	low STR_1
  1611   001332  6E20               	movwf	UART_Enviar_Cadena@cadena^0,c
  1612   001334  0E08               	movlw	high STR_1
  1613   001336  6E21               	movwf	(UART_Enviar_Cadena@cadena+1)^0,c
  1614   001338  EC4F  F022         	call	_UART_Enviar_Cadena	;wreg free
  1615                           
  1616                           ;main.c: 123:                 DATOS_LISTOS_ADC_BAT = 0;
  1617   00133C  0E00               	movlw	0
  1618   00133E  0101               	movlb	1	; () banked
  1619   001340  6F6C               	movwf	_DATOS_LISTOS_ADC_BAT& (0+255),b
  1620                           
  1621                           ;main.c: 124:                 DATOS_LISTOS_SENSOR_AFM = 0;
  1622   001342  0E00               	movlw	0
  1623   001344  6F6B               	movwf	_DATOS_LISTOS_SENSOR_AFM& (0+255),b
  1624   001346                     l298:
  1625                           
  1626                           ; BSR set to: 1
  1627                           ;main.c: 129:         if(HABILITAR_TASK0) {
  1628   001346  0100               	movlb	0	; () banked
  1629   001348  51FC               	movf	_HABILITAR_TASK0& (0+255),w,b	;volatile
  1630   00134A  B4D8               	btfsc	status,2,c
  1631   00134C  EFAA  F009         	goto	u8251
  1632   001350  EFAC  F009         	goto	u8250
  1633   001354                     u8251:
  1634   001354  EF1E  F00C         	goto	l7342
  1635   001358                     u8250:
  1636   001358                     
  1637                           ; BSR set to: 0
  1638                           ;main.c: 130:             HABILITAR_TASK0 = 0;
  1639   001358  0E00               	movlw	0
  1640   00135A  6FFC               	movwf	_HABILITAR_TASK0& (0+255),b	;volatile
  1641   00135C                     
  1642                           ; BSR set to: 0
  1643                           ;main.c: 132:             if (PORTBbits.RB5) {
  1644   00135C  AA81               	btfss	129,5,c	;volatile
  1645   00135E  EFB3  F009         	goto	u8261
  1646   001362  EFB5  F009         	goto	u8260
  1647   001366                     u8261:
  1648   001366  EFC2  F009         	goto	l7224
  1649   00136A                     u8260:
  1650   00136A                     
  1651                           ; BSR set to: 0
  1652                           ;main.c: 134:                 if (FLANCO_NEG) {
  1653   00136A  51FE               	movf	_FLANCO_NEG& (0+255),w,b	;volatile
  1654   00136C  B4D8               	btfsc	status,2,c
  1655   00136E  EFBB  F009         	goto	u8271
  1656   001372  EFBD  F009         	goto	u8270
  1657   001376                     u8271:
  1658   001376  EFC4  F009         	goto	l302
  1659   00137A                     u8270:
  1660   00137A                     
  1661                           ; BSR set to: 0
  1662                           ;main.c: 136:                     contador_pluviometro++;
  1663   00137A  2BFD               	incf	_contador_pluviometro& (0+255),f,b	;volatile
  1664   00137C                     
  1665                           ; BSR set to: 0
  1666                           ;main.c: 137:                     FLANCO_NEG = 0;
  1667   00137C  0E00               	movlw	0
  1668   00137E  6FFE               	movwf	_FLANCO_NEG& (0+255),b	;volatile
  1669   001380  EFC4  F009         	goto	l302
  1670   001384                     l7224:
  1671                           
  1672                           ; BSR set to: 0
  1673   001384  0E01               	movlw	1
  1674   001386  6FFE               	movwf	_FLANCO_NEG& (0+255),b	;volatile
  1675   001388                     l302:
  1676                           
  1677                           ; BSR set to: 0
  1678                           ;main.c: 141:             if(HABLILITAR_LECTURA_CH0) {
  1679   001388  51FF               	movf	_HABLILITAR_LECTURA_CH0& (0+255),w,b	;volatile
  1680   00138A  B4D8               	btfsc	status,2,c
  1681   00138C  EFCA  F009         	goto	u8281
  1682   001390  EFCC  F009         	goto	u8280
  1683   001394                     u8281:
  1684   001394  EF26  F00A         	goto	l7240
  1685   001398                     u8280:
  1686   001398                     
  1687                           ; BSR set to: 0
  1688                           ;main.c: 144:                 suma_lectura_adc += Leer_ADC();
  1689   001398  EC09  F024         	call	_Leer_ADC	;wreg free
  1690   00139C  501F               	movf	?_Leer_ADC^0,w,c
  1691   00139E  0101               	movlb	1	; () banked
  1692   0013A0  2736               	addwf	_suma_lectura_adc@interrupt_manager$F658& (0+255),f,b
  1693   0013A2  5020               	movf	(?_Leer_ADC+1)^0,w,c
  1694   0013A4  2337               	addwfc	(_suma_lectura_adc@interrupt_manager$F658+1)& (0+255),f,b
  1695   0013A6  0E00               	movlw	0
  1696   0013A8  2338               	addwfc	(_suma_lectura_adc@interrupt_manager$F658+2)& (0+255),f,b
  1697   0013AA  0E00               	movlw	0
  1698   0013AC  2339               	addwfc	(_suma_lectura_adc@interrupt_manager$F658+3)& (0+255),f,b
  1699   0013AE                     
  1700                           ; BSR set to: 1
  1701                           ;main.c: 145:                 if (contador_lectura_adc >= 15) {
  1702   0013AE  0E0E               	movlw	14
  1703   0013B0  6572               	cpfsgt	_contador_lectura_adc@interrupt_manager$F657& (0+255),b
  1704   0013B2  EFDD  F009         	goto	u8291
  1705   0013B6  EFDF  F009         	goto	u8290
  1706   0013BA                     u8291:
  1707   0013BA  EF24  F00A         	goto	l7236
  1708   0013BE                     u8290:
  1709   0013BE                     
  1710                           ; BSR set to: 1
  1711                           ;main.c: 146:                     contador_lectura_adc = 0;
  1712   0013BE  0E00               	movlw	0
  1713   0013C0  6F72               	movwf	_contador_lectura_adc@interrupt_manager$F657& (0+255),b
  1714   0013C2                     
  1715                           ; BSR set to: 1
  1716                           ;main.c: 147:                     resultado_adc_flotante = (float)suma_lectura_adc / (fl
      +                          oat)15;
  1717   0013C2  C136  F01F         	movff	_suma_lectura_adc@interrupt_manager$F658,___xxtofl@val
  1718   0013C6  C137  F020         	movff	_suma_lectura_adc@interrupt_manager$F658+1,___xxtofl@val+1
  1719   0013CA  C138  F021         	movff	_suma_lectura_adc@interrupt_manager$F658+2,___xxtofl@val+2
  1720   0013CE  C139  F022         	movff	_suma_lectura_adc@interrupt_manager$F658+3,___xxtofl@val+3
  1721   0013D2  0E00               	movlw	0
  1722   0013D4  EC08  F01A         	call	___xxtofl
  1723   0013D8  C01F  F083         	movff	?___xxtofl,___fldiv@b
  1724   0013DC  C020  F084         	movff	?___xxtofl+1,___fldiv@b+1
  1725   0013E0  C021  F085         	movff	?___xxtofl+2,___fldiv@b+2
  1726   0013E4  C022  F086         	movff	?___xxtofl+3,___fldiv@b+3
  1727   0013E8  0E00               	movlw	0
  1728   0013EA  0100               	movlb	0	; () banked
  1729   0013EC  6F87               	movwf	___fldiv@a& (0+255),b
  1730   0013EE  0E00               	movlw	0
  1731   0013F0  6F88               	movwf	(___fldiv@a+1)& (0+255),b
  1732   0013F2  0E70               	movlw	112
  1733   0013F4  6F89               	movwf	(___fldiv@a+2)& (0+255),b
  1734   0013F6  0E41               	movlw	65
  1735   0013F8  6F8A               	movwf	(___fldiv@a+3)& (0+255),b
  1736   0013FA  EC46  F016         	call	___fldiv	;wreg free
  1737   0013FE  C083  F132         	movff	?___fldiv,_resultado_adc_flotante@interrupt_manager$F659
  1738   001402  C084  F133         	movff	?___fldiv+1,_resultado_adc_flotante@interrupt_manager$F659+1
  1739   001406  C085  F134         	movff	?___fldiv+2,_resultado_adc_flotante@interrupt_manager$F659+2
  1740   00140A  C086  F135         	movff	?___fldiv+3,_resultado_adc_flotante@interrupt_manager$F659+3
  1741   00140E                     
  1742                           ;main.c: 148:                     Lectura_ADC_CH0 = (uint16_t)(resultado_adc_flotante);
  1743   00140E  C132  F09C         	movff	_resultado_adc_flotante@interrupt_manager$F659,___fltol@f1
  1744   001412  C133  F09D         	movff	_resultado_adc_flotante@interrupt_manager$F659+1,___fltol@f1+1
  1745   001416  C134  F09E         	movff	_resultado_adc_flotante@interrupt_manager$F659+2,___fltol@f1+2
  1746   00141A  C135  F09F         	movff	_resultado_adc_flotante@interrupt_manager$F659+3,___fltol@f1+3
  1747   00141E  EC7C  F01B         	call	___fltol	;wreg free
  1748   001422  C09C  F168         	movff	?___fltol,_Lectura_ADC_CH0	;volatile
  1749   001426  C09D  F169         	movff	?___fltol+1,_Lectura_ADC_CH0+1	;volatile
  1750                           
  1751                           ;main.c: 149:                     suma_lectura_adc = 0;
  1752   00142A  0E00               	movlw	0
  1753   00142C  0101               	movlb	1	; () banked
  1754   00142E  6F36               	movwf	_suma_lectura_adc@interrupt_manager$F658& (0+255),b
  1755   001430  0E00               	movlw	0
  1756   001432  6F37               	movwf	(_suma_lectura_adc@interrupt_manager$F658+1)& (0+255),b
  1757   001434  0E00               	movlw	0
  1758   001436  6F38               	movwf	(_suma_lectura_adc@interrupt_manager$F658+2)& (0+255),b
  1759   001438  0E00               	movlw	0
  1760   00143A  6F39               	movwf	(_suma_lectura_adc@interrupt_manager$F658+3)& (0+255),b
  1761                           
  1762                           ;main.c: 150:                     HABLILITAR_LECTURA_CH0 = 0;
  1763   00143C  0E00               	movlw	0
  1764   00143E  0100               	movlb	0	; () banked
  1765   001440  6FFF               	movwf	_HABLILITAR_LECTURA_CH0& (0+255),b	;volatile
  1766                           
  1767                           ;main.c: 151:                     DATOS_LISTOS_ADC_BAT = 1;
  1768   001442  0E01               	movlw	1
  1769   001444  0101               	movlb	1	; () banked
  1770   001446  6F6C               	movwf	_DATOS_LISTOS_ADC_BAT& (0+255),b
  1771   001448                     l7236:
  1772                           
  1773                           ; BSR set to: 1
  1774                           ;main.c: 154:                 ADCON0bits.GO = 1;
  1775   001448  82C2               	bsf	194,1,c	;volatile
  1776   00144A                     
  1777                           ; BSR set to: 1
  1778                           ;main.c: 155:                 contador_lectura_adc++;
  1779   00144A  2B72               	incf	_contador_lectura_adc@interrupt_manager$F657& (0+255),f,b
  1780   00144C                     l7240:
  1781                           
  1782                           ;main.c: 158:             if(HABILITAR_LECTURA_SENSOR) {
  1783   00144C  0101               	movlb	1	; () banked
  1784   00144E  516E               	movf	_HABILITAR_LECTURA_SENSOR& (0+255),w,b
  1785   001450  B4D8               	btfsc	status,2,c
  1786   001452  EF2D  F00A         	goto	u8301
  1787   001456  EF2F  F00A         	goto	u8300
  1788   00145A                     u8301:
  1789   00145A  EF1E  F00C         	goto	l7342
  1790   00145E                     u8300:
  1791   00145E                     
  1792                           ; BSR set to: 1
  1793                           ;main.c: 159:                 HABILITAR_LECTURA_SENSOR = 0;
  1794   00145E  0E00               	movlw	0
  1795   001460  6F6E               	movwf	_HABILITAR_LECTURA_SENSOR& (0+255),b
  1796   001462                     
  1797                           ; BSR set to: 1
  1798                           ;main.c: 160:                 (SSPCON1bits.SSPEN = 1);
  1799   001462  8AC6               	bsf	198,5,c	;volatile
  1800   001464                     
  1801                           ; BSR set to: 1
  1802                           ;main.c: 161:                 (RCSTAbits.SPEN = 0);
  1803   001464  9EAB               	bcf	171,7,c	;volatile
  1804   001466                     
  1805                           ; BSR set to: 1
  1806                           ;main.c: 163:                 (TRISCbits.TRISC7 = 0);
  1807   001466  9E94               	bcf	148,7,c	;volatile
  1808                           
  1809                           ;main.c: 166:                 uint8_t i = 0;
  1810   001468  0E00               	movlw	0
  1811   00146A  0100               	movlb	0	; () banked
  1812   00146C  6FF9               	movwf	main@i& (0+255),b
  1813                           
  1814                           ;main.c: 168:                 dato_spi_full_band = 0;
  1815   00146E  0E00               	movlw	0
  1816   001470  0101               	movlb	1	; () banked
  1817   001472  6F2E               	movwf	_dato_spi_full_band& (0+255),b
  1818   001474  0E00               	movlw	0
  1819   001476  6F2F               	movwf	(_dato_spi_full_band+1)& (0+255),b
  1820   001478  0E00               	movlw	0
  1821   00147A  6F30               	movwf	(_dato_spi_full_band+2)& (0+255),b
  1822   00147C  0E00               	movlw	0
  1823   00147E  6F31               	movwf	(_dato_spi_full_band+3)& (0+255),b
  1824   001480                     
  1825                           ; BSR set to: 1
  1826                           ;main.c: 169:                 SPI_Enviar_Caracter(0x20);
  1827   001480  0E20               	movlw	32
  1828   001482  EC34  F024         	call	_SPI_Enviar_Caracter
  1829   001486                     
  1830                           ;main.c: 170:                 SPI_Enviar_Caracter(0x0F);
  1831   001486  0E0F               	movlw	15
  1832   001488  EC34  F024         	call	_SPI_Enviar_Caracter
  1833   00148C                     
  1834                           ;main.c: 171:                 SPI_Enviar_Caracter(0x10);
  1835   00148C  0E10               	movlw	16
  1836   00148E  EC34  F024         	call	_SPI_Enviar_Caracter
  1837   001492                     
  1838                           ;main.c: 172:                 SPI_Enviar_Caracter(0x40);
  1839   001492  0E40               	movlw	64
  1840   001494  EC34  F024         	call	_SPI_Enviar_Caracter
  1841   001498                     l306:
  1842   001498  B481               	btfsc	129,2,c	;volatile
  1843   00149A  EF51  F00A         	goto	u8311
  1844   00149E  EF53  F00A         	goto	u8310
  1845   0014A2                     u8311:
  1846   0014A2  EF4C  F00A         	goto	l306
  1847   0014A6                     u8310:
  1848   0014A6                     
  1849                           ;main.c: 174:                 for(i=0;i<15;i++){
  1850   0014A6  0E00               	movlw	0
  1851   0014A8  0100               	movlb	0	; () banked
  1852   0014AA  6FF9               	movwf	main@i& (0+255),b
  1853   0014AC                     
  1854                           ; BSR set to: 0
  1855   0014AC  0E0E               	movlw	14
  1856   0014AE  65F9               	cpfsgt	main@i& (0+255),b
  1857   0014B0  EF5C  F00A         	goto	u8321
  1858   0014B4  EF5E  F00A         	goto	u8320
  1859   0014B8                     u8321:
  1860   0014B8  EF60  F00A         	goto	l7264
  1861   0014BC                     u8320:
  1862   0014BC  EF8F  F00A         	goto	l7276
  1863   0014C0                     l7264:
  1864                           
  1865                           ; BSR set to: 0
  1866                           ;main.c: 175:                     SPI_Enviar_Caracter(0x38);
  1867   0014C0  0E38               	movlw	56
  1868   0014C2  EC34  F024         	call	_SPI_Enviar_Caracter
  1869   0014C6                     l311:
  1870   0014C6  B481               	btfsc	129,2,c	;volatile
  1871   0014C8  EF68  F00A         	goto	u8331
  1872   0014CC  EF6A  F00A         	goto	u8330
  1873   0014D0                     u8331:
  1874   0014D0  EF63  F00A         	goto	l311
  1875   0014D4                     u8330:
  1876   0014D4                     
  1877                           ;main.c: 177:                     dato_spi_temp_f=0;
  1878   0014D4  0E00               	movlw	0
  1879   0014D6  0101               	movlb	1	; () banked
  1880   0014D8  6F5D               	movwf	(_dato_spi_temp_f+1)& (0+255),b
  1881   0014DA  0E00               	movlw	0
  1882   0014DC  6F5C               	movwf	_dato_spi_temp_f& (0+255),b
  1883   0014DE                     
  1884                           ; BSR set to: 1
  1885                           ;main.c: 178:                     dato_spi_temp_f =(uint16_t)(SPI_Recibir_Caracter()<<8)
      +                          ;
  1886   0014DE  EC4B  F024         	call	_SPI_Recibir_Caracter	;wreg free
  1887   0014E2  0101               	movlb	1	; () banked
  1888   0014E4  6F5D               	movwf	(_dato_spi_temp_f+1)& (0+255),b
  1889   0014E6  6B5C               	clrf	_dato_spi_temp_f& (0+255),b
  1890   0014E8                     
  1891                           ; BSR set to: 1
  1892                           ;main.c: 179:                     dato_spi_temp_f+=(uint16_t)SPI_Recibir_Caracter();
  1893   0014E8  EC4B  F024         	call	_SPI_Recibir_Caracter	;wreg free
  1894   0014EC  0100               	movlb	0	; () banked
  1895   0014EE  6FF8               	movwf	??_main& (0+255),b
  1896   0014F0  51F8               	movf	??_main& (0+255),w,b
  1897   0014F2  0101               	movlb	1	; () banked
  1898   0014F4  275C               	addwf	_dato_spi_temp_f& (0+255),f,b
  1899   0014F6  0E00               	movlw	0
  1900   0014F8  235D               	addwfc	(_dato_spi_temp_f+1)& (0+255),f,b
  1901   0014FA                     
  1902                           ; BSR set to: 1
  1903                           ;main.c: 180:                     dato_spi_full_band+=dato_spi_temp_f;
  1904   0014FA  515C               	movf	_dato_spi_temp_f& (0+255),w,b
  1905   0014FC  272E               	addwf	_dato_spi_full_band& (0+255),f,b
  1906   0014FE  515D               	movf	(_dato_spi_temp_f+1)& (0+255),w,b
  1907   001500  232F               	addwfc	(_dato_spi_full_band+1)& (0+255),f,b
  1908   001502  0E00               	movlw	0
  1909   001504  2330               	addwfc	(_dato_spi_full_band+2)& (0+255),f,b
  1910   001506  0E00               	movlw	0
  1911   001508  2331               	addwfc	(_dato_spi_full_band+3)& (0+255),f,b
  1912   00150A                     
  1913                           ; BSR set to: 1
  1914                           ;main.c: 181:                 }
  1915   00150A  0100               	movlb	0	; () banked
  1916   00150C  2BF9               	incf	main@i& (0+255),f,b
  1917   00150E  0E0E               	movlw	14
  1918   001510  65F9               	cpfsgt	main@i& (0+255),b
  1919   001512  EF8D  F00A         	goto	u8341
  1920   001516  EF8F  F00A         	goto	u8340
  1921   00151A                     u8341:
  1922   00151A  EF60  F00A         	goto	l7264
  1923   00151E                     u8340:
  1924   00151E                     l7276:
  1925                           
  1926                           ; BSR set to: 0
  1927                           ;main.c: 183:                 dato_spi_low_band = 0;
  1928   00151E  0E00               	movlw	0
  1929   001520  0101               	movlb	1	; () banked
  1930   001522  6F2A               	movwf	_dato_spi_low_band& (0+255),b
  1931   001524  0E00               	movlw	0
  1932   001526  6F2B               	movwf	(_dato_spi_low_band+1)& (0+255),b
  1933   001528  0E00               	movlw	0
  1934   00152A  6F2C               	movwf	(_dato_spi_low_band+2)& (0+255),b
  1935   00152C  0E00               	movlw	0
  1936   00152E  6F2D               	movwf	(_dato_spi_low_band+3)& (0+255),b
  1937   001530                     
  1938                           ; BSR set to: 1
  1939                           ;main.c: 184:                 SPI_Enviar_Caracter(0x21);
  1940   001530  0E21               	movlw	33
  1941   001532  EC34  F024         	call	_SPI_Enviar_Caracter
  1942   001536                     
  1943                           ;main.c: 185:                 SPI_Enviar_Caracter(0x0F);
  1944   001536  0E0F               	movlw	15
  1945   001538  EC34  F024         	call	_SPI_Enviar_Caracter
  1946   00153C                     
  1947                           ;main.c: 186:                 SPI_Enviar_Caracter(0x11);
  1948   00153C  0E11               	movlw	17
  1949   00153E  EC34  F024         	call	_SPI_Enviar_Caracter
  1950   001542                     
  1951                           ;main.c: 187:                 SPI_Enviar_Caracter(0x40);
  1952   001542  0E40               	movlw	64
  1953   001544  EC34  F024         	call	_SPI_Enviar_Caracter
  1954   001548                     l314:
  1955   001548  B481               	btfsc	129,2,c	;volatile
  1956   00154A  EFA9  F00A         	goto	u8351
  1957   00154E  EFAB  F00A         	goto	u8350
  1958   001552                     u8351:
  1959   001552  EFA4  F00A         	goto	l314
  1960   001556                     u8350:
  1961   001556                     
  1962                           ;main.c: 189:                 for(i=0;i<15;i++){
  1963   001556  0E00               	movlw	0
  1964   001558  0100               	movlb	0	; () banked
  1965   00155A  6FF9               	movwf	main@i& (0+255),b
  1966   00155C                     
  1967                           ; BSR set to: 0
  1968   00155C  0E0E               	movlw	14
  1969   00155E  65F9               	cpfsgt	main@i& (0+255),b
  1970   001560  EFB4  F00A         	goto	u8361
  1971   001564  EFB6  F00A         	goto	u8360
  1972   001568                     u8361:
  1973   001568  EFB8  F00A         	goto	l7292
  1974   00156C                     u8360:
  1975   00156C  EFE7  F00A         	goto	l7304
  1976   001570                     l7292:
  1977                           
  1978                           ; BSR set to: 0
  1979                           ;main.c: 190:                     SPI_Enviar_Caracter(0x39);
  1980   001570  0E39               	movlw	57
  1981   001572  EC34  F024         	call	_SPI_Enviar_Caracter
  1982   001576                     l319:
  1983   001576  B481               	btfsc	129,2,c	;volatile
  1984   001578  EFC0  F00A         	goto	u8371
  1985   00157C  EFC2  F00A         	goto	u8370
  1986   001580                     u8371:
  1987   001580  EFBB  F00A         	goto	l319
  1988   001584                     u8370:
  1989   001584                     
  1990                           ;main.c: 192:                     dato_spi_temp_l=0;
  1991   001584  0E00               	movlw	0
  1992   001586  0101               	movlb	1	; () banked
  1993   001588  6F5B               	movwf	(_dato_spi_temp_l+1)& (0+255),b
  1994   00158A  0E00               	movlw	0
  1995   00158C  6F5A               	movwf	_dato_spi_temp_l& (0+255),b
  1996   00158E                     
  1997                           ; BSR set to: 1
  1998                           ;main.c: 193:                     dato_spi_temp_l = (uint16_t)SPI_Recibir_Caracter()<<8;
  1999   00158E  EC4B  F024         	call	_SPI_Recibir_Caracter	;wreg free
  2000   001592  0101               	movlb	1	; () banked
  2001   001594  6F5B               	movwf	(_dato_spi_temp_l+1)& (0+255),b
  2002   001596  6B5A               	clrf	_dato_spi_temp_l& (0+255),b
  2003   001598                     
  2004                           ; BSR set to: 1
  2005                           ;main.c: 194:                     dato_spi_temp_l+= (uint16_t)SPI_Recibir_Caracter();
  2006   001598  EC4B  F024         	call	_SPI_Recibir_Caracter	;wreg free
  2007   00159C  0100               	movlb	0	; () banked
  2008   00159E  6FF8               	movwf	??_main& (0+255),b
  2009   0015A0  51F8               	movf	??_main& (0+255),w,b
  2010   0015A2  0101               	movlb	1	; () banked
  2011   0015A4  275A               	addwf	_dato_spi_temp_l& (0+255),f,b
  2012   0015A6  0E00               	movlw	0
  2013   0015A8  235B               	addwfc	(_dato_spi_temp_l+1)& (0+255),f,b
  2014   0015AA                     
  2015                           ; BSR set to: 1
  2016                           ;main.c: 195:                     dato_spi_low_band+=dato_spi_temp_l;
  2017   0015AA  515A               	movf	_dato_spi_temp_l& (0+255),w,b
  2018   0015AC  272A               	addwf	_dato_spi_low_band& (0+255),f,b
  2019   0015AE  515B               	movf	(_dato_spi_temp_l+1)& (0+255),w,b
  2020   0015B0  232B               	addwfc	(_dato_spi_low_band+1)& (0+255),f,b
  2021   0015B2  0E00               	movlw	0
  2022   0015B4  232C               	addwfc	(_dato_spi_low_band+2)& (0+255),f,b
  2023   0015B6  0E00               	movlw	0
  2024   0015B8  232D               	addwfc	(_dato_spi_low_band+3)& (0+255),f,b
  2025   0015BA                     
  2026                           ; BSR set to: 1
  2027                           ;main.c: 196:                 }
  2028   0015BA  0100               	movlb	0	; () banked
  2029   0015BC  2BF9               	incf	main@i& (0+255),f,b
  2030   0015BE  0E0E               	movlw	14
  2031   0015C0  65F9               	cpfsgt	main@i& (0+255),b
  2032   0015C2  EFE5  F00A         	goto	u8381
  2033   0015C6  EFE7  F00A         	goto	u8380
  2034   0015CA                     u8381:
  2035   0015CA  EFB8  F00A         	goto	l7292
  2036   0015CE                     u8380:
  2037   0015CE                     l7304:
  2038                           
  2039                           ; BSR set to: 0
  2040                           ;main.c: 199:                 dato_spi_high_band = 0;
  2041   0015CE  0E00               	movlw	0
  2042   0015D0  0101               	movlb	1	; () banked
  2043   0015D2  6F26               	movwf	_dato_spi_high_band& (0+255),b
  2044   0015D4  0E00               	movlw	0
  2045   0015D6  6F27               	movwf	(_dato_spi_high_band+1)& (0+255),b
  2046   0015D8  0E00               	movlw	0
  2047   0015DA  6F28               	movwf	(_dato_spi_high_band+2)& (0+255),b
  2048   0015DC  0E00               	movlw	0
  2049   0015DE  6F29               	movwf	(_dato_spi_high_band+3)& (0+255),b
  2050   0015E0                     
  2051                           ; BSR set to: 1
  2052                           ;main.c: 200:                 SPI_Enviar_Caracter(0x23);
  2053   0015E0  0E23               	movlw	35
  2054   0015E2  EC34  F024         	call	_SPI_Enviar_Caracter
  2055   0015E6                     
  2056                           ;main.c: 201:                 SPI_Enviar_Caracter(0x0F);
  2057   0015E6  0E0F               	movlw	15
  2058   0015E8  EC34  F024         	call	_SPI_Enviar_Caracter
  2059   0015EC                     
  2060                           ;main.c: 202:                 SPI_Enviar_Caracter(0x13);
  2061   0015EC  0E13               	movlw	19
  2062   0015EE  EC34  F024         	call	_SPI_Enviar_Caracter
  2063   0015F2                     
  2064                           ;main.c: 203:                 SPI_Enviar_Caracter(0x40);
  2065   0015F2  0E40               	movlw	64
  2066   0015F4  EC34  F024         	call	_SPI_Enviar_Caracter
  2067   0015F8                     l322:
  2068   0015F8  B481               	btfsc	129,2,c	;volatile
  2069   0015FA  EF01  F00B         	goto	u8391
  2070   0015FE  EF03  F00B         	goto	u8390
  2071   001602                     u8391:
  2072   001602  EFFC  F00A         	goto	l322
  2073   001606                     u8390:
  2074   001606                     
  2075                           ;main.c: 205:                 for(i=0;i<15;i++) {
  2076   001606  0E00               	movlw	0
  2077   001608  0100               	movlb	0	; () banked
  2078   00160A  6FF9               	movwf	main@i& (0+255),b
  2079   00160C                     
  2080                           ; BSR set to: 0
  2081   00160C  0E0E               	movlw	14
  2082   00160E  65F9               	cpfsgt	main@i& (0+255),b
  2083   001610  EF0C  F00B         	goto	u8401
  2084   001614  EF0E  F00B         	goto	u8400
  2085   001618                     u8401:
  2086   001618  EF10  F00B         	goto	l7320
  2087   00161C                     u8400:
  2088   00161C  EF3F  F00B         	goto	l7332
  2089   001620                     l7320:
  2090                           
  2091                           ; BSR set to: 0
  2092                           ;main.c: 206:                     SPI_Enviar_Caracter(0x3B);
  2093   001620  0E3B               	movlw	59
  2094   001622  EC34  F024         	call	_SPI_Enviar_Caracter
  2095   001626                     l327:
  2096   001626  B481               	btfsc	129,2,c	;volatile
  2097   001628  EF18  F00B         	goto	u8411
  2098   00162C  EF1A  F00B         	goto	u8410
  2099   001630                     u8411:
  2100   001630  EF13  F00B         	goto	l327
  2101   001634                     u8410:
  2102   001634                     
  2103                           ;main.c: 208:                     dato_spi_temp_h=0;
  2104   001634  0E00               	movlw	0
  2105   001636  0101               	movlb	1	; () banked
  2106   001638  6F59               	movwf	(_dato_spi_temp_h+1)& (0+255),b
  2107   00163A  0E00               	movlw	0
  2108   00163C  6F58               	movwf	_dato_spi_temp_h& (0+255),b
  2109   00163E                     
  2110                           ; BSR set to: 1
  2111                           ;main.c: 209:                     dato_spi_temp_h = (uint16_t)SPI_Recibir_Caracter()<<8;
  2112   00163E  EC4B  F024         	call	_SPI_Recibir_Caracter	;wreg free
  2113   001642  0101               	movlb	1	; () banked
  2114   001644  6F59               	movwf	(_dato_spi_temp_h+1)& (0+255),b
  2115   001646  6B58               	clrf	_dato_spi_temp_h& (0+255),b
  2116   001648                     
  2117                           ; BSR set to: 1
  2118                           ;main.c: 210:                     dato_spi_temp_h+= (uint16_t)SPI_Recibir_Caracter();
  2119   001648  EC4B  F024         	call	_SPI_Recibir_Caracter	;wreg free
  2120   00164C  0100               	movlb	0	; () banked
  2121   00164E  6FF8               	movwf	??_main& (0+255),b
  2122   001650  51F8               	movf	??_main& (0+255),w,b
  2123   001652  0101               	movlb	1	; () banked
  2124   001654  2758               	addwf	_dato_spi_temp_h& (0+255),f,b
  2125   001656  0E00               	movlw	0
  2126   001658  2359               	addwfc	(_dato_spi_temp_h+1)& (0+255),f,b
  2127   00165A                     
  2128                           ; BSR set to: 1
  2129                           ;main.c: 211:                     dato_spi_high_band+=dato_spi_temp_h;
  2130   00165A  5158               	movf	_dato_spi_temp_h& (0+255),w,b
  2131   00165C  2726               	addwf	_dato_spi_high_band& (0+255),f,b
  2132   00165E  5159               	movf	(_dato_spi_temp_h+1)& (0+255),w,b
  2133   001660  2327               	addwfc	(_dato_spi_high_band+1)& (0+255),f,b
  2134   001662  0E00               	movlw	0
  2135   001664  2328               	addwfc	(_dato_spi_high_band+2)& (0+255),f,b
  2136   001666  0E00               	movlw	0
  2137   001668  2329               	addwfc	(_dato_spi_high_band+3)& (0+255),f,b
  2138   00166A                     
  2139                           ; BSR set to: 1
  2140                           ;main.c: 212:                 }
  2141   00166A  0100               	movlb	0	; () banked
  2142   00166C  2BF9               	incf	main@i& (0+255),f,b
  2143   00166E  0E0E               	movlw	14
  2144   001670  65F9               	cpfsgt	main@i& (0+255),b
  2145   001672  EF3D  F00B         	goto	u8421
  2146   001676  EF3F  F00B         	goto	u8420
  2147   00167A                     u8421:
  2148   00167A  EF10  F00B         	goto	l7320
  2149   00167E                     u8420:
  2150   00167E                     l7332:
  2151                           
  2152                           ; BSR set to: 0
  2153                           ;main.c: 214:                 lectura_sensor_full_band= (uint16_t)(dato_spi_full_band / 
      +                          15);
  2154   00167E  C12E  F060         	movff	_dato_spi_full_band,___lldiv@dividend
  2155   001682  C12F  F061         	movff	_dato_spi_full_band+1,___lldiv@dividend+1
  2156   001686  C130  F062         	movff	_dato_spi_full_band+2,___lldiv@dividend+2
  2157   00168A  C131  F063         	movff	_dato_spi_full_band+3,___lldiv@dividend+3
  2158   00168E  0E0F               	movlw	15
  2159   001690  6F64               	movwf	___lldiv@divisor& (0+255),b
  2160   001692  0E00               	movlw	0
  2161   001694  6F65               	movwf	(___lldiv@divisor+1)& (0+255),b
  2162   001696  0E00               	movlw	0
  2163   001698  6F66               	movwf	(___lldiv@divisor+2)& (0+255),b
  2164   00169A  0E00               	movlw	0
  2165   00169C  6F67               	movwf	(___lldiv@divisor+3)& (0+255),b
  2166   00169E  EC85  F020         	call	___lldiv	;wreg free
  2167   0016A2  C060  F156         	movff	?___lldiv,_lectura_sensor_full_band
  2168   0016A6  C061  F157         	movff	?___lldiv+1,_lectura_sensor_full_band+1
  2169                           
  2170                           ;main.c: 215:                 lectura_sensor_low_band = (uint16_t)(dato_spi_low_band / 1
      +                          5);
  2171   0016AA  C12A  F060         	movff	_dato_spi_low_band,___lldiv@dividend
  2172   0016AE  C12B  F061         	movff	_dato_spi_low_band+1,___lldiv@dividend+1
  2173   0016B2  C12C  F062         	movff	_dato_spi_low_band+2,___lldiv@dividend+2
  2174   0016B6  C12D  F063         	movff	_dato_spi_low_band+3,___lldiv@dividend+3
  2175   0016BA  0E0F               	movlw	15
  2176   0016BC  0100               	movlb	0	; () banked
  2177   0016BE  6F64               	movwf	___lldiv@divisor& (0+255),b
  2178   0016C0  0E00               	movlw	0
  2179   0016C2  6F65               	movwf	(___lldiv@divisor+1)& (0+255),b
  2180   0016C4  0E00               	movlw	0
  2181   0016C6  6F66               	movwf	(___lldiv@divisor+2)& (0+255),b
  2182   0016C8  0E00               	movlw	0
  2183   0016CA  6F67               	movwf	(___lldiv@divisor+3)& (0+255),b
  2184   0016CC  EC85  F020         	call	___lldiv	;wreg free
  2185   0016D0  C060  F154         	movff	?___lldiv,_lectura_sensor_low_band
  2186   0016D4  C061  F155         	movff	?___lldiv+1,_lectura_sensor_low_band+1
  2187                           
  2188                           ;main.c: 216:                 lectura_sensor_high_band= (uint16_t)(dato_spi_high_band / 
      +                          15);
  2189   0016D8  C126  F060         	movff	_dato_spi_high_band,___lldiv@dividend
  2190   0016DC  C127  F061         	movff	_dato_spi_high_band+1,___lldiv@dividend+1
  2191   0016E0  C128  F062         	movff	_dato_spi_high_band+2,___lldiv@dividend+2
  2192   0016E4  C129  F063         	movff	_dato_spi_high_band+3,___lldiv@dividend+3
  2193   0016E8  0E0F               	movlw	15
  2194   0016EA  0100               	movlb	0	; () banked
  2195   0016EC  6F64               	movwf	___lldiv@divisor& (0+255),b
  2196   0016EE  0E00               	movlw	0
  2197   0016F0  6F65               	movwf	(___lldiv@divisor+1)& (0+255),b
  2198   0016F2  0E00               	movlw	0
  2199   0016F4  6F66               	movwf	(___lldiv@divisor+2)& (0+255),b
  2200   0016F6  0E00               	movlw	0
  2201   0016F8  6F67               	movwf	(___lldiv@divisor+3)& (0+255),b
  2202   0016FA  EC85  F020         	call	___lldiv	;wreg free
  2203   0016FE  C060  F152         	movff	?___lldiv,_lectura_sensor_high_band
  2204   001702  C061  F153         	movff	?___lldiv+1,_lectura_sensor_high_band+1
  2205   001706                     
  2206                           ;main.c: 219:                 lectura_sensor_low_band_test = lectura_sensor_low_band;
  2207   001706  C154  F14E         	movff	_lectura_sensor_low_band,_lectura_sensor_low_band_test
  2208   00170A  C155  F14F         	movff	_lectura_sensor_low_band+1,_lectura_sensor_low_band_test+1
  2209                           
  2210                           ;main.c: 223:                 lectura_sensor_full_band = (uint16_t)((float)lectura_senso
      +                          r_full_band / 13.107);
  2211   00170E  0E46               	movlw	70
  2212   001710  0100               	movlb	0	; () banked
  2213   001712  6F87               	movwf	___fldiv@a& (0+255),b
  2214   001714  0EB6               	movlw	182
  2215   001716  6F88               	movwf	(___fldiv@a+1)& (0+255),b
  2216   001718  0E51               	movlw	81
  2217   00171A  6F89               	movwf	(___fldiv@a+2)& (0+255),b
  2218   00171C  0E41               	movlw	65
  2219   00171E  6F8A               	movwf	(___fldiv@a+3)& (0+255),b
  2220   001720  C156  F01F         	movff	_lectura_sensor_full_band,___xxtofl@val
  2221   001724  C157  F020         	movff	_lectura_sensor_full_band+1,___xxtofl@val+1
  2222   001728  6A21               	clrf	(___xxtofl@val+2)^0,c
  2223   00172A  6A22               	clrf	(___xxtofl@val+3)^0,c
  2224   00172C  0E00               	movlw	0
  2225   00172E  EC08  F01A         	call	___xxtofl
  2226   001732  C01F  F083         	movff	?___xxtofl,___fldiv@b
  2227   001736  C020  F084         	movff	?___xxtofl+1,___fldiv@b+1
  2228   00173A  C021  F085         	movff	?___xxtofl+2,___fldiv@b+2
  2229   00173E  C022  F086         	movff	?___xxtofl+3,___fldiv@b+3
  2230   001742  EC46  F016         	call	___fldiv	;wreg free
  2231   001746  C083  F09C         	movff	?___fldiv,___fltol@f1
  2232   00174A  C084  F09D         	movff	?___fldiv+1,___fltol@f1+1
  2233   00174E  C085  F09E         	movff	?___fldiv+2,___fltol@f1+2
  2234   001752  C086  F09F         	movff	?___fldiv+3,___fltol@f1+3
  2235   001756  EC7C  F01B         	call	___fltol	;wreg free
  2236   00175A  C09C  F156         	movff	?___fltol,_lectura_sensor_full_band
  2237   00175E  C09D  F157         	movff	?___fltol+1,_lectura_sensor_full_band+1
  2238                           
  2239                           ;main.c: 224:                 lectura_sensor_low_band = (uint16_t)((float)lectura_sensor
      +                          _low_band / 13.107);
  2240   001762  0E46               	movlw	70
  2241   001764  0100               	movlb	0	; () banked
  2242   001766  6F87               	movwf	___fldiv@a& (0+255),b
  2243   001768  0EB6               	movlw	182
  2244   00176A  6F88               	movwf	(___fldiv@a+1)& (0+255),b
  2245   00176C  0E51               	movlw	81
  2246   00176E  6F89               	movwf	(___fldiv@a+2)& (0+255),b
  2247   001770  0E41               	movlw	65
  2248   001772  6F8A               	movwf	(___fldiv@a+3)& (0+255),b
  2249   001774  C154  F01F         	movff	_lectura_sensor_low_band,___xxtofl@val
  2250   001778  C155  F020         	movff	_lectura_sensor_low_band+1,___xxtofl@val+1
  2251   00177C  6A21               	clrf	(___xxtofl@val+2)^0,c
  2252   00177E  6A22               	clrf	(___xxtofl@val+3)^0,c
  2253   001780  0E00               	movlw	0
  2254   001782  EC08  F01A         	call	___xxtofl
  2255   001786  C01F  F083         	movff	?___xxtofl,___fldiv@b
  2256   00178A  C020  F084         	movff	?___xxtofl+1,___fldiv@b+1
  2257   00178E  C021  F085         	movff	?___xxtofl+2,___fldiv@b+2
  2258   001792  C022  F086         	movff	?___xxtofl+3,___fldiv@b+3
  2259   001796  EC46  F016         	call	___fldiv	;wreg free
  2260   00179A  C083  F09C         	movff	?___fldiv,___fltol@f1
  2261   00179E  C084  F09D         	movff	?___fldiv+1,___fltol@f1+1
  2262   0017A2  C085  F09E         	movff	?___fldiv+2,___fltol@f1+2
  2263   0017A6  C086  F09F         	movff	?___fldiv+3,___fltol@f1+3
  2264   0017AA  EC7C  F01B         	call	___fltol	;wreg free
  2265   0017AE  C09C  F154         	movff	?___fltol,_lectura_sensor_low_band
  2266   0017B2  C09D  F155         	movff	?___fltol+1,_lectura_sensor_low_band+1
  2267                           
  2268                           ;main.c: 225:                 lectura_sensor_high_band = (uint16_t)((float)lectura_senso
      +                          r_high_band / 13.107);
  2269   0017B6  0E46               	movlw	70
  2270   0017B8  0100               	movlb	0	; () banked
  2271   0017BA  6F87               	movwf	___fldiv@a& (0+255),b
  2272   0017BC  0EB6               	movlw	182
  2273   0017BE  6F88               	movwf	(___fldiv@a+1)& (0+255),b
  2274   0017C0  0E51               	movlw	81
  2275   0017C2  6F89               	movwf	(___fldiv@a+2)& (0+255),b
  2276   0017C4  0E41               	movlw	65
  2277   0017C6  6F8A               	movwf	(___fldiv@a+3)& (0+255),b
  2278   0017C8  C152  F01F         	movff	_lectura_sensor_high_band,___xxtofl@val
  2279   0017CC  C153  F020         	movff	_lectura_sensor_high_band+1,___xxtofl@val+1
  2280   0017D0  6A21               	clrf	(___xxtofl@val+2)^0,c
  2281   0017D2  6A22               	clrf	(___xxtofl@val+3)^0,c
  2282   0017D4  0E00               	movlw	0
  2283   0017D6  EC08  F01A         	call	___xxtofl
  2284   0017DA  C01F  F083         	movff	?___xxtofl,___fldiv@b
  2285   0017DE  C020  F084         	movff	?___xxtofl+1,___fldiv@b+1
  2286   0017E2  C021  F085         	movff	?___xxtofl+2,___fldiv@b+2
  2287   0017E6  C022  F086         	movff	?___xxtofl+3,___fldiv@b+3
  2288   0017EA  EC46  F016         	call	___fldiv	;wreg free
  2289   0017EE  C083  F09C         	movff	?___fldiv,___fltol@f1
  2290   0017F2  C084  F09D         	movff	?___fldiv+1,___fltol@f1+1
  2291   0017F6  C085  F09E         	movff	?___fldiv+2,___fltol@f1+2
  2292   0017FA  C086  F09F         	movff	?___fldiv+3,___fltol@f1+3
  2293   0017FE  EC7C  F01B         	call	___fltol	;wreg free
  2294   001802  C09C  F152         	movff	?___fltol,_lectura_sensor_high_band
  2295   001806  C09D  F153         	movff	?___fltol+1,_lectura_sensor_high_band+1
  2296   00180A                     
  2297                           ;main.c: 233:                 DATOS_LISTOS_SENSOR_AFM = 1;
  2298   00180A  0E01               	movlw	1
  2299   00180C  0101               	movlb	1	; () banked
  2300   00180E  6F6B               	movwf	_DATOS_LISTOS_SENSOR_AFM& (0+255),b
  2301   001810                     
  2302                           ; BSR set to: 1
  2303                           ;main.c: 237:                 HABILITAR_VERIFICAR_UMBRAL = 1;
  2304   001810  0E01               	movlw	1
  2305   001812  6F6D               	movwf	_HABILITAR_VERIFICAR_UMBRAL& (0+255),b
  2306   001814                     
  2307                           ; BSR set to: 1
  2308                           ;main.c: 238:                 LATBbits.LATB3 = !LATBbits.LATB3;
  2309   001814  A68A               	btfss	138,3,c	;volatile
  2310   001816  EF0F  F00C         	goto	u8431
  2311   00181A  EF14  F00C         	goto	u8430
  2312   00181E                     u8431:
  2313   00181E  0100               	movlb	0	; () banked
  2314   001820  6BF8               	clrf	??_main& (0+255),b
  2315   001822  2BF8               	incf	??_main& (0+255),f,b
  2316   001824  EF16  F00C         	goto	u8448
  2317   001828                     u8430:
  2318   001828  0100               	movlb	0	; () banked
  2319   00182A  6BF8               	clrf	??_main& (0+255),b
  2320   00182C                     u8448:
  2321   00182C  47F8               	rlncf	??_main& (0+255),f,b
  2322   00182E  47F8               	rlncf	??_main& (0+255),f,b
  2323   001830  47F8               	rlncf	??_main& (0+255),f,b
  2324   001832  508A               	movf	138,w,c	;volatile
  2325   001834  19F8               	xorwf	??_main& (0+255),w,b
  2326   001836  0BF7               	andlw	-9
  2327   001838  19F8               	xorwf	??_main& (0+255),w,b
  2328   00183A  6E8A               	movwf	138,c	;volatile
  2329   00183C                     l7342:
  2330                           
  2331                           ;main.c: 243:         if (HABILITAR_TASK1){
  2332   00183C  0100               	movlb	0	; () banked
  2333   00183E  51FB               	movf	_HABILITAR_TASK1& (0+255),w,b	;volatile
  2334   001840  B4D8               	btfsc	status,2,c
  2335   001842  EF25  F00C         	goto	u8451
  2336   001846  EF27  F00C         	goto	u8450
  2337   00184A                     u8451:
  2338   00184A  EF2E  F00C         	goto	l330
  2339   00184E                     u8450:
  2340   00184E                     
  2341                           ; BSR set to: 0
  2342                           ;main.c: 244:             HABILITAR_TASK1 = 0;
  2343   00184E  0E00               	movlw	0
  2344   001850  6FFB               	movwf	_HABILITAR_TASK1& (0+255),b	;volatile
  2345   001852                     
  2346                           ; BSR set to: 0
  2347                           ;main.c: 246:             LATBbits.LATB4 = PORTBbits.RB2;
  2348   001852  A481               	btfss	129,2,c	;volatile
  2349   001854  D002               	bra	u8465
  2350   001856  888A               	bsf	138,4,c	;volatile
  2351   001858  D001               	bra	u8467
  2352   00185A                     u8465:
  2353   00185A  988A               	bcf	138,4,c	;volatile
  2354   00185C                     u8467:
  2355   00185C                     l330:
  2356                           
  2357                           ;main.c: 251:         if(HABILITAR_TASK2){
  2358   00185C  0101               	movlb	1	; () banked
  2359   00185E  5177               	movf	_HABILITAR_TASK2& (0+255),w,b	;volatile
  2360   001860  B4D8               	btfsc	status,2,c
  2361   001862  EF35  F00C         	goto	u8471
  2362   001866  EF37  F00C         	goto	u8470
  2363   00186A                     u8471:
  2364   00186A  EF03  F00D         	goto	l7366
  2365   00186E                     u8470:
  2366   00186E                     
  2367                           ; BSR set to: 1
  2368                           ;main.c: 252:             HABILITAR_TASK2 = 0;
  2369   00186E  0E00               	movlw	0
  2370   001870  6F77               	movwf	_HABILITAR_TASK2& (0+255),b	;volatile
  2371   001872                     
  2372                           ; BSR set to: 1
  2373                           ;main.c: 254:             num_de_estacion = Lectura_Numero_Est();
  2374   001872  ECED  F021         	call	_Lectura_Numero_Est	;wreg free
  2375   001876  0101               	movlb	1	; () banked
  2376   001878  6F73               	movwf	_num_de_estacion& (0+255),b	;volatile
  2377   00187A                     
  2378                           ; BSR set to: 1
  2379                           ;main.c: 255:             frec_tx_datos = Lectura_Frecuencia_tx();
  2380   00187A  EC1E  F022         	call	_Lectura_Frecuencia_tx	;wreg free
  2381   00187E  0100               	movlb	0	; () banked
  2382   001880  6FFA               	movwf	_frec_tx_datos& (0+255),b	;volatile
  2383   001882                     
  2384                           ; BSR set to: 0
  2385                           ;main.c: 257:             frecuencia_tx_datos_pc = (uint8_t)((float)(frec_tx_datos)*(flo
      +                          at)(3.0));
  2386   001882  0E00               	movlw	0
  2387   001884  6F6E               	movwf	___flmul@a& (0+255),b
  2388   001886  0E00               	movlw	0
  2389   001888  6F6F               	movwf	(___flmul@a+1)& (0+255),b
  2390   00188A  0E40               	movlw	64
  2391   00188C  6F70               	movwf	(___flmul@a+2)& (0+255),b
  2392   00188E  0E40               	movlw	64
  2393   001890  6F71               	movwf	(___flmul@a+3)& (0+255),b
  2394   001892  51FA               	movf	_frec_tx_datos& (0+255),w,b	;volatile
  2395   001894  6E1F               	movwf	___xxtofl@val^0,c
  2396   001896  6A20               	clrf	(___xxtofl@val+1)^0,c
  2397   001898  6A21               	clrf	(___xxtofl@val+2)^0,c
  2398   00189A  6A22               	clrf	(___xxtofl@val+3)^0,c
  2399   00189C  0E00               	movlw	0
  2400   00189E  EC08  F01A         	call	___xxtofl
  2401   0018A2  C01F  F06A         	movff	?___xxtofl,___flmul@b
  2402   0018A6  C020  F06B         	movff	?___xxtofl+1,___flmul@b+1
  2403   0018AA  C021  F06C         	movff	?___xxtofl+2,___flmul@b+2
  2404   0018AE  C022  F06D         	movff	?___xxtofl+3,___flmul@b+3
  2405   0018B2  EC1B  F012         	call	___flmul	;wreg free
  2406   0018B6  C06A  F09C         	movff	?___flmul,___fltol@f1
  2407   0018BA  C06B  F09D         	movff	?___flmul+1,___fltol@f1+1
  2408   0018BE  C06C  F09E         	movff	?___flmul+2,___fltol@f1+2
  2409   0018C2  C06D  F09F         	movff	?___flmul+3,___fltol@f1+3
  2410   0018C6  EC7C  F01B         	call	___fltol	;wreg free
  2411   0018CA  0100               	movlb	0	; () banked
  2412   0018CC  519C               	movf	?___fltol& (0+255),w,b
  2413   0018CE  0101               	movlb	1	; () banked
  2414   0018D0  6F70               	movwf	_frecuencia_tx_datos_pc& (0+255),b
  2415   0018D2                     
  2416                           ; BSR set to: 1
  2417                           ;main.c: 260:             if(DATOS_LISTOS_ADC_BAT && DATOS_LISTOS_SENSOR_AFM){
  2418   0018D2  516C               	movf	_DATOS_LISTOS_ADC_BAT& (0+255),w,b
  2419   0018D4  B4D8               	btfsc	status,2,c
  2420   0018D6  EF6F  F00C         	goto	u8481
  2421   0018DA  EF71  F00C         	goto	u8480
  2422   0018DE                     u8481:
  2423   0018DE  EF00  F00D         	goto	l7364
  2424   0018E2                     u8480:
  2425   0018E2                     
  2426                           ; BSR set to: 1
  2427   0018E2  516B               	movf	_DATOS_LISTOS_SENSOR_AFM& (0+255),w,b
  2428   0018E4  B4D8               	btfsc	status,2,c
  2429   0018E6  EF77  F00C         	goto	u8491
  2430   0018EA  EF79  F00C         	goto	u8490
  2431   0018EE                     u8491:
  2432   0018EE  EF00  F00D         	goto	l7364
  2433   0018F2                     u8490:
  2434   0018F2                     
  2435                           ; BSR set to: 1
  2436                           ;main.c: 270:                 medida_nivel_bateria_flt = (float)((float)Lectura_ADC_CH0 
      +                          * 15.0 / 1024.0);
  2437   0018F2  0E00               	movlw	0
  2438   0018F4  0100               	movlb	0	; () banked
  2439   0018F6  6F6E               	movwf	___flmul@a& (0+255),b
  2440   0018F8  0E00               	movlw	0
  2441   0018FA  6F6F               	movwf	(___flmul@a+1)& (0+255),b
  2442   0018FC  0E70               	movlw	112
  2443   0018FE  6F70               	movwf	(___flmul@a+2)& (0+255),b
  2444   001900  0E41               	movlw	65
  2445   001902  6F71               	movwf	(___flmul@a+3)& (0+255),b
  2446   001904  C168  F01F         	movff	_Lectura_ADC_CH0,___xxtofl@val	;volatile
  2447   001908  C169  F020         	movff	_Lectura_ADC_CH0+1,___xxtofl@val+1	;volatile
  2448   00190C  6A21               	clrf	(___xxtofl@val+2)^0,c
  2449   00190E  6A22               	clrf	(___xxtofl@val+3)^0,c
  2450   001910  0E00               	movlw	0
  2451   001912  EC08  F01A         	call	___xxtofl
  2452   001916  C01F  F06A         	movff	?___xxtofl,___flmul@b
  2453   00191A  C020  F06B         	movff	?___xxtofl+1,___flmul@b+1
  2454   00191E  C021  F06C         	movff	?___xxtofl+2,___flmul@b+2
  2455   001922  C022  F06D         	movff	?___xxtofl+3,___flmul@b+3
  2456   001926  EC1B  F012         	call	___flmul	;wreg free
  2457   00192A  C06A  F083         	movff	?___flmul,___fldiv@b
  2458   00192E  C06B  F084         	movff	?___flmul+1,___fldiv@b+1
  2459   001932  C06C  F085         	movff	?___flmul+2,___fldiv@b+2
  2460   001936  C06D  F086         	movff	?___flmul+3,___fldiv@b+3
  2461   00193A  0E00               	movlw	0
  2462   00193C  0100               	movlb	0	; () banked
  2463   00193E  6F87               	movwf	___fldiv@a& (0+255),b
  2464   001940  0E00               	movlw	0
  2465   001942  6F88               	movwf	(___fldiv@a+1)& (0+255),b
  2466   001944  0E80               	movlw	128
  2467   001946  6F89               	movwf	(___fldiv@a+2)& (0+255),b
  2468   001948  0E44               	movlw	68
  2469   00194A  6F8A               	movwf	(___fldiv@a+3)& (0+255),b
  2470   00194C  EC46  F016         	call	___fldiv	;wreg free
  2471   001950  C083  F122         	movff	?___fldiv,_medida_nivel_bateria_flt
  2472   001954  C084  F123         	movff	?___fldiv+1,_medida_nivel_bateria_flt+1
  2473   001958  C085  F124         	movff	?___fldiv+2,_medida_nivel_bateria_flt+2
  2474   00195C  C086  F125         	movff	?___fldiv+3,_medida_nivel_bateria_flt+3
  2475                           
  2476                           ;main.c: 273:                 medida_nivel_bateria_pc = (uint16_t)(medida_nivel_bateria_
      +                          flt * 250.0);
  2477   001960  0E00               	movlw	0
  2478   001962  0100               	movlb	0	; () banked
  2479   001964  6F6E               	movwf	___flmul@a& (0+255),b
  2480   001966  0E00               	movlw	0
  2481   001968  6F6F               	movwf	(___flmul@a+1)& (0+255),b
  2482   00196A  0E7A               	movlw	122
  2483   00196C  6F70               	movwf	(___flmul@a+2)& (0+255),b
  2484   00196E  0E43               	movlw	67
  2485   001970  6F71               	movwf	(___flmul@a+3)& (0+255),b
  2486   001972  C122  F06A         	movff	_medida_nivel_bateria_flt,___flmul@b
  2487   001976  C123  F06B         	movff	_medida_nivel_bateria_flt+1,___flmul@b+1
  2488   00197A  C124  F06C         	movff	_medida_nivel_bateria_flt+2,___flmul@b+2
  2489   00197E  C125  F06D         	movff	_medida_nivel_bateria_flt+3,___flmul@b+3
  2490   001982  EC1B  F012         	call	___flmul	;wreg free
  2491   001986  C06A  F09C         	movff	?___flmul,___fltol@f1
  2492   00198A  C06B  F09D         	movff	?___flmul+1,___fltol@f1+1
  2493   00198E  C06C  F09E         	movff	?___flmul+2,___fltol@f1+2
  2494   001992  C06D  F09F         	movff	?___flmul+3,___fltol@f1+3
  2495   001996  EC7C  F01B         	call	___fltol	;wreg free
  2496   00199A  C09C  F148         	movff	?___fltol,_medida_nivel_bateria_pc
  2497   00199E  C09D  F149         	movff	?___fltol+1,_medida_nivel_bateria_pc+1
  2498   0019A2                     
  2499                           ;main.c: 275:                 sprintf(datos_sensores_afm_pc," %01d P:%01d B:%2.1f %04d F
      +                          :%02d N:%02u L:%u H:%u F:%u",
  2500   0019A2  0E5A               	movlw	low _datos_sensores_afm_pc
  2501   0019A4  0101               	movlb	1	; () banked
  2502   0019A6  6FD2               	movwf	sprintf@s& (0+255),b
  2503   0019A8  0E02               	movlw	high _datos_sensores_afm_pc
  2504   0019AA  6FD3               	movwf	(sprintf@s+1)& (0+255),b
  2505   0019AC  0E01               	movlw	low STR_2
  2506   0019AE  6FD4               	movwf	sprintf@fmt& (0+255),b
  2507   0019B0  0E08               	movlw	high STR_2
  2508   0019B2  6FD5               	movwf	(sprintf@fmt+1)& (0+255),b
  2509   0019B4  C171  F1D6         	movff	_ALARMA_ACTIVA,?_sprintf+4
  2510   0019B8  6BD7               	clrf	(?_sprintf+5)& (0+255),b
  2511   0019BA  C0FD  F1D8         	movff	_contador_pluviometro,?_sprintf+6	;volatile
  2512   0019BE  6BD9               	clrf	(?_sprintf+7)& (0+255),b
  2513   0019C0  C122  F1DA         	movff	_medida_nivel_bateria_flt,?_sprintf+8
  2514   0019C4  C123  F1DB         	movff	_medida_nivel_bateria_flt+1,?_sprintf+9
  2515   0019C8  C124  F1DC         	movff	_medida_nivel_bateria_flt+2,?_sprintf+10
  2516   0019CC  C125  F1DD         	movff	_medida_nivel_bateria_flt+3,?_sprintf+11
  2517   0019D0  C148  F1DE         	movff	_medida_nivel_bateria_pc,?_sprintf+12
  2518   0019D4  C149  F1DF         	movff	_medida_nivel_bateria_pc+1,?_sprintf+13
  2519   0019D8  C170  F1E0         	movff	_frecuencia_tx_datos_pc,?_sprintf+14
  2520   0019DC  6BE1               	clrf	(?_sprintf+15)& (0+255),b
  2521   0019DE  C173  F1E2         	movff	_num_de_estacion,?_sprintf+16	;volatile
  2522   0019E2  6BE3               	clrf	(?_sprintf+17)& (0+255),b
  2523   0019E4  C154  F1E4         	movff	_lectura_sensor_low_band,?_sprintf+18
  2524   0019E8  C155  F1E5         	movff	_lectura_sensor_low_band+1,?_sprintf+19
  2525   0019EC  C152  F1E6         	movff	_lectura_sensor_high_band,?_sprintf+20
  2526   0019F0  C153  F1E7         	movff	_lectura_sensor_high_band+1,?_sprintf+21
  2527   0019F4  C156  F1E8         	movff	_lectura_sensor_full_band,?_sprintf+22
  2528   0019F8  C157  F1E9         	movff	_lectura_sensor_full_band+1,?_sprintf+23
  2529   0019FC  ECD0  F022         	call	_sprintf	;wreg free
  2530   001A00                     l7364:
  2531                           
  2532                           ;main.c: 283:             DATOS_LISTOS_EMPAQUEADO = 1;
  2533   001A00  0E01               	movlw	1
  2534   001A02  0101               	movlb	1	; () banked
  2535   001A04  6F6A               	movwf	_DATOS_LISTOS_EMPAQUEADO& (0+255),b
  2536   001A06                     l7366:
  2537                           
  2538                           ; BSR set to: 1
  2539                           ;main.c: 288:         if(HABILITAR_TASK3){
  2540   001A06  5176               	movf	_HABILITAR_TASK3& (0+255),w,b	;volatile
  2541   001A08  B4D8               	btfsc	status,2,c
  2542   001A0A  EF09  F00D         	goto	u8501
  2543   001A0E  EF0B  F00D         	goto	u8500
  2544   001A12                     u8501:
  2545   001A12  EF7C  F00D         	goto	l7394
  2546   001A16                     u8500:
  2547   001A16                     
  2548                           ; BSR set to: 1
  2549                           ;main.c: 289:             HABILITAR_TASK3 = 0;
  2550   001A16  0E00               	movlw	0
  2551   001A18  6F76               	movwf	_HABILITAR_TASK3& (0+255),b	;volatile
  2552                           
  2553                           ;main.c: 291:             HABLILITAR_LECTURA_CH0 = 1;
  2554   001A1A  0E01               	movlw	1
  2555   001A1C  0100               	movlb	0	; () banked
  2556   001A1E  6FFF               	movwf	_HABLILITAR_LECTURA_CH0& (0+255),b	;volatile
  2557                           
  2558                           ;main.c: 293:             HABILITAR_LECTURA_SENSOR = 1;
  2559   001A20  0E01               	movlw	1
  2560   001A22  0101               	movlb	1	; () banked
  2561   001A24  6F6E               	movwf	_HABILITAR_LECTURA_SENSOR& (0+255),b
  2562                           
  2563                           ;main.c: 296:             if(HABILITAR_VERIFICAR_UMBRAL){
  2564   001A26  516D               	movf	_HABILITAR_VERIFICAR_UMBRAL& (0+255),w,b
  2565   001A28  B4D8               	btfsc	status,2,c
  2566   001A2A  EF19  F00D         	goto	u8511
  2567   001A2E  EF1B  F00D         	goto	u8510
  2568   001A32                     u8511:
  2569   001A32  EF7C  F00D         	goto	l7394
  2570   001A36                     u8510:
  2571   001A36                     
  2572                           ; BSR set to: 1
  2573                           ;main.c: 297:                 HABILITAR_VERIFICAR_UMBRAL = 0;
  2574   001A36  0E00               	movlw	0
  2575   001A38  6F6D               	movwf	_HABILITAR_VERIFICAR_UMBRAL& (0+255),b
  2576   001A3A                     
  2577                           ; BSR set to: 1
  2578                           ;main.c: 298:                 if(NIVEL_UNBRAL_500MV<=lectura_sensor_low_band_test){
  2579   001A3A  0E9A               	movlw	154
  2580   001A3C  5D4E               	subwf	_lectura_sensor_low_band_test& (0+255),w,b
  2581   001A3E  0E19               	movlw	25
  2582   001A40  594F               	subwfb	(_lectura_sensor_low_band_test+1)& (0+255),w,b
  2583   001A42  A0D8               	btfss	status,0,c
  2584   001A44  EF26  F00D         	goto	u8521
  2585   001A48  EF28  F00D         	goto	u8520
  2586   001A4C                     u8521:
  2587   001A4C  EF49  F00D         	goto	l7384
  2588   001A50                     u8520:
  2589   001A50                     
  2590                           ; BSR set to: 1
  2591                           ;main.c: 299:                     CONT_TIEMPO_UMBRAL++;
  2592   001A50  4B4C               	infsnz	_CONT_TIEMPO_UMBRAL& (0+255),f,b
  2593   001A52  2B4D               	incf	(_CONT_TIEMPO_UMBRAL+1)& (0+255),f,b
  2594   001A54                     
  2595                           ; BSR set to: 1
  2596                           ;main.c: 301:                     if(111<=CONT_TIEMPO_UMBRAL){
  2597   001A54  514D               	movf	(_CONT_TIEMPO_UMBRAL+1)& (0+255),w,b
  2598   001A56  E109               	bnz	u8530
  2599   001A58  0E6F               	movlw	111
  2600   001A5A  5D4C               	subwf	_CONT_TIEMPO_UMBRAL& (0+255),w,b
  2601   001A5C  A0D8               	btfss	status,0,c
  2602   001A5E  EF33  F00D         	goto	u8531
  2603   001A62  EF35  F00D         	goto	u8530
  2604   001A66                     u8531:
  2605   001A66  EF7C  F00D         	goto	l334
  2606   001A6A                     u8530:
  2607   001A6A                     
  2608                           ; BSR set to: 1
  2609                           ;main.c: 303:                         CONT_TIEMPO_UMBRAL = 0;
  2610   001A6A  0E00               	movlw	0
  2611   001A6C  6F4D               	movwf	(_CONT_TIEMPO_UMBRAL+1)& (0+255),b
  2612   001A6E  0E00               	movlw	0
  2613   001A70  6F4C               	movwf	_CONT_TIEMPO_UMBRAL& (0+255),b
  2614   001A72                     
  2615                           ; BSR set to: 1
  2616                           ;main.c: 305:                         Asignar_Minutos_Timer0(0.0164);
  2617   001A72  0E4B               	movlw	75
  2618   001A74  0100               	movlb	0	; () banked
  2619   001A76  6F6A               	movwf	Asignar_Minutos_Timer0@minutos& (0+255),b
  2620   001A78  0E59               	movlw	89
  2621   001A7A  6F6B               	movwf	(Asignar_Minutos_Timer0@minutos+1)& (0+255),b
  2622   001A7C  0E86               	movlw	134
  2623   001A7E  6F6C               	movwf	(Asignar_Minutos_Timer0@minutos+2)& (0+255),b
  2624   001A80  0E3C               	movlw	60
  2625   001A82  6F6D               	movwf	(Asignar_Minutos_Timer0@minutos+3)& (0+255),b
  2626   001A84  EC5E  F024         	call	_Asignar_Minutos_Timer0	;wreg free
  2627   001A88                     
  2628                           ;main.c: 307:                         ALARMA_ACTIVA = 1;
  2629   001A88  0E01               	movlw	1
  2630   001A8A  0101               	movlb	1	; () banked
  2631   001A8C  6F71               	movwf	_ALARMA_ACTIVA& (0+255),b
  2632   001A8E  EF7C  F00D         	goto	l7394
  2633   001A92                     l7384:
  2634                           
  2635                           ; BSR set to: 1
  2636                           ;main.c: 311:                     ALARMA_ACTIVA = 0;
  2637   001A92  0E00               	movlw	0
  2638   001A94  6F71               	movwf	_ALARMA_ACTIVA& (0+255),b
  2639                           
  2640                           ;main.c: 312:                     CONT_TIEMPO_UMBRAL = 0;
  2641   001A96  0E00               	movlw	0
  2642   001A98  6F4D               	movwf	(_CONT_TIEMPO_UMBRAL+1)& (0+255),b
  2643   001A9A  0E00               	movlw	0
  2644   001A9C  6F4C               	movwf	_CONT_TIEMPO_UMBRAL& (0+255),b
  2645   001A9E                     
  2646                           ; BSR set to: 1
  2647                           ;main.c: 313:                      frec_tx_datos = Lectura_Frecuencia_tx();
  2648   001A9E  EC1E  F022         	call	_Lectura_Frecuencia_tx	;wreg free
  2649   001AA2  0100               	movlb	0	; () banked
  2650   001AA4  6FFA               	movwf	_frec_tx_datos& (0+255),b	;volatile
  2651   001AA6                     
  2652                           ; BSR set to: 0
  2653                           ;main.c: 315:                     if(frec_tx_datos == 0){
  2654   001AA6  51FA               	movf	_frec_tx_datos& (0+255),w,b	;volatile
  2655   001AA8  A4D8               	btfss	status,2,c
  2656   001AAA  EF59  F00D         	goto	u8541
  2657   001AAE  EF5B  F00D         	goto	u8540
  2658   001AB2                     u8541:
  2659   001AB2  EF67  F00D         	goto	l7392
  2660   001AB6                     u8540:
  2661   001AB6                     
  2662                           ; BSR set to: 0
  2663                           ;main.c: 316:                         Asignar_Minutos_Timer0(0.0164);
  2664   001AB6  0E4B               	movlw	75
  2665   001AB8  6F6A               	movwf	Asignar_Minutos_Timer0@minutos& (0+255),b
  2666   001ABA  0E59               	movlw	89
  2667   001ABC  6F6B               	movwf	(Asignar_Minutos_Timer0@minutos+1)& (0+255),b
  2668   001ABE  0E86               	movlw	134
  2669   001AC0  6F6C               	movwf	(Asignar_Minutos_Timer0@minutos+2)& (0+255),b
  2670   001AC2  0E3C               	movlw	60
  2671   001AC4  6F6D               	movwf	(Asignar_Minutos_Timer0@minutos+3)& (0+255),b
  2672   001AC6  EC5E  F024         	call	_Asignar_Minutos_Timer0	;wreg free
  2673                           
  2674                           ;main.c: 317:                     }
  2675   001ACA  EF7C  F00D         	goto	l7394
  2676   001ACE                     l7392:
  2677                           
  2678                           ; BSR set to: 0
  2679                           ;main.c: 319:                         Asignar_Minutos_Timer0(frecuencia_tx_datos_pc);
  2680   001ACE  0101               	movlb	1	; () banked
  2681   001AD0  5170               	movf	_frecuencia_tx_datos_pc& (0+255),w,b
  2682   001AD2  6E1F               	movwf	___xxtofl@val^0,c
  2683   001AD4  6A20               	clrf	(___xxtofl@val+1)^0,c
  2684   001AD6  6A21               	clrf	(___xxtofl@val+2)^0,c
  2685   001AD8  6A22               	clrf	(___xxtofl@val+3)^0,c
  2686   001ADA  0E00               	movlw	0
  2687   001ADC  EC08  F01A         	call	___xxtofl
  2688   001AE0  C01F  F06A         	movff	?___xxtofl,Asignar_Minutos_Timer0@minutos
  2689   001AE4  C020  F06B         	movff	?___xxtofl+1,Asignar_Minutos_Timer0@minutos+1
  2690   001AE8  C021  F06C         	movff	?___xxtofl+2,Asignar_Minutos_Timer0@minutos+2
  2691   001AEC  C022  F06D         	movff	?___xxtofl+3,Asignar_Minutos_Timer0@minutos+3
  2692   001AF0  EC5E  F024         	call	_Asignar_Minutos_Timer0	;wreg free
  2693   001AF4  EF7C  F00D         	goto	l7394
  2694   001AF8                     l334:
  2695   001AF8                     l7394:
  2696                           
  2697                           ;main.c: 335:         if(HABILITAR_TASK4){
  2698   001AF8  0101               	movlb	1	; () banked
  2699   001AFA  5175               	movf	_HABILITAR_TASK4& (0+255),w,b	;volatile
  2700   001AFC  B4D8               	btfsc	status,2,c
  2701   001AFE  EF83  F00D         	goto	u8551
  2702   001B02  EF85  F00D         	goto	u8550
  2703   001B06                     u8551:
  2704   001B06  EF7C  F009         	goto	l7200
  2705   001B0A                     u8550:
  2706   001B0A                     
  2707                           ; BSR set to: 1
  2708                           ;main.c: 336:             HABILITAR_TASK4 = 0;
  2709   001B0A  0E00               	movlw	0
  2710   001B0C  6F75               	movwf	_HABILITAR_TASK4& (0+255),b	;volatile
  2711   001B0E  EF7C  F009         	goto	l7200
  2712   001B12  EF48  F000         	goto	start
  2713   001B16                     __end_of_main:
  2714                           	callstack 0
  2715                           
  2716 ;; *************** function _sprintf *****************
  2717 ;; Defined at:
  2718 ;;		line 9 in file "C:\Program Files\Microchip\xc8\v2.41\pic\sources\c99\common\nf_sprintf.c"
  2719 ;; Parameters:    Size  Location     Type
  2720 ;;  s               2    6[BANK1 ] PTR unsigned char 
  2721 ;;		 -> datos_sensores_afm_pc(90), 
  2722 ;;  fmt             2    8[BANK1 ] PTR const unsigned char 
  2723 ;;		 -> STR_2(55), 
  2724 ;; Auto vars:     Size  Location     Type
  2725 ;;  f              12   32[BANK1 ] struct _IO_FILE
  2726 ;;  ap              2   30[BANK1 ] PTR void [1]
  2727 ;;		 -> ?_sprintf(2), 
  2728 ;;  ret             2    0        int 
  2729 ;; Return value:  Size  Location     Type
  2730 ;;                  2    6[BANK1 ] int 
  2731 ;; Registers used:
  2732 ;;		wreg, fsr1l, fsr1h, fsr2l, fsr2h, status,2, status,0, tblptrl, tblptrh, tblptru, prodl, prodh, cstack
  2733 ;; Tracked objects:
  2734 ;;		On entry : 0/0
  2735 ;;		On exit  : 0/0
  2736 ;;		Unchanged: 0/0
  2737 ;; Data sizes:     COMRAM   BANK0   BANK1   BANK2   BANK3   BANK4   BANK5   BANK6   BANK7
  2738 ;;      Params:         0       0      24       0       0       0       0       0       0
  2739 ;;      Locals:         0       0      14       0       0       0       0       0       0
  2740 ;;      Temps:          0       0       0       0       0       0       0       0       0
  2741 ;;      Totals:         0       0      38       0       0       0       0       0       0
  2742 ;;Total ram usage:       38 bytes
  2743 ;; Hardware stack levels used: 1
  2744 ;; Hardware stack levels required when called: 11
  2745 ;; This function calls:
  2746 ;;		_vfprintf
  2747 ;; This function is called by:
  2748 ;;		_main
  2749 ;; This function uses a non-reentrant model
  2750 ;;
  2751                           
  2752                           	psect	text1
  2753   0045A0                     __ptext1:
  2754                           	callstack 0
  2755   0045A0                     _sprintf:
  2756                           	callstack 19
  2757   0045A0  0ED6               	movlw	low (?_sprintf+4)
  2758   0045A2  0101               	movlb	1	; () banked
  2759   0045A4  6FEA               	movwf	sprintf@ap& (0+255),b
  2760   0045A6  0E01               	movlw	high (?_sprintf+4)
  2761   0045A8  6FEB               	movwf	(sprintf@ap+1)& (0+255),b
  2762   0045AA  C1D2  F1EC         	movff	sprintf@s,sprintf@f
  2763   0045AE  C1D3  F1ED         	movff	sprintf@s+1,sprintf@f+1
  2764   0045B2                     
  2765                           ; BSR set to: 1
  2766   0045B2  0E00               	movlw	0
  2767   0045B4  6FF0               	movwf	(sprintf@f+4)& (0+255),b
  2768   0045B6  0E00               	movlw	0
  2769   0045B8  6FEF               	movwf	(sprintf@f+3)& (0+255),b
  2770   0045BA                     
  2771                           ; BSR set to: 1
  2772   0045BA  0E00               	movlw	0
  2773   0045BC  6FF7               	movwf	(sprintf@f+11)& (0+255),b
  2774   0045BE  0E00               	movlw	0
  2775   0045C0  6FF6               	movwf	(sprintf@f+10)& (0+255),b
  2776   0045C2                     
  2777                           ; BSR set to: 1
  2778   0045C2  0EEC               	movlw	low sprintf@f
  2779   0045C4  6FCC               	movwf	vfprintf@fp& (0+255),b
  2780   0045C6  0E01               	movlw	high sprintf@f
  2781   0045C8  6FCD               	movwf	(vfprintf@fp+1)& (0+255),b
  2782   0045CA  C1D4  F1CE         	movff	sprintf@fmt,vfprintf@fmt
  2783   0045CE  C1D5  F1CF         	movff	sprintf@fmt+1,vfprintf@fmt+1
  2784   0045D2  0EEA               	movlw	low sprintf@ap
  2785   0045D4  6FD0               	movwf	vfprintf@ap& (0+255),b
  2786   0045D6  0E01               	movlw	high sprintf@ap
  2787   0045D8  6FD1               	movwf	(vfprintf@ap+1)& (0+255),b
  2788   0045DA  EC7E  F022         	call	_vfprintf	;wreg free
  2789   0045DE  0101               	movlb	1	; () banked
  2790   0045E0  51EF               	movf	(sprintf@f+3)& (0+255),w,b
  2791   0045E2  25D2               	addwf	sprintf@s& (0+255),w,b
  2792   0045E4  6ED9               	movwf	fsr2l,c
  2793   0045E6  51F0               	movf	(sprintf@f+4)& (0+255),w,b
  2794   0045E8  21D3               	addwfc	(sprintf@s+1)& (0+255),w,b
  2795   0045EA  6EDA               	movwf	fsr2h,c
  2796   0045EC  6ADF               	clrf	indf2,c
  2797   0045EE                     
  2798                           ; BSR set to: 1
  2799   0045EE  0012               	return		;funcret
  2800   0045F0                     __end_of_sprintf:
  2801                           	callstack 0
  2802                           
  2803 ;; *************** function _vfprintf *****************
  2804 ;; Defined at:
  2805 ;;		line 1546 in file "C:\Program Files\Microchip\xc8\v2.41\pic\sources\c99\common\doprnt.c"
  2806 ;; Parameters:    Size  Location     Type
  2807 ;;  fp              2    0[BANK1 ] PTR struct _IO_FILE
  2808 ;;		 -> sprintf@f(12), 
  2809 ;;  fmt             2    2[BANK1 ] PTR const unsigned char 
  2810 ;;		 -> STR_2(55), 
  2811 ;;  ap              2    4[BANK1 ] PTR PTR void 
  2812 ;;		 -> sprintf@ap(2), 
  2813 ;; Auto vars:     Size  Location     Type
  2814 ;;  cfmt            2  150[BANK0 ] PTR unsigned char 
  2815 ;;		 -> STR_2(55), 
  2816 ;; Return value:  Size  Location     Type
  2817 ;;                  2    0[BANK1 ] int 
  2818 ;; Registers used:
  2819 ;;		wreg, fsr1l, fsr1h, fsr2l, fsr2h, status,2, status,0, tblptrl, tblptrh, tblptru, prodl, prodh, cstack
  2820 ;; Tracked objects:
  2821 ;;		On entry : 0/0
  2822 ;;		On exit  : 0/0
  2823 ;;		Unchanged: 0/0
  2824 ;; Data sizes:     COMRAM   BANK0   BANK1   BANK2   BANK3   BANK4   BANK5   BANK6   BANK7
  2825 ;;      Params:         0       0       6       0       0       0       0       0       0
  2826 ;;      Locals:         0       2       0       0       0       0       0       0       0
  2827 ;;      Temps:          0       0       0       0       0       0       0       0       0
  2828 ;;      Totals:         0       2       6       0       0       0       0       0       0
  2829 ;;Total ram usage:        8 bytes
  2830 ;; Hardware stack levels used: 1
  2831 ;; Hardware stack levels required when called: 10
  2832 ;; This function calls:
  2833 ;;		_vfpfcnvrt
  2834 ;; This function is called by:
  2835 ;;		_sprintf
  2836 ;; This function uses a non-reentrant model
  2837 ;;
  2838                           
  2839                           	psect	text2
  2840   0044FC                     __ptext2:
  2841                           	callstack 0
  2842   0044FC                     _vfprintf:
  2843                           	callstack 19
  2844   0044FC                     
  2845                           ;C:\Program Files\Microchip\xc8\v2.41\pic\sources\c99\common\doprnt.c: 1546: int vfprint
      +                          f(FILE *fp, const char *fmt, va_list ap);C:\Program Files\Microchip\xc8\v2.41\pic\source
      +                          s\c99\common\doprnt.c: 1547: {;C:\Program Files\Microchip\xc8\v2.41\pic\sources\c99\comm
      +                          on\doprnt.c: 1549:     char *cfmt;;C:\Program Files\Microchip\xc8\v2.41\pic\sources\c99\
      +                          common\doprnt.c: 1551:     cfmt = (char *)fmt;
  2846   0044FC  C1CE  F0F6         	movff	vfprintf@fmt,vfprintf@cfmt
  2847   004500  C1CF  F0F7         	movff	vfprintf@fmt+1,vfprintf@cfmt+1
  2848                           
  2849                           ;C:\Program Files\Microchip\xc8\v2.41\pic\sources\c99\common\doprnt.c: 1555:     while (
      +                          *cfmt) {
  2850   004504  EF93  F022         	goto	l7054
  2851   004508                     l7052:
  2852                           
  2853                           ;C:\Program Files\Microchip\xc8\v2.41\pic\sources\c99\common\doprnt.c: 1559:    vfpfcnvr
      +                          t(fp, &cfmt, ap);
  2854   004508  C1CC  F0E5         	movff	vfprintf@fp,vfpfcnvrt@fp
  2855   00450C  C1CD  F0E6         	movff	vfprintf@fp+1,vfpfcnvrt@fp+1
  2856   004510  0EF6               	movlw	low vfprintf@cfmt
  2857   004512  0100               	movlb	0	; () banked
  2858   004514  6FE7               	movwf	vfpfcnvrt@fmt& (0+255),b
  2859   004516  0E00               	movlw	high vfprintf@cfmt
  2860   004518  6FE8               	movwf	(vfpfcnvrt@fmt+1)& (0+255),b
  2861   00451A  C1D0  F0E9         	movff	vfprintf@ap,vfpfcnvrt@ap
  2862   00451E  C1D1  F0EA         	movff	vfprintf@ap+1,vfpfcnvrt@ap+1
  2863   004522  ECEC  F00F         	call	_vfpfcnvrt	;wreg free
  2864   004526                     l7054:
  2865                           
  2866                           ;C:\Program Files\Microchip\xc8\v2.41\pic\sources\c99\common\doprnt.c: 1555:     while (
      +                          *cfmt) {
  2867   004526  C0F6  FFF6         	movff	vfprintf@cfmt,tblptrl
  2868   00452A  C0F7  FFF7         	movff	vfprintf@cfmt+1,tblptrh
  2869   00452E                     	if	0	;tblptru may be non-zero
  2870   00452E                     	endif
  2871   00452E                     	if	0	;tblptru may be non-zero
  2872   00452E                     	endif
  2873   00452E  0008               	tblrd		*
  2874   004530  50F5               	movf	tablat,w,c
  2875   004532  0900               	iorlw	0
  2876   004534  A4D8               	btfss	status,2,c
  2877   004536  EF9F  F022         	goto	u8091
  2878   00453A  EFA1  F022         	goto	u8090
  2879   00453E                     u8091:
  2880   00453E  EF84  F022         	goto	l7052
  2881   004542                     u8090:
  2882   004542                     
  2883                           ;C:\Program Files\Microchip\xc8\v2.41\pic\sources\c99\common\doprnt.c: 1564:  return 0;
  2884   004542  0E00               	movlw	0
  2885   004544  0101               	movlb	1	; () banked
  2886   004546  6FCD               	movwf	(?_vfprintf+1)& (0+255),b
  2887   004548  0E00               	movlw	0
  2888   00454A  6FCC               	movwf	?_vfprintf& (0+255),b
  2889   00454C                     
  2890                           ; BSR set to: 1
  2891   00454C  0012               	return		;funcret
  2892   00454E                     __end_of_vfprintf:
  2893                           	callstack 0
  2894                           
  2895 ;; *************** function _vfpfcnvrt *****************
  2896 ;; Defined at:
  2897 ;;		line 1048 in file "C:\Program Files\Microchip\xc8\v2.41\pic\sources\c99\common\doprnt.c"
  2898 ;; Parameters:    Size  Location     Type
  2899 ;;  fp              2  133[BANK0 ] PTR struct _IO_FILE
  2900 ;;		 -> sprintf@f(12), 
  2901 ;;  fmt             2  135[BANK0 ] PTR PTR unsigned char 
  2902 ;;		 -> vfprintf@cfmt(2), 
  2903 ;;  ap              2  137[BANK0 ] PTR PTR void 
  2904 ;;		 -> sprintf@ap(2), 
  2905 ;; Auto vars:     Size  Location     Type
  2906 ;;  convarg         4  144[BANK0 ] struct .
  2907 ;;  cp              2  148[BANK0 ] PTR unsigned char 
  2908 ;;		 -> STR_2(55), 
  2909 ;;  done            2  141[BANK0 ] int 
  2910 ;;  i               2    0        int 
  2911 ;;  c               1  143[BANK0 ] unsigned char 
  2912 ;; Return value:  Size  Location     Type
  2913 ;;                  1    wreg      void 
  2914 ;; Registers used:
  2915 ;;		wreg, fsr1l, fsr1h, fsr2l, fsr2h, status,2, status,0, tblptrl, tblptrh, tblptru, prodl, prodh, cstack
  2916 ;; Tracked objects:
  2917 ;;		On entry : 0/0
  2918 ;;		On exit  : 0/0
  2919 ;;		Unchanged: 0/0
  2920 ;; Data sizes:     COMRAM   BANK0   BANK1   BANK2   BANK3   BANK4   BANK5   BANK6   BANK7
  2921 ;;      Params:         0       6       0       0       0       0       0       0       0
  2922 ;;      Locals:         0       9       0       0       0       0       0       0       0
  2923 ;;      Temps:          0       2       0       0       0       0       0       0       0
  2924 ;;      Totals:         0      17       0       0       0       0       0       0       0
  2925 ;;Total ram usage:       17 bytes
  2926 ;; Hardware stack levels used: 1
  2927 ;; Hardware stack levels required when called: 9
  2928 ;; This function calls:
  2929 ;;		_dtoa
  2930 ;;		_efgtoa
  2931 ;;		_fputc
  2932 ;;		_read_prec_or_width
  2933 ;;		_utoa
  2934 ;; This function is called by:
  2935 ;;		_vfprintf
  2936 ;; This function uses a non-reentrant model
  2937 ;;
  2938                           
  2939                           	psect	text3
  2940   001FD8                     __ptext3:
  2941                           	callstack 0
  2942   001FD8                     _vfpfcnvrt:
  2943                           	callstack 19
  2944   001FD8                     
  2945                           ;C:\Program Files\Microchip\xc8\v2.41\pic\sources\c99\common\doprnt.c: 1048: vfpfcnvrt(F
      +                          ILE *fp, char *fmt[], va_list ap);C:\Program Files\Microchip\xc8\v2.41\pic\sources\c99\c
      +                          ommon\doprnt.c: 1049: {;C:\Program Files\Microchip\xc8\v2.41\pic\sources\c99\common\dopr
      +                          nt.c: 1050:     char c, *cp;;C:\Program Files\Microchip\xc8\v2.41\pic\sources\c99\common
      +                          \doprnt.c: 1051:     int done, i;;C:\Program Files\Microchip\xc8\v2.41\pic\sources\c99\c
      +                          ommon\doprnt.c: 1059:  } convarg;;C:\Program Files\Microchip\xc8\v2.41\pic\sources\c99\c
      +                          ommon\doprnt.c: 1062:     if ((*fmt)[0] == '%') {
  2946   001FD8  C0E7  FFD9         	movff	vfpfcnvrt@fmt,fsr2l
  2947   001FDC  C0E8  FFDA         	movff	vfpfcnvrt@fmt+1,fsr2h
  2948   001FE0  CFDE FFF6          	movff	postinc2,tblptrl
  2949   001FE4  CFDD FFF7          	movff	postdec2,tblptrh
  2950   001FE8                     	if	0	;tblptru may be non-zero
  2951   001FE8                     	endif
  2952   001FE8                     	if	0	;tblptru may be non-zero
  2953   001FE8                     	endif
  2954   001FE8  0008               	tblrd		*
  2955   001FEA  50F5               	movf	tablat,w,c
  2956   001FEC  0A25               	xorlw	37
  2957   001FEE  A4D8               	btfss	status,2,c
  2958   001FF0  EFFC  F00F         	goto	u8011
  2959   001FF4  EFFE  F00F         	goto	u8010
  2960   001FF8                     u8011:
  2961   001FF8  EF06  F012         	goto	l7012
  2962   001FFC                     u8010:
  2963   001FFC                     
  2964                           ;C:\Program Files\Microchip\xc8\v2.41\pic\sources\c99\common\doprnt.c: 1063:         ++*
      +                          fmt;
  2965   001FFC  C0E7  FFD9         	movff	vfpfcnvrt@fmt,fsr2l
  2966   002000  C0E8  FFDA         	movff	vfpfcnvrt@fmt+1,fsr2h
  2967   002004  2ADE               	incf	postinc2,f,c
  2968   002006  0E00               	movlw	0
  2969   002008  22DD               	addwfc	postdec2,f,c
  2970   00200A                     
  2971                           ;C:\Program Files\Microchip\xc8\v2.41\pic\sources\c99\common\doprnt.c: 1065:         fla
      +                          gs = width = 0;
  2972   00200A  0E00               	movlw	0
  2973   00200C  6E25               	movwf	(_width+1)^0,c
  2974   00200E  0E00               	movlw	0
  2975   002010  6E24               	movwf	_width^0,c
  2976   002012  C024  F036         	movff	_width,_flags
  2977   002016                     
  2978                           ;C:\Program Files\Microchip\xc8\v2.41\pic\sources\c99\common\doprnt.c: 1066:         pre
      +                          c = -1;
  2979   002016  6826               	setf	_prec^0,c
  2980   002018  6827               	setf	(_prec+1)^0,c
  2981   00201A                     
  2982                           ;C:\Program Files\Microchip\xc8\v2.41\pic\sources\c99\common\doprnt.c: 1070:         don
      +                          e = 0;
  2983   00201A  0E00               	movlw	0
  2984   00201C  0100               	movlb	0	; () banked
  2985   00201E  6FEE               	movwf	(vfpfcnvrt@done+1)& (0+255),b
  2986   002020  0E00               	movlw	0
  2987   002022  6FED               	movwf	vfpfcnvrt@done& (0+255),b
  2988                           
  2989                           ;C:\Program Files\Microchip\xc8\v2.41\pic\sources\c99\common\doprnt.c: 1071:         whi
      +                          le (!done) {
  2990   002024  EF3E  F010         	goto	l6936
  2991   002028                     l6926:
  2992                           
  2993                           ; BSR set to: 0
  2994                           ;C:\Program Files\Microchip\xc8\v2.41\pic\sources\c99\common\doprnt.c: 1081:            
      +                                   flags |= (1 << 1);
  2995   002028  8236               	bsf	_flags^0,1,c
  2996   00202A                     
  2997                           ; BSR set to: 0
  2998                           ;C:\Program Files\Microchip\xc8\v2.41\pic\sources\c99\common\doprnt.c: 1082:            
      +                                   ++*fmt;
  2999   00202A  C0E7  FFD9         	movff	vfpfcnvrt@fmt,fsr2l
  3000   00202E  C0E8  FFDA         	movff	vfpfcnvrt@fmt+1,fsr2h
  3001   002032  2ADE               	incf	postinc2,f,c
  3002   002034  0E00               	movlw	0
  3003   002036  22DD               	addwfc	postdec2,f,c
  3004                           
  3005                           ;C:\Program Files\Microchip\xc8\v2.41\pic\sources\c99\common\doprnt.c: 1083:            
      +                                   break;
  3006   002038  EF3E  F010         	goto	l6936
  3007   00203C                     l6930:
  3008                           
  3009                           ; BSR set to: 0
  3010                           ;C:\Program Files\Microchip\xc8\v2.41\pic\sources\c99\common\doprnt.c: 1104:            
      +                                   done = 1;
  3011   00203C  0E00               	movlw	0
  3012   00203E  6FEE               	movwf	(vfpfcnvrt@done+1)& (0+255),b
  3013   002040  0E01               	movlw	1
  3014   002042  6FED               	movwf	vfpfcnvrt@done& (0+255),b
  3015                           
  3016                           ;C:\Program Files\Microchip\xc8\v2.41\pic\sources\c99\common\doprnt.c: 1105:            
      +                                   break;
  3017   002044  EF3E  F010         	goto	l6936
  3018   002048                     l6934:
  3019                           
  3020                           ; BSR set to: 0
  3021   002048  C0E7  FFD9         	movff	vfpfcnvrt@fmt,fsr2l
  3022   00204C  C0E8  FFDA         	movff	vfpfcnvrt@fmt+1,fsr2h
  3023   002050  CFDE FFF6          	movff	postinc2,tblptrl
  3024   002054  CFDD FFF7          	movff	postdec2,tblptrh
  3025   002058                     	if	0	;tblptru may be non-zero
  3026   002058                     	endif
  3027   002058                     	if	0	;tblptru may be non-zero
  3028   002058                     	endif
  3029   002058  0008               	tblrd		*
  3030   00205A  50F5               	movf	tablat,w,c
  3031   00205C  6FEB               	movwf	??_vfpfcnvrt& (0+255),b
  3032   00205E  6BEC               	clrf	(??_vfpfcnvrt+1)& (0+255),b
  3033                           
  3034                           ; Switch on 2 bytes has been partitioned into a top level switch of size 1, and 1 sub-sw
      +                          itches
  3035                           ; Switch size 1, requested type "simple"
  3036                           ; Number of cases is 1, Range of values is 0 to 0
  3037                           ; switch strategies available:
  3038                           ; Name         Instructions Cycles
  3039                           ; simple_byte            4     3 (average)
  3040                           ;	Chosen strategy is simple_byte
  3041   002060  51EC               	movf	(??_vfpfcnvrt+1)& (0+255),w,b
  3042   002062  0A00               	xorlw	0	; case 0
  3043   002064  B4D8               	btfsc	status,2,c
  3044   002066  EF37  F010         	goto	l7548
  3045   00206A  EF1E  F010         	goto	l6930
  3046   00206E                     l7548:
  3047                           
  3048                           ; BSR set to: 0
  3049                           ; Switch size 1, requested type "simple"
  3050                           ; Number of cases is 1, Range of values is 48 to 48
  3051                           ; switch strategies available:
  3052                           ; Name         Instructions Cycles
  3053                           ; simple_byte            4     3 (average)
  3054                           ;	Chosen strategy is simple_byte
  3055   00206E  51EB               	movf	??_vfpfcnvrt& (0+255),w,b
  3056   002070  0A30               	xorlw	48	; case 48
  3057   002072  B4D8               	btfsc	status,2,c
  3058   002074  EF14  F010         	goto	l6926
  3059   002078  EF1E  F010         	goto	l6930
  3060   00207C                     l6936:
  3061                           
  3062                           ; BSR set to: 0
  3063                           ;C:\Program Files\Microchip\xc8\v2.41\pic\sources\c99\common\doprnt.c: 1071:         whi
      +                          le (!done) {
  3064   00207C  51ED               	movf	vfpfcnvrt@done& (0+255),w,b
  3065   00207E  11EE               	iorwf	(vfpfcnvrt@done+1)& (0+255),w,b
  3066   002080  B4D8               	btfsc	status,2,c
  3067   002082  EF45  F010         	goto	u8021
  3068   002086  EF47  F010         	goto	u8020
  3069   00208A                     u8021:
  3070   00208A  EF24  F010         	goto	l6934
  3071   00208E                     u8020:
  3072   00208E                     
  3073                           ; BSR set to: 0
  3074                           ;C:\Program Files\Microchip\xc8\v2.41\pic\sources\c99\common\doprnt.c: 1117:   width = r
      +                          ead_prec_or_width(fmt, ap);
  3075   00208E  C0E7  F062         	movff	vfpfcnvrt@fmt,read_prec_or_width@fmt
  3076   002092  C0E8  F063         	movff	vfpfcnvrt@fmt+1,read_prec_or_width@fmt+1
  3077   002096  C0E9  F064         	movff	vfpfcnvrt@ap,read_prec_or_width@ap
  3078   00209A  C0EA  F065         	movff	vfpfcnvrt@ap+1,read_prec_or_width@ap+1
  3079   00209E  EC5D  F01E         	call	_read_prec_or_width	;wreg free
  3080   0020A2  C062  F024         	movff	?_read_prec_or_width,_width
  3081   0020A6  C063  F025         	movff	?_read_prec_or_width+1,_width+1
  3082   0020AA                     
  3083                           ;C:\Program Files\Microchip\xc8\v2.41\pic\sources\c99\common\doprnt.c: 1118:   if (width
      +                           < 0) {
  3084   0020AA  BE25               	btfsc	(_width+1)^0,7,c
  3085   0020AC  EF5C  F010         	goto	u8030
  3086   0020B0  EF5A  F010         	goto	u8031
  3087   0020B4                     u8031:
  3088   0020B4  EF61  F010         	goto	l6944
  3089   0020B8                     u8030:
  3090   0020B8                     
  3091                           ;C:\Program Files\Microchip\xc8\v2.41\pic\sources\c99\common\doprnt.c: 1119:    flags |=
      +                           (1 << 0);
  3092   0020B8  8036               	bsf	_flags^0,0,c
  3093                           
  3094                           ;C:\Program Files\Microchip\xc8\v2.41\pic\sources\c99\common\doprnt.c: 1120:    width = 
      +                          -width;
  3095   0020BA  6C24               	negf	_width^0,c
  3096   0020BC  1E25               	comf	(_width+1)^0,f,c
  3097   0020BE  B0D8               	btfsc	status,0,c
  3098   0020C0  2A25               	incf	(_width+1)^0,f,c
  3099   0020C2                     l6944:
  3100                           
  3101                           ;C:\Program Files\Microchip\xc8\v2.41\pic\sources\c99\common\doprnt.c: 1126:         if 
      +                          ((*fmt)[0] == '.') {
  3102   0020C2  C0E7  FFD9         	movff	vfpfcnvrt@fmt,fsr2l
  3103   0020C6  C0E8  FFDA         	movff	vfpfcnvrt@fmt+1,fsr2h
  3104   0020CA  CFDE FFF6          	movff	postinc2,tblptrl
  3105   0020CE  CFDD FFF7          	movff	postdec2,tblptrh
  3106   0020D2                     	if	0	;tblptru may be non-zero
  3107   0020D2                     	endif
  3108   0020D2                     	if	0	;tblptru may be non-zero
  3109   0020D2                     	endif
  3110   0020D2  0008               	tblrd		*
  3111   0020D4  50F5               	movf	tablat,w,c
  3112   0020D6  0A2E               	xorlw	46
  3113   0020D8  A4D8               	btfss	status,2,c
  3114   0020DA  EF71  F010         	goto	u8041
  3115   0020DE  EF73  F010         	goto	u8040
  3116   0020E2                     u8041:
  3117   0020E2  EF88  F010         	goto	l6950
  3118   0020E6                     u8040:
  3119   0020E6                     
  3120                           ;C:\Program Files\Microchip\xc8\v2.41\pic\sources\c99\common\doprnt.c: 1127:            
      +                           ++*fmt;
  3121   0020E6  C0E7  FFD9         	movff	vfpfcnvrt@fmt,fsr2l
  3122   0020EA  C0E8  FFDA         	movff	vfpfcnvrt@fmt+1,fsr2h
  3123   0020EE  2ADE               	incf	postinc2,f,c
  3124   0020F0  0E00               	movlw	0
  3125   0020F2  22DD               	addwfc	postdec2,f,c
  3126   0020F4                     
  3127                           ;C:\Program Files\Microchip\xc8\v2.41\pic\sources\c99\common\doprnt.c: 1128:    prec = r
      +                          ead_prec_or_width(fmt, ap);
  3128   0020F4  C0E7  F062         	movff	vfpfcnvrt@fmt,read_prec_or_width@fmt
  3129   0020F8  C0E8  F063         	movff	vfpfcnvrt@fmt+1,read_prec_or_width@fmt+1
  3130   0020FC  C0E9  F064         	movff	vfpfcnvrt@ap,read_prec_or_width@ap
  3131   002100  C0EA  F065         	movff	vfpfcnvrt@ap+1,read_prec_or_width@ap+1
  3132   002104  EC5D  F01E         	call	_read_prec_or_width	;wreg free
  3133   002108  C062  F026         	movff	?_read_prec_or_width,_prec
  3134   00210C  C063  F027         	movff	?_read_prec_or_width+1,_prec+1
  3135   002110                     l6950:
  3136                           
  3137                           ;C:\Program Files\Microchip\xc8\v2.41\pic\sources\c99\common\doprnt.c: 1143:   cp = *fmt
      +                          ;
  3138   002110  C0E7  FFD9         	movff	vfpfcnvrt@fmt,fsr2l
  3139   002114  C0E8  FFDA         	movff	vfpfcnvrt@fmt+1,fsr2h
  3140   002118  CFDE F0F4          	movff	postinc2,vfpfcnvrt@cp
  3141   00211C  CFDD F0F5          	movff	postdec2,vfpfcnvrt@cp+1
  3142   002120                     
  3143                           ;C:\Program Files\Microchip\xc8\v2.41\pic\sources\c99\common\doprnt.c: 1213:   if (*cp =
      +                          = 'd' || *cp == 'i') {
  3144   002120  C0F4  FFF6         	movff	vfpfcnvrt@cp,tblptrl
  3145   002124  C0F5  FFF7         	movff	vfpfcnvrt@cp+1,tblptrh
  3146   002128                     	if	0	;tblptru may be non-zero
  3147   002128                     	endif
  3148   002128                     	if	0	;tblptru may be non-zero
  3149   002128                     	endif
  3150   002128  0008               	tblrd		*
  3151   00212A  50F5               	movf	tablat,w,c
  3152   00212C  0A64               	xorlw	100
  3153   00212E  B4D8               	btfsc	status,2,c
  3154   002130  EF9C  F010         	goto	u8051
  3155   002134  EF9E  F010         	goto	u8050
  3156   002138                     u8051:
  3157   002138  EFAC  F010         	goto	l6956
  3158   00213C                     u8050:
  3159   00213C  C0F4  FFF6         	movff	vfpfcnvrt@cp,tblptrl
  3160   002140  C0F5  FFF7         	movff	vfpfcnvrt@cp+1,tblptrh
  3161   002144                     	if	0	;tblptru may be non-zero
  3162   002144                     	endif
  3163   002144                     	if	0	;tblptru may be non-zero
  3164   002144                     	endif
  3165   002144  0008               	tblrd		*
  3166   002146  50F5               	movf	tablat,w,c
  3167   002148  0A69               	xorlw	105
  3168   00214A  A4D8               	btfss	status,2,c
  3169   00214C  EFAA  F010         	goto	u8061
  3170   002150  EFAC  F010         	goto	u8060
  3171   002154                     u8061:
  3172   002154  EFDB  F010         	goto	l6962
  3173   002158                     u8060:
  3174   002158                     l6956:
  3175                           
  3176                           ;C:\Program Files\Microchip\xc8\v2.41\pic\sources\c99\common\doprnt.c: 1256:    convarg.
      +                          sint = (vfpf_sint_t)(int)(*(int *)__va_arg(*(int **)ap, (int)0));
  3177   002158  C0E9  FFD9         	movff	vfpfcnvrt@ap,fsr2l
  3178   00215C  C0EA  FFDA         	movff	vfpfcnvrt@ap+1,fsr2h
  3179   002160  CFDF F0EB          	movff	indf2,??_vfpfcnvrt
  3180   002164  0E02               	movlw	2
  3181   002166  26DE               	addwf	postinc2,f,c
  3182   002168  CFDF F0EC          	movff	indf2,??_vfpfcnvrt+1
  3183   00216C  0E00               	movlw	0
  3184   00216E  22DD               	addwfc	postdec2,f,c
  3185   002170  C0EB  FFD9         	movff	??_vfpfcnvrt,fsr2l
  3186   002174  C0EC  FFDA         	movff	??_vfpfcnvrt+1,fsr2h
  3187   002178  CFDE F0F0          	movff	postinc2,vfpfcnvrt@convarg
  3188   00217C  CFDD F0F1          	movff	postdec2,vfpfcnvrt@convarg+1
  3189                           
  3190                           ;C:\Program Files\Microchip\xc8\v2.41\pic\sources\c99\common\doprnt.c: 1258:    *fmt = c
      +                          p+1;
  3191   002180  0E01               	movlw	1
  3192   002182  0100               	movlb	0	; () banked
  3193   002184  25F4               	addwf	vfpfcnvrt@cp& (0+255),w,b
  3194   002186  6FEB               	movwf	??_vfpfcnvrt& (0+255),b
  3195   002188  0E00               	movlw	0
  3196   00218A  21F5               	addwfc	(vfpfcnvrt@cp+1)& (0+255),w,b
  3197   00218C  6FEC               	movwf	(??_vfpfcnvrt+1)& (0+255),b
  3198   00218E  C0E7  FFD9         	movff	vfpfcnvrt@fmt,fsr2l
  3199   002192  C0E8  FFDA         	movff	vfpfcnvrt@fmt+1,fsr2h
  3200   002196  C0EB  FFDE         	movff	??_vfpfcnvrt,postinc2
  3201   00219A  C0EC  FFDD         	movff	??_vfpfcnvrt+1,postdec2
  3202   00219E                     
  3203                           ; BSR set to: 0
  3204                           ;C:\Program Files\Microchip\xc8\v2.41\pic\sources\c99\common\doprnt.c: 1259:    return (
      +                          void) dtoa(fp, convarg.sint);;	Return value of _vfpfcnvrt is never used
  3205   00219E  C0E5  F076         	movff	vfpfcnvrt@fp,dtoa@fp
  3206   0021A2  C0E6  F077         	movff	vfpfcnvrt@fp+1,dtoa@fp+1
  3207   0021A6  C0F0  F078         	movff	vfpfcnvrt@convarg,dtoa@d
  3208   0021AA  C0F1  F079         	movff	vfpfcnvrt@convarg+1,dtoa@d+1
  3209   0021AE  EC1F  F019         	call	_dtoa	;wreg free
  3210   0021B2  EF1A  F012         	goto	l1431
  3211   0021B6                     l6962:
  3212   0021B6  C0F4  FFF6         	movff	vfpfcnvrt@cp,tblptrl
  3213   0021BA  C0F5  FFF7         	movff	vfpfcnvrt@cp+1,tblptrh
  3214   0021BE                     	if	0	;tblptru may be non-zero
  3215   0021BE                     	endif
  3216   0021BE                     	if	0	;tblptru may be non-zero
  3217   0021BE                     	endif
  3218   0021BE  0008               	tblrd		*
  3219   0021C0  50F5               	movf	tablat,w,c
  3220   0021C2  0A75               	xorlw	117
  3221   0021C4  A4D8               	btfss	status,2,c
  3222   0021C6  EFE7  F010         	goto	u8071
  3223   0021CA  EFE9  F010         	goto	u8070
  3224   0021CE                     u8071:
  3225   0021CE  EF30  F011         	goto	l6974
  3226   0021D2                     u8070:
  3227   0021D2                     
  3228                           ;C:\Program Files\Microchip\xc8\v2.41\pic\sources\c99\common\doprnt.c: 1278:     ) {;C:\
      +                          Program Files\Microchip\xc8\v2.41\pic\sources\c99\common\doprnt.c: 1321:    convarg.uint
      +                           = (vfpf_uint_t)(unsigned int)(*(unsigned int *)__va_arg(*(unsigned int **)ap, (unsigned
      +                           int)0));
  3229   0021D2  C0E9  FFD9         	movff	vfpfcnvrt@ap,fsr2l
  3230   0021D6  C0EA  FFDA         	movff	vfpfcnvrt@ap+1,fsr2h
  3231   0021DA  CFDF F0EB          	movff	indf2,??_vfpfcnvrt
  3232   0021DE  0E02               	movlw	2
  3233   0021E0  26DE               	addwf	postinc2,f,c
  3234   0021E2  CFDF F0EC          	movff	indf2,??_vfpfcnvrt+1
  3235   0021E6  0E00               	movlw	0
  3236   0021E8  22DD               	addwfc	postdec2,f,c
  3237   0021EA  C0EB  FFD9         	movff	??_vfpfcnvrt,fsr2l
  3238   0021EE  C0EC  FFDA         	movff	??_vfpfcnvrt+1,fsr2h
  3239   0021F2  CFDE F0F0          	movff	postinc2,vfpfcnvrt@convarg
  3240   0021F6  CFDD F0F1          	movff	postdec2,vfpfcnvrt@convarg+1
  3241                           
  3242                           ;C:\Program Files\Microchip\xc8\v2.41\pic\sources\c99\common\doprnt.c: 1323:    *fmt = c
      +                          p+1;
  3243   0021FA  0E01               	movlw	1
  3244   0021FC  0100               	movlb	0	; () banked
  3245   0021FE  25F4               	addwf	vfpfcnvrt@cp& (0+255),w,b
  3246   002200  6FEB               	movwf	??_vfpfcnvrt& (0+255),b
  3247   002202  0E00               	movlw	0
  3248   002204  21F5               	addwfc	(vfpfcnvrt@cp+1)& (0+255),w,b
  3249   002206  6FEC               	movwf	(??_vfpfcnvrt+1)& (0+255),b
  3250   002208  C0E7  FFD9         	movff	vfpfcnvrt@fmt,fsr2l
  3251   00220C  C0E8  FFDA         	movff	vfpfcnvrt@fmt+1,fsr2h
  3252   002210  C0EB  FFDE         	movff	??_vfpfcnvrt,postinc2
  3253   002214  C0EC  FFDD         	movff	??_vfpfcnvrt+1,postdec2
  3254                           
  3255                           ;C:\Program Files\Microchip\xc8\v2.41\pic\sources\c99\common\doprnt.c: 1324:    switch (
      +                          *cp) {
  3256   002218  EF1A  F011         	goto	l6972
  3257   00221C                     l6966:
  3258                           
  3259                           ; BSR set to: 0
  3260                           ;C:\Program Files\Microchip\xc8\v2.41\pic\sources\c99\common\doprnt.c: 1331:      return
      +                           (void) utoa(fp, convarg.uint);;	Return value of _vfpfcnvrt is never used
  3261   00221C  C0E5  F076         	movff	vfpfcnvrt@fp,utoa@fp
  3262   002220  C0E6  F077         	movff	vfpfcnvrt@fp+1,utoa@fp+1
  3263   002224  C0F0  F078         	movff	vfpfcnvrt@convarg,utoa@d
  3264   002228  C0F1  F079         	movff	vfpfcnvrt@convarg+1,utoa@d+1
  3265   00222C  ECE4  F01A         	call	_utoa	;wreg free
  3266   002230  EF1A  F012         	goto	l1431
  3267   002234                     l6972:
  3268                           
  3269                           ; BSR set to: 0
  3270   002234  C0F4  FFF6         	movff	vfpfcnvrt@cp,tblptrl
  3271   002238  C0F5  FFF7         	movff	vfpfcnvrt@cp+1,tblptrh
  3272   00223C                     	if	0	;tblptru may be non-zero
  3273   00223C                     	endif
  3274   00223C                     	if	0	;tblptru may be non-zero
  3275   00223C                     	endif
  3276   00223C  0008               	tblrd		*
  3277   00223E  50F5               	movf	tablat,w,c
  3278   002240  6FEB               	movwf	??_vfpfcnvrt& (0+255),b
  3279   002242  6BEC               	clrf	(??_vfpfcnvrt+1)& (0+255),b
  3280                           
  3281                           ; Switch on 2 bytes has been partitioned into a top level switch of size 1, and 1 sub-sw
      +                          itches
  3282                           ; Switch size 1, requested type "simple"
  3283                           ; Number of cases is 1, Range of values is 0 to 0
  3284                           ; switch strategies available:
  3285                           ; Name         Instructions Cycles
  3286                           ; simple_byte            4     3 (average)
  3287                           ;	Chosen strategy is simple_byte
  3288   002244  51EC               	movf	(??_vfpfcnvrt+1)& (0+255),w,b
  3289   002246  0A00               	xorlw	0	; case 0
  3290   002248  B4D8               	btfsc	status,2,c
  3291   00224A  EF29  F011         	goto	l7550
  3292   00224E  EF30  F011         	goto	l6974
  3293   002252                     l7550:
  3294                           
  3295                           ; BSR set to: 0
  3296                           ; Switch size 1, requested type "simple"
  3297                           ; Number of cases is 1, Range of values is 117 to 117
  3298                           ; switch strategies available:
  3299                           ; Name         Instructions Cycles
  3300                           ; simple_byte            4     3 (average)
  3301                           ;	Chosen strategy is simple_byte
  3302   002252  51EB               	movf	??_vfpfcnvrt& (0+255),w,b
  3303   002254  0A75               	xorlw	117	; case 117
  3304   002256  B4D8               	btfsc	status,2,c
  3305   002258  EF0E  F011         	goto	l6966
  3306   00225C  EF30  F011         	goto	l6974
  3307   002260                     l6974:
  3308                           
  3309                           ;C:\Program Files\Microchip\xc8\v2.41\pic\sources\c99\common\doprnt.c: 1418:   cp = *fmt
      +                          ;
  3310   002260  C0E7  FFD9         	movff	vfpfcnvrt@fmt,fsr2l
  3311   002264  C0E8  FFDA         	movff	vfpfcnvrt@fmt+1,fsr2h
  3312   002268  CFDE F0F4          	movff	postinc2,vfpfcnvrt@cp
  3313   00226C  CFDD F0F5          	movff	postdec2,vfpfcnvrt@cp+1
  3314   002270                     
  3315                           ;C:\Program Files\Microchip\xc8\v2.41\pic\sources\c99\common\doprnt.c: 1419:   c = *cp;
  3316   002270  C0F4  FFF6         	movff	vfpfcnvrt@cp,tblptrl
  3317   002274  C0F5  FFF7         	movff	vfpfcnvrt@cp+1,tblptrh
  3318   002278                     	if	0	;tblptru may be non-zero
  3319   002278                     	endif
  3320   002278                     	if	0	;tblptru may be non-zero
  3321   002278                     	endif
  3322   002278  0008               	tblrd		*
  3323   00227A  CFF5 F0EF          	movff	tablat,vfpfcnvrt@c
  3324                           
  3325                           ;C:\Program Files\Microchip\xc8\v2.41\pic\sources\c99\common\doprnt.c: 1420:   switch(c)
      +                           {
  3326   00227E  EF4D  F011         	goto	l6986
  3327   002282                     l6978:
  3328                           
  3329                           ; BSR set to: 0
  3330                           ;C:\Program Files\Microchip\xc8\v2.41\pic\sources\c99\common\doprnt.c: 1424:     cp++;
  3331   002282  4BF4               	infsnz	vfpfcnvrt@cp& (0+255),f,b
  3332   002284  2BF5               	incf	(vfpfcnvrt@cp+1)& (0+255),f,b
  3333                           
  3334                           ;C:\Program Files\Microchip\xc8\v2.41\pic\sources\c99\common\doprnt.c: 1425:     break;
  3335   002286  EF67  F011         	goto	l6988
  3336   00228A                     l6980:
  3337                           
  3338                           ; BSR set to: 0
  3339                           ;C:\Program Files\Microchip\xc8\v2.41\pic\sources\c99\common\doprnt.c: 1450:     c = 'l'
      +                          ;
  3340   00228A  0E6C               	movlw	108
  3341   00228C  6FEF               	movwf	vfpfcnvrt@c& (0+255),b
  3342                           
  3343                           ;C:\Program Files\Microchip\xc8\v2.41\pic\sources\c99\common\doprnt.c: 1451:     break;
  3344   00228E  EF67  F011         	goto	l6988
  3345   002292                     l6982:
  3346                           
  3347                           ; BSR set to: 0
  3348                           ;C:\Program Files\Microchip\xc8\v2.41\pic\sources\c99\common\doprnt.c: 1453:     c = 0;
  3349   002292  0E00               	movlw	0
  3350   002294  6FEF               	movwf	vfpfcnvrt@c& (0+255),b
  3351                           
  3352                           ;C:\Program Files\Microchip\xc8\v2.41\pic\sources\c99\common\doprnt.c: 1454:     break;
  3353   002296  EF67  F011         	goto	l6988
  3354   00229A                     l6986:
  3355   00229A  0100               	movlb	0	; () banked
  3356   00229C  51EF               	movf	vfpfcnvrt@c& (0+255),w,b
  3357   00229E  6FEB               	movwf	??_vfpfcnvrt& (0+255),b
  3358   0022A0  6BEC               	clrf	(??_vfpfcnvrt+1)& (0+255),b
  3359                           
  3360                           ; Switch on 2 bytes has been partitioned into a top level switch of size 1, and 1 sub-sw
      +                          itches
  3361                           ; Switch size 1, requested type "simple"
  3362                           ; Number of cases is 1, Range of values is 0 to 0
  3363                           ; switch strategies available:
  3364                           ; Name         Instructions Cycles
  3365                           ; simple_byte            4     3 (average)
  3366                           ;	Chosen strategy is simple_byte
  3367   0022A2  51EC               	movf	(??_vfpfcnvrt+1)& (0+255),w,b
  3368   0022A4  0A00               	xorlw	0	; case 0
  3369   0022A6  B4D8               	btfsc	status,2,c
  3370   0022A8  EF58  F011         	goto	l7552
  3371   0022AC  EF49  F011         	goto	l6982
  3372   0022B0                     l7552:
  3373                           
  3374                           ; BSR set to: 0
  3375                           ; Switch size 1, requested type "simple"
  3376                           ; Number of cases is 3, Range of values is 76 to 108
  3377                           ; switch strategies available:
  3378                           ; Name         Instructions Cycles
  3379                           ; simple_byte           10     6 (average)
  3380                           ;	Chosen strategy is simple_byte
  3381   0022B0  51EB               	movf	??_vfpfcnvrt& (0+255),w,b
  3382   0022B2  0A4C               	xorlw	76	; case 76
  3383   0022B4  B4D8               	btfsc	status,2,c
  3384   0022B6  EF41  F011         	goto	l6978
  3385   0022BA  0A2A               	xorlw	42	; case 102
  3386   0022BC  B4D8               	btfsc	status,2,c
  3387   0022BE  EF45  F011         	goto	l6980
  3388   0022C2  0A0A               	xorlw	10	; case 108
  3389   0022C4  B4D8               	btfsc	status,2,c
  3390   0022C6  EF41  F011         	goto	l6978
  3391   0022CA  EF49  F011         	goto	l6982
  3392   0022CE                     l6988:
  3393                           
  3394                           ; BSR set to: 0
  3395   0022CE  C0F4  FFF6         	movff	vfpfcnvrt@cp,tblptrl
  3396   0022D2  C0F5  FFF7         	movff	vfpfcnvrt@cp+1,tblptrh
  3397   0022D6                     	if	0	;tblptru may be non-zero
  3398   0022D6                     	endif
  3399   0022D6                     	if	0	;tblptru may be non-zero
  3400   0022D6                     	endif
  3401   0022D6  0008               	tblrd		*
  3402   0022D8  50F5               	movf	tablat,w,c
  3403   0022DA  0A66               	xorlw	102
  3404   0022DC  A4D8               	btfss	status,2,c
  3405   0022DE  EF73  F011         	goto	u8081
  3406   0022E2  EF75  F011         	goto	u8080
  3407   0022E6                     u8081:
  3408   0022E6  EFFD  F011         	goto	l7008
  3409   0022EA                     u8080:
  3410   0022EA  EFAB  F011         	goto	l6996
  3411   0022EE                     l6990:
  3412                           
  3413                           ; BSR set to: 0
  3414                           ;C:\Program Files\Microchip\xc8\v2.41\pic\sources\c99\common\doprnt.c: 1485:      convar
      +                          g.f = (long double)(*(double *)__va_arg(*(double **)ap, (double)0));
  3415   0022EE  C0E9  FFD9         	movff	vfpfcnvrt@ap,fsr2l
  3416   0022F2  C0EA  FFDA         	movff	vfpfcnvrt@ap+1,fsr2h
  3417   0022F6  CFDF F0EB          	movff	indf2,??_vfpfcnvrt
  3418   0022FA  0E04               	movlw	4
  3419   0022FC  26DE               	addwf	postinc2,f,c
  3420   0022FE  CFDF F0EC          	movff	indf2,??_vfpfcnvrt+1
  3421   002302  0E00               	movlw	0
  3422   002304  22DD               	addwfc	postdec2,f,c
  3423   002306  C0EB  FFD9         	movff	??_vfpfcnvrt,fsr2l
  3424   00230A  C0EC  FFDA         	movff	??_vfpfcnvrt+1,fsr2h
  3425   00230E  CFDE F0F0          	movff	postinc2,vfpfcnvrt@convarg
  3426   002312  CFDE F0F1          	movff	postinc2,vfpfcnvrt@convarg+1
  3427   002316  CFDE F0F2          	movff	postinc2,vfpfcnvrt@convarg+2
  3428   00231A  CFDE F0F3          	movff	postinc2,vfpfcnvrt@convarg+3
  3429                           
  3430                           ;C:\Program Files\Microchip\xc8\v2.41\pic\sources\c99\common\doprnt.c: 1486:      break;
  3431   00231E  EFC0  F011         	goto	l6998
  3432   002322                     l6992:
  3433                           
  3434                           ; BSR set to: 0
  3435                           ;C:\Program Files\Microchip\xc8\v2.41\pic\sources\c99\common\doprnt.c: 1488:      convar
      +                          g.f = (long double)(*(long double *)__va_arg(*(long double **)ap, (long double)0));
  3436   002322  C0E9  FFD9         	movff	vfpfcnvrt@ap,fsr2l
  3437   002326  C0EA  FFDA         	movff	vfpfcnvrt@ap+1,fsr2h
  3438   00232A  CFDF F0EB          	movff	indf2,??_vfpfcnvrt
  3439   00232E  0E04               	movlw	4
  3440   002330  26DE               	addwf	postinc2,f,c
  3441   002332  CFDF F0EC          	movff	indf2,??_vfpfcnvrt+1
  3442   002336  0E00               	movlw	0
  3443   002338  22DD               	addwfc	postdec2,f,c
  3444   00233A  C0EB  FFD9         	movff	??_vfpfcnvrt,fsr2l
  3445   00233E  C0EC  FFDA         	movff	??_vfpfcnvrt+1,fsr2h
  3446   002342  CFDE F0F0          	movff	postinc2,vfpfcnvrt@convarg
  3447   002346  CFDE F0F1          	movff	postinc2,vfpfcnvrt@convarg+1
  3448   00234A  CFDE F0F2          	movff	postinc2,vfpfcnvrt@convarg+2
  3449   00234E  CFDE F0F3          	movff	postinc2,vfpfcnvrt@convarg+3
  3450                           
  3451                           ;C:\Program Files\Microchip\xc8\v2.41\pic\sources\c99\common\doprnt.c: 1489:      break;
  3452   002352  EFC0  F011         	goto	l6998
  3453   002356                     l6996:
  3454                           
  3455                           ; BSR set to: 0
  3456   002356  51EF               	movf	vfpfcnvrt@c& (0+255),w,b
  3457   002358  6FEB               	movwf	??_vfpfcnvrt& (0+255),b
  3458   00235A  6BEC               	clrf	(??_vfpfcnvrt+1)& (0+255),b
  3459                           
  3460                           ; Switch on 2 bytes has been partitioned into a top level switch of size 1, and 1 sub-sw
      +                          itches
  3461                           ; Switch size 1, requested type "simple"
  3462                           ; Number of cases is 1, Range of values is 0 to 0
  3463                           ; switch strategies available:
  3464                           ; Name         Instructions Cycles
  3465                           ; simple_byte            4     3 (average)
  3466                           ;	Chosen strategy is simple_byte
  3467   00235C  51EC               	movf	(??_vfpfcnvrt+1)& (0+255),w,b
  3468   00235E  0A00               	xorlw	0	; case 0
  3469   002360  B4D8               	btfsc	status,2,c
  3470   002362  EFB5  F011         	goto	l7554
  3471   002366  EFC0  F011         	goto	l6998
  3472   00236A                     l7554:
  3473                           
  3474                           ; BSR set to: 0
  3475                           ; Switch size 1, requested type "simple"
  3476                           ; Number of cases is 2, Range of values is 76 to 108
  3477                           ; switch strategies available:
  3478                           ; Name         Instructions Cycles
  3479                           ; simple_byte            7     4 (average)
  3480                           ;	Chosen strategy is simple_byte
  3481   00236A  51EB               	movf	??_vfpfcnvrt& (0+255),w,b
  3482   00236C  0A4C               	xorlw	76	; case 76
  3483   00236E  B4D8               	btfsc	status,2,c
  3484   002370  EF91  F011         	goto	l6992
  3485   002374  0A20               	xorlw	32	; case 108
  3486   002376  B4D8               	btfsc	status,2,c
  3487   002378  EF77  F011         	goto	l6990
  3488   00237C  EFC0  F011         	goto	l6998
  3489   002380                     l6998:
  3490                           
  3491                           ; BSR set to: 0
  3492                           ;C:\Program Files\Microchip\xc8\v2.41\pic\sources\c99\common\doprnt.c: 1491:    *fmt = c
      +                          p+1;
  3493   002380  0E01               	movlw	1
  3494   002382  25F4               	addwf	vfpfcnvrt@cp& (0+255),w,b
  3495   002384  6FEB               	movwf	??_vfpfcnvrt& (0+255),b
  3496   002386  0E00               	movlw	0
  3497   002388  21F5               	addwfc	(vfpfcnvrt@cp+1)& (0+255),w,b
  3498   00238A  6FEC               	movwf	(??_vfpfcnvrt+1)& (0+255),b
  3499   00238C  C0E7  FFD9         	movff	vfpfcnvrt@fmt,fsr2l
  3500   002390  C0E8  FFDA         	movff	vfpfcnvrt@fmt+1,fsr2h
  3501   002394  C0EB  FFDE         	movff	??_vfpfcnvrt,postinc2
  3502   002398  C0EC  FFDD         	movff	??_vfpfcnvrt+1,postdec2
  3503                           
  3504                           ;C:\Program Files\Microchip\xc8\v2.41\pic\sources\c99\common\doprnt.c: 1492:    switch (
      +                          *cp) {
  3505   00239C  EFE7  F011         	goto	l7006
  3506   0023A0                     l7000:
  3507                           
  3508                           ; BSR set to: 0
  3509                           ;C:\Program Files\Microchip\xc8\v2.41\pic\sources\c99\common\doprnt.c: 1519:      return
      +                           (void) efgtoa(fp, convarg.f, *cp);;	Return value of _vfpfcnvrt is never used
  3510   0023A0  C0E5  F0B0         	movff	vfpfcnvrt@fp,efgtoa@fp
  3511   0023A4  C0E6  F0B1         	movff	vfpfcnvrt@fp+1,efgtoa@fp+1
  3512   0023A8  C0F0  F0B2         	movff	vfpfcnvrt@convarg,efgtoa@f
  3513   0023AC  C0F1  F0B3         	movff	vfpfcnvrt@convarg+1,efgtoa@f+1
  3514   0023B0  C0F2  F0B4         	movff	vfpfcnvrt@convarg+2,efgtoa@f+2
  3515   0023B4  C0F3  F0B5         	movff	vfpfcnvrt@convarg+3,efgtoa@f+3
  3516   0023B8  C0F4  FFF6         	movff	vfpfcnvrt@cp,tblptrl
  3517   0023BC  C0F5  FFF7         	movff	vfpfcnvrt@cp+1,tblptrh
  3518   0023C0                     	if	0	;tblptru may be non-zero
  3519   0023C0                     	endif
  3520   0023C0                     	if	0	;tblptru may be non-zero
  3521   0023C0                     	endif
  3522   0023C0  0008               	tblrd		*
  3523   0023C2  CFF5 F0B6          	movff	tablat,efgtoa@c
  3524   0023C6  EC22  F004         	call	_efgtoa	;wreg free
  3525   0023CA  EF1A  F012         	goto	l1431
  3526   0023CE                     l7006:
  3527                           
  3528                           ; BSR set to: 0
  3529   0023CE  C0F4  FFF6         	movff	vfpfcnvrt@cp,tblptrl
  3530   0023D2  C0F5  FFF7         	movff	vfpfcnvrt@cp+1,tblptrh
  3531   0023D6                     	if	0	;tblptru may be non-zero
  3532   0023D6                     	endif
  3533   0023D6                     	if	0	;tblptru may be non-zero
  3534   0023D6                     	endif
  3535   0023D6  0008               	tblrd		*
  3536   0023D8  50F5               	movf	tablat,w,c
  3537   0023DA  6FEB               	movwf	??_vfpfcnvrt& (0+255),b
  3538   0023DC  6BEC               	clrf	(??_vfpfcnvrt+1)& (0+255),b
  3539                           
  3540                           ; Switch on 2 bytes has been partitioned into a top level switch of size 1, and 1 sub-sw
      +                          itches
  3541                           ; Switch size 1, requested type "simple"
  3542                           ; Number of cases is 1, Range of values is 0 to 0
  3543                           ; switch strategies available:
  3544                           ; Name         Instructions Cycles
  3545                           ; simple_byte            4     3 (average)
  3546                           ;	Chosen strategy is simple_byte
  3547   0023DE  51EC               	movf	(??_vfpfcnvrt+1)& (0+255),w,b
  3548   0023E0  0A00               	xorlw	0	; case 0
  3549   0023E2  B4D8               	btfsc	status,2,c
  3550   0023E4  EFF6  F011         	goto	l7556
  3551   0023E8  EFFD  F011         	goto	l7008
  3552   0023EC                     l7556:
  3553                           
  3554                           ; BSR set to: 0
  3555                           ; Switch size 1, requested type "simple"
  3556                           ; Number of cases is 1, Range of values is 102 to 102
  3557                           ; switch strategies available:
  3558                           ; Name         Instructions Cycles
  3559                           ; simple_byte            4     3 (average)
  3560                           ;	Chosen strategy is simple_byte
  3561   0023EC  51EB               	movf	??_vfpfcnvrt& (0+255),w,b
  3562   0023EE  0A66               	xorlw	102	; case 102
  3563   0023F0  B4D8               	btfsc	status,2,c
  3564   0023F2  EFD0  F011         	goto	l7000
  3565   0023F6  EFFD  F011         	goto	l7008
  3566   0023FA                     l7008:
  3567                           
  3568                           ;C:\Program Files\Microchip\xc8\v2.41\pic\sources\c99\common\doprnt.c: 1535:         ++*
      +                          fmt;
  3569   0023FA  C0E7  FFD9         	movff	vfpfcnvrt@fmt,fsr2l
  3570   0023FE  C0E8  FFDA         	movff	vfpfcnvrt@fmt+1,fsr2h
  3571   002402  2ADE               	incf	postinc2,f,c
  3572   002404  0E00               	movlw	0
  3573   002406  22DD               	addwfc	postdec2,f,c
  3574   002408  EF1A  F012         	goto	l1431
  3575   00240C                     l7012:
  3576                           
  3577                           ;C:\Program Files\Microchip\xc8\v2.41\pic\sources\c99\common\doprnt.c: 1540:     fputc((
      +                          int)(*fmt)[0], fp);
  3578   00240C  C0E7  FFD9         	movff	vfpfcnvrt@fmt,fsr2l
  3579   002410  C0E8  FFDA         	movff	vfpfcnvrt@fmt+1,fsr2h
  3580   002414  CFDE FFF6          	movff	postinc2,tblptrl
  3581   002418  CFDD FFF7          	movff	postdec2,tblptrh
  3582   00241C                     	if	0	;tblptru may be non-zero
  3583   00241C                     	endif
  3584   00241C                     	if	0	;tblptru may be non-zero
  3585   00241C                     	endif
  3586   00241C  0008               	tblrd		*
  3587   00241E  50F5               	movf	tablat,w,c
  3588   002420  6E1F               	movwf	fputc@c^0,c
  3589   002422  6A20               	clrf	(fputc@c+1)^0,c
  3590   002424  C0E5  F021         	movff	vfpfcnvrt@fp,fputc@fp
  3591   002428  C0E6  F022         	movff	vfpfcnvrt@fp+1,fputc@fp+1
  3592   00242C  ECF6  F01D         	call	_fputc	;wreg free
  3593   002430  EFFD  F011         	goto	l7008
  3594   002434                     l1431:
  3595   002434  0012               	return		;funcret
  3596   002436                     __end_of_vfpfcnvrt:
  3597                           	callstack 0
  3598                           
  3599 ;; *************** function _utoa *****************
  3600 ;; Defined at:
  3601 ;;		line 917 in file "C:\Program Files\Microchip\xc8\v2.41\pic\sources\c99\common\doprnt.c"
  3602 ;; Parameters:    Size  Location     Type
  3603 ;;  fp              2   22[BANK0 ] PTR struct _IO_FILE
  3604 ;;		 -> sprintf@f(12), 
  3605 ;;  d               2   24[BANK0 ] unsigned int 
  3606 ;; Auto vars:     Size  Location     Type
  3607 ;;  i               2   30[BANK0 ] int 
  3608 ;;  w               2   28[BANK0 ] int 
  3609 ;;  p               2   26[BANK0 ] int 
  3610 ;; Return value:  Size  Location     Type
  3611 ;;                  1    wreg      void 
  3612 ;; Registers used:
  3613 ;;		wreg, fsr1l, fsr1h, fsr2l, fsr2h, status,2, status,0, cstack
  3614 ;; Tracked objects:
  3615 ;;		On entry : 0/0
  3616 ;;		On exit  : 0/0
  3617 ;;		Unchanged: 0/0
  3618 ;; Data sizes:     COMRAM   BANK0   BANK1   BANK2   BANK3   BANK4   BANK5   BANK6   BANK7
  3619 ;;      Params:         0       4       0       0       0       0       0       0       0
  3620 ;;      Locals:         0       6       0       0       0       0       0       0       0
  3621 ;;      Temps:          0       0       0       0       0       0       0       0       0
  3622 ;;      Totals:         0      10       0       0       0       0       0       0       0
  3623 ;;Total ram usage:       10 bytes
  3624 ;; Hardware stack levels used: 1
  3625 ;; Hardware stack levels required when called: 8
  3626 ;; This function calls:
  3627 ;;		___lwdiv
  3628 ;;		___lwmod
  3629 ;;		_pad
  3630 ;; This function is called by:
  3631 ;;		_vfpfcnvrt
  3632 ;; This function uses a non-reentrant model
  3633 ;;
  3634                           
  3635                           	psect	text4
  3636   0035C8                     __ptext4:
  3637                           	callstack 0
  3638   0035C8                     _utoa:
  3639                           	callstack 19
  3640   0035C8                     
  3641                           ;C:\Program Files\Microchip\xc8\v2.41\pic\sources\c99\common\doprnt.c: 917: static void 
      +                          utoa(FILE *fp, vfpf_uint_t d);C:\Program Files\Microchip\xc8\v2.41\pic\sources\c99\commo
      +                          n\doprnt.c: 918: {;C:\Program Files\Microchip\xc8\v2.41\pic\sources\c99\common\doprnt.c:
      +                           919:     int i, p, w;;C:\Program Files\Microchip\xc8\v2.41\pic\sources\c99\common\doprn
      +                          t.c: 923:     if (!(prec < 0)) {
  3642   0035C8  BE27               	btfsc	(_prec+1)^0,7,c
  3643   0035CA  EFE9  F01A         	goto	u7921
  3644   0035CE  EFEB  F01A         	goto	u7920
  3645   0035D2                     u7921:
  3646   0035D2  EFEC  F01A         	goto	l6872
  3647   0035D6                     u7920:
  3648   0035D6                     
  3649                           ;C:\Program Files\Microchip\xc8\v2.41\pic\sources\c99\common\doprnt.c: 924:         flag
      +                          s &= ~(1 << 1);
  3650   0035D6  9236               	bcf	_flags^0,1,c
  3651   0035D8                     l6872:
  3652                           
  3653                           ;C:\Program Files\Microchip\xc8\v2.41\pic\sources\c99\common\doprnt.c: 927:     p = (0 <
      +                          = prec) ? prec : 1;
  3654   0035D8  BE27               	btfsc	(_prec+1)^0,7,c
  3655   0035DA  EFF3  F01A         	goto	u7930
  3656   0035DE  EFF1  F01A         	goto	u7931
  3657   0035E2                     u7931:
  3658   0035E2  EFFA  F01A         	goto	l1397
  3659   0035E6                     u7930:
  3660   0035E6  0E00               	movlw	0
  3661   0035E8  0100               	movlb	0	; () banked
  3662   0035EA  6F7B               	movwf	(utoa@p+1)& (0+255),b
  3663   0035EC  0E01               	movlw	1
  3664   0035EE  6F7A               	movwf	utoa@p& (0+255),b
  3665   0035F0  EFFE  F01A         	goto	l1399
  3666   0035F4                     l1397:
  3667   0035F4  C026  F07A         	movff	_prec,utoa@p
  3668   0035F8  C027  F07B         	movff	_prec+1,utoa@p+1
  3669   0035FC                     l1399:
  3670                           
  3671                           ;C:\Program Files\Microchip\xc8\v2.41\pic\sources\c99\common\doprnt.c: 928:     w = widt
      +                          h;
  3672   0035FC  C024  F07C         	movff	_width,utoa@w
  3673   003600  C025  F07D         	movff	_width+1,utoa@w+1
  3674   003604                     
  3675                           ;C:\Program Files\Microchip\xc8\v2.41\pic\sources\c99\common\doprnt.c: 931:     i = size
      +                          of(dbuf) - 1;
  3676   003604  0E00               	movlw	0
  3677   003606  0100               	movlb	0	; () banked
  3678   003608  6F7F               	movwf	(utoa@i+1)& (0+255),b
  3679   00360A  0E4F               	movlw	79
  3680   00360C  6F7E               	movwf	utoa@i& (0+255),b
  3681   00360E                     
  3682                           ; BSR set to: 0
  3683                           ;C:\Program Files\Microchip\xc8\v2.41\pic\sources\c99\common\doprnt.c: 932:     dbuf[i] 
      +                          = '\0';
  3684   00360E  0E00               	movlw	0
  3685   003610  0101               	movlb	1	; () banked
  3686   003612  6FC7               	movwf	(_dbuf+79)& (0+255),b
  3687                           
  3688                           ;C:\Program Files\Microchip\xc8\v2.41\pic\sources\c99\common\doprnt.c: 933:     while (i
      +                           && (d || (0 < p)
  3689   003614  EF37  F01B         	goto	l6890
  3690   003618                     l6880:
  3691                           
  3692                           ; BSR set to: 0
  3693                           ;C:\Program Files\Microchip\xc8\v2.41\pic\sources\c99\common\doprnt.c: 937:     )) {;C:\
      +                          Program Files\Microchip\xc8\v2.41\pic\sources\c99\common\doprnt.c: 938:         --i;
  3694   003618  077E               	decf	utoa@i& (0+255),f,b
  3695   00361A  A0D8               	btfss	status,0,c
  3696   00361C  077F               	decf	(utoa@i+1)& (0+255),f,b
  3697   00361E                     
  3698                           ; BSR set to: 0
  3699                           ;C:\Program Files\Microchip\xc8\v2.41\pic\sources\c99\common\doprnt.c: 939:         dbuf
      +                          [i] = '0' + (d % 10);
  3700   00361E  0E78               	movlw	low _dbuf
  3701   003620  257E               	addwf	utoa@i& (0+255),w,b
  3702   003622  6ED9               	movwf	fsr2l,c
  3703   003624  0E01               	movlw	high _dbuf
  3704   003626  217F               	addwfc	(utoa@i+1)& (0+255),w,b
  3705   003628  6EDA               	movwf	fsr2h,c
  3706   00362A  C078  F01F         	movff	utoa@d,___lwmod@dividend
  3707   00362E  C079  F020         	movff	utoa@d+1,___lwmod@dividend+1
  3708   003632  0E00               	movlw	0
  3709   003634  6E22               	movwf	(___lwmod@divisor+1)^0,c
  3710   003636  0E0A               	movlw	10
  3711   003638  6E21               	movwf	___lwmod@divisor^0,c
  3712   00363A  ECBB  F021         	call	___lwmod	;wreg free
  3713   00363E  501F               	movf	?___lwmod^0,w,c
  3714   003640  0F30               	addlw	48
  3715   003642  6EDF               	movwf	indf2,c
  3716   003644                     
  3717                           ;C:\Program Files\Microchip\xc8\v2.41\pic\sources\c99\common\doprnt.c: 940:         --p;
  3718   003644  0100               	movlb	0	; () banked
  3719   003646  077A               	decf	utoa@p& (0+255),f,b
  3720   003648  A0D8               	btfss	status,0,c
  3721   00364A  077B               	decf	(utoa@p+1)& (0+255),f,b
  3722   00364C                     
  3723                           ; BSR set to: 0
  3724                           ;C:\Program Files\Microchip\xc8\v2.41\pic\sources\c99\common\doprnt.c: 941:         --w;
  3725   00364C  077C               	decf	utoa@w& (0+255),f,b
  3726   00364E  A0D8               	btfss	status,0,c
  3727   003650  077D               	decf	(utoa@w+1)& (0+255),f,b
  3728   003652                     
  3729                           ; BSR set to: 0
  3730                           ;C:\Program Files\Microchip\xc8\v2.41\pic\sources\c99\common\doprnt.c: 942:         d = 
      +                          d / 10;
  3731   003652  C078  F01F         	movff	utoa@d,___lwdiv@dividend
  3732   003656  C079  F020         	movff	utoa@d+1,___lwdiv@dividend+1
  3733   00365A  0E00               	movlw	0
  3734   00365C  6E22               	movwf	(___lwdiv@divisor+1)^0,c
  3735   00365E  0E0A               	movlw	10
  3736   003660  6E21               	movwf	___lwdiv@divisor^0,c
  3737   003662  EC16  F021         	call	___lwdiv	;wreg free
  3738   003666  C01F  F078         	movff	?___lwdiv,utoa@d
  3739   00366A  C020  F079         	movff	?___lwdiv+1,utoa@d+1
  3740   00366E                     l6890:
  3741                           
  3742                           ;C:\Program Files\Microchip\xc8\v2.41\pic\sources\c99\common\doprnt.c: 933:     while (i
      +                           && (d || (0 < p)
  3743   00366E  0100               	movlb	0	; () banked
  3744   003670  517E               	movf	utoa@i& (0+255),w,b
  3745   003672  117F               	iorwf	(utoa@i+1)& (0+255),w,b
  3746   003674  B4D8               	btfsc	status,2,c
  3747   003676  EF3F  F01B         	goto	u7941
  3748   00367A  EF41  F01B         	goto	u7940
  3749   00367E                     u7941:
  3750   00367E  EF6B  F01B         	goto	l6900
  3751   003682                     u7940:
  3752   003682                     
  3753                           ; BSR set to: 0
  3754   003682  5178               	movf	utoa@d& (0+255),w,b
  3755   003684  1179               	iorwf	(utoa@d+1)& (0+255),w,b
  3756   003686  A4D8               	btfss	status,2,c
  3757   003688  EF48  F01B         	goto	u7951
  3758   00368C  EF4A  F01B         	goto	u7950
  3759   003690                     u7951:
  3760   003690  EF0C  F01B         	goto	l6880
  3761   003694                     u7950:
  3762   003694                     
  3763                           ; BSR set to: 0
  3764   003694  BF7B               	btfsc	(utoa@p+1)& (0+255),7,b
  3765   003696  EF57  F01B         	goto	u7960
  3766   00369A  517B               	movf	(utoa@p+1)& (0+255),w,b
  3767   00369C  E106               	bnz	u7961
  3768   00369E  057A               	decf	utoa@p& (0+255),w,b
  3769   0036A0  B0D8               	btfsc	status,0,c
  3770   0036A2  EF55  F01B         	goto	u7961
  3771   0036A6  EF57  F01B         	goto	u7960
  3772   0036AA                     u7961:
  3773   0036AA  EF0C  F01B         	goto	l6880
  3774   0036AE                     u7960:
  3775   0036AE                     
  3776                           ; BSR set to: 0
  3777   0036AE  BF7D               	btfsc	(utoa@w+1)& (0+255),7,b
  3778   0036B0  EF62  F01B         	goto	u7971
  3779   0036B4  517D               	movf	(utoa@w+1)& (0+255),w,b
  3780   0036B6  E108               	bnz	u7970
  3781   0036B8  057C               	decf	utoa@w& (0+255),w,b
  3782   0036BA  A0D8               	btfss	status,0,c
  3783   0036BC  EF62  F01B         	goto	u7971
  3784   0036C0  EF64  F01B         	goto	u7970
  3785   0036C4                     u7971:
  3786   0036C4  EF6B  F01B         	goto	l6900
  3787   0036C8                     u7970:
  3788   0036C8                     
  3789                           ; BSR set to: 0
  3790   0036C8  B236               	btfsc	_flags^0,1,c
  3791   0036CA  EF69  F01B         	goto	u7981
  3792   0036CE  EF6B  F01B         	goto	u7980
  3793   0036D2                     u7981:
  3794   0036D2  EF0C  F01B         	goto	l6880
  3795   0036D6                     u7980:
  3796   0036D6                     l6900:
  3797                           
  3798                           ; BSR set to: 0
  3799                           ;C:\Program Files\Microchip\xc8\v2.41\pic\sources\c99\common\doprnt.c: 946:     return (
      +                          void) pad(fp, &dbuf[i], w);
  3800   0036D6  C076  F06C         	movff	utoa@fp,pad@fp
  3801   0036DA  C077  F06D         	movff	utoa@fp+1,pad@fp+1
  3802   0036DE  0E78               	movlw	low _dbuf
  3803   0036E0  257E               	addwf	utoa@i& (0+255),w,b
  3804   0036E2  6F6E               	movwf	pad@buf& (0+255),b
  3805   0036E4  0E01               	movlw	high _dbuf
  3806   0036E6  217F               	addwfc	(utoa@i+1)& (0+255),w,b
  3807   0036E8  6F6F               	movwf	(pad@buf+1)& (0+255),b
  3808   0036EA  C07C  F070         	movff	utoa@w,pad@p
  3809   0036EE  C07D  F071         	movff	utoa@w+1,pad@p+1
  3810   0036F2  ECD8  F01F         	call	_pad	;wreg free
  3811   0036F6  0012               	return		;funcret
  3812   0036F8                     __end_of_utoa:
  3813                           	callstack 0
  3814                           
  3815 ;; *************** function ___lwmod *****************
  3816 ;; Defined at:
  3817 ;;		line 7 in file "C:\Program Files\Microchip\xc8\v2.41\pic\sources\c99\common\lwmod.c"
  3818 ;; Parameters:    Size  Location     Type
  3819 ;;  dividend        2   30[COMRAM] unsigned int 
  3820 ;;  divisor         2   32[COMRAM] unsigned int 
  3821 ;; Auto vars:     Size  Location     Type
  3822 ;;  counter         1   34[COMRAM] unsigned char 
  3823 ;; Return value:  Size  Location     Type
  3824 ;;                  2   30[COMRAM] unsigned int 
  3825 ;; Registers used:
  3826 ;;		wreg, status,2, status,0
  3827 ;; Tracked objects:
  3828 ;;		On entry : 0/0
  3829 ;;		On exit  : 0/0
  3830 ;;		Unchanged: 0/0
  3831 ;; Data sizes:     COMRAM   BANK0   BANK1   BANK2   BANK3   BANK4   BANK5   BANK6   BANK7
  3832 ;;      Params:         4       0       0       0       0       0       0       0       0
  3833 ;;      Locals:         1       0       0       0       0       0       0       0       0
  3834 ;;      Temps:          0       0       0       0       0       0       0       0       0
  3835 ;;      Totals:         5       0       0       0       0       0       0       0       0
  3836 ;;Total ram usage:        5 bytes
  3837 ;; Hardware stack levels used: 1
  3838 ;; Hardware stack levels required when called: 4
  3839 ;; This function calls:
  3840 ;;		Nothing
  3841 ;; This function is called by:
  3842 ;;		_utoa
  3843 ;; This function uses a non-reentrant model
  3844 ;;
  3845                           
  3846                           	psect	text5
  3847   004376                     __ptext5:
  3848                           	callstack 0
  3849   004376                     ___lwmod:
  3850                           	callstack 22
  3851   004376  5021               	movf	___lwmod@divisor^0,w,c
  3852   004378  1022               	iorwf	(___lwmod@divisor+1)^0,w,c
  3853   00437A  B4D8               	btfsc	status,2,c
  3854   00437C  EFC2  F021         	goto	u4291
  3855   004380  EFC4  F021         	goto	u4290
  3856   004384                     u4291:
  3857   004384  EFE8  F021         	goto	l1097
  3858   004388                     u4290:
  3859   004388  0E01               	movlw	1
  3860   00438A  6E23               	movwf	___lwmod@counter^0,c
  3861   00438C  EFCC  F021         	goto	l4444
  3862   004390                     l4442:
  3863   004390  90D8               	bcf	status,0,c
  3864   004392  3621               	rlcf	___lwmod@divisor^0,f,c
  3865   004394  3622               	rlcf	(___lwmod@divisor+1)^0,f,c
  3866   004396  2A23               	incf	___lwmod@counter^0,f,c
  3867   004398                     l4444:
  3868   004398  AE22               	btfss	(___lwmod@divisor+1)^0,7,c
  3869   00439A  EFD1  F021         	goto	u4301
  3870   00439E  EFD3  F021         	goto	u4300
  3871   0043A2                     u4301:
  3872   0043A2  EFC8  F021         	goto	l4442
  3873   0043A6                     u4300:
  3874   0043A6                     l4446:
  3875   0043A6  5021               	movf	___lwmod@divisor^0,w,c
  3876   0043A8  5C1F               	subwf	___lwmod@dividend^0,w,c
  3877   0043AA  5022               	movf	(___lwmod@divisor+1)^0,w,c
  3878   0043AC  5820               	subwfb	(___lwmod@dividend+1)^0,w,c
  3879   0043AE  A0D8               	btfss	status,0,c
  3880   0043B0  EFDC  F021         	goto	u4311
  3881   0043B4  EFDE  F021         	goto	u4310
  3882   0043B8                     u4311:
  3883   0043B8  EFE2  F021         	goto	l4450
  3884   0043BC                     u4310:
  3885   0043BC  5021               	movf	___lwmod@divisor^0,w,c
  3886   0043BE  5E1F               	subwf	___lwmod@dividend^0,f,c
  3887   0043C0  5022               	movf	(___lwmod@divisor+1)^0,w,c
  3888   0043C2  5A20               	subwfb	(___lwmod@dividend+1)^0,f,c
  3889   0043C4                     l4450:
  3890   0043C4  90D8               	bcf	status,0,c
  3891   0043C6  3222               	rrcf	(___lwmod@divisor+1)^0,f,c
  3892   0043C8  3221               	rrcf	___lwmod@divisor^0,f,c
  3893   0043CA  2E23               	decfsz	___lwmod@counter^0,f,c
  3894   0043CC  EFD3  F021         	goto	l4446
  3895   0043D0                     l1097:
  3896   0043D0  C01F  F01F         	movff	___lwmod@dividend,?___lwmod
  3897   0043D4  C020  F020         	movff	___lwmod@dividend+1,?___lwmod+1
  3898   0043D8  0012               	return		;funcret
  3899   0043DA                     __end_of___lwmod:
  3900                           	callstack 0
  3901                           
  3902 ;; *************** function ___lwdiv *****************
  3903 ;; Defined at:
  3904 ;;		line 7 in file "C:\Program Files\Microchip\xc8\v2.41\pic\sources\c99\common\lwdiv.c"
  3905 ;; Parameters:    Size  Location     Type
  3906 ;;  dividend        2   30[COMRAM] unsigned int 
  3907 ;;  divisor         2   32[COMRAM] unsigned int 
  3908 ;; Auto vars:     Size  Location     Type
  3909 ;;  quotient        2    1[BANK0 ] unsigned int 
  3910 ;;  counter         1    0[BANK0 ] unsigned char 
  3911 ;; Return value:  Size  Location     Type
  3912 ;;                  2   30[COMRAM] unsigned int 
  3913 ;; Registers used:
  3914 ;;		wreg, status,2, status,0
  3915 ;; Tracked objects:
  3916 ;;		On entry : 0/0
  3917 ;;		On exit  : 0/0
  3918 ;;		Unchanged: 0/0
  3919 ;; Data sizes:     COMRAM   BANK0   BANK1   BANK2   BANK3   BANK4   BANK5   BANK6   BANK7
  3920 ;;      Params:         4       0       0       0       0       0       0       0       0
  3921 ;;      Locals:         0       3       0       0       0       0       0       0       0
  3922 ;;      Temps:          0       0       0       0       0       0       0       0       0
  3923 ;;      Totals:         4       3       0       0       0       0       0       0       0
  3924 ;;Total ram usage:        7 bytes
  3925 ;; Hardware stack levels used: 1
  3926 ;; Hardware stack levels required when called: 4
  3927 ;; This function calls:
  3928 ;;		Nothing
  3929 ;; This function is called by:
  3930 ;;		_utoa
  3931 ;; This function uses a non-reentrant model
  3932 ;;
  3933                           
  3934                           	psect	text6
  3935   00422C                     __ptext6:
  3936                           	callstack 0
  3937   00422C                     ___lwdiv:
  3938                           	callstack 22
  3939   00422C  0E00               	movlw	0
  3940   00422E  0100               	movlb	0	; () banked
  3941   004230  6F62               	movwf	(___lwdiv@quotient+1)& (0+255),b
  3942   004232  0E00               	movlw	0
  3943   004234  6F61               	movwf	___lwdiv@quotient& (0+255),b
  3944   004236                     
  3945                           ; BSR set to: 0
  3946   004236  5021               	movf	___lwdiv@divisor^0,w,c
  3947   004238  1022               	iorwf	(___lwdiv@divisor+1)^0,w,c
  3948   00423A  B4D8               	btfsc	status,2,c
  3949   00423C  EF22  F021         	goto	u7261
  3950   004240  EF24  F021         	goto	u7260
  3951   004244                     u7261:
  3952   004244  EF4C  F021         	goto	l1087
  3953   004248                     u7260:
  3954   004248                     
  3955                           ; BSR set to: 0
  3956   004248  0E01               	movlw	1
  3957   00424A  6F60               	movwf	___lwdiv@counter& (0+255),b
  3958   00424C  EF2C  F021         	goto	l6498
  3959   004250                     l6496:
  3960                           
  3961                           ; BSR set to: 0
  3962   004250  90D8               	bcf	status,0,c
  3963   004252  3621               	rlcf	___lwdiv@divisor^0,f,c
  3964   004254  3622               	rlcf	(___lwdiv@divisor+1)^0,f,c
  3965   004256  2B60               	incf	___lwdiv@counter& (0+255),f,b
  3966   004258                     l6498:
  3967                           
  3968                           ; BSR set to: 0
  3969   004258  AE22               	btfss	(___lwdiv@divisor+1)^0,7,c
  3970   00425A  EF31  F021         	goto	u7271
  3971   00425E  EF33  F021         	goto	u7270
  3972   004262                     u7271:
  3973   004262  EF28  F021         	goto	l6496
  3974   004266                     u7270:
  3975   004266                     l6500:
  3976                           
  3977                           ; BSR set to: 0
  3978   004266  90D8               	bcf	status,0,c
  3979   004268  3761               	rlcf	___lwdiv@quotient& (0+255),f,b
  3980   00426A  3762               	rlcf	(___lwdiv@quotient+1)& (0+255),f,b
  3981   00426C                     
  3982                           ; BSR set to: 0
  3983   00426C  5021               	movf	___lwdiv@divisor^0,w,c
  3984   00426E  5C1F               	subwf	___lwdiv@dividend^0,w,c
  3985   004270  5022               	movf	(___lwdiv@divisor+1)^0,w,c
  3986   004272  5820               	subwfb	(___lwdiv@dividend+1)^0,w,c
  3987   004274  A0D8               	btfss	status,0,c
  3988   004276  EF3F  F021         	goto	u7281
  3989   00427A  EF41  F021         	goto	u7280
  3990   00427E                     u7281:
  3991   00427E  EF46  F021         	goto	l6508
  3992   004282                     u7280:
  3993   004282                     
  3994                           ; BSR set to: 0
  3995   004282  5021               	movf	___lwdiv@divisor^0,w,c
  3996   004284  5E1F               	subwf	___lwdiv@dividend^0,f,c
  3997   004286  5022               	movf	(___lwdiv@divisor+1)^0,w,c
  3998   004288  5A20               	subwfb	(___lwdiv@dividend+1)^0,f,c
  3999   00428A                     
  4000                           ; BSR set to: 0
  4001   00428A  8161               	bsf	___lwdiv@quotient& (0+255),0,b
  4002   00428C                     l6508:
  4003                           
  4004                           ; BSR set to: 0
  4005   00428C  90D8               	bcf	status,0,c
  4006   00428E  3222               	rrcf	(___lwdiv@divisor+1)^0,f,c
  4007   004290  3221               	rrcf	___lwdiv@divisor^0,f,c
  4008   004292                     
  4009                           ; BSR set to: 0
  4010   004292  2F60               	decfsz	___lwdiv@counter& (0+255),f,b
  4011   004294  EF33  F021         	goto	l6500
  4012   004298                     l1087:
  4013                           
  4014                           ; BSR set to: 0
  4015   004298  C061  F01F         	movff	___lwdiv@quotient,?___lwdiv
  4016   00429C  C062  F020         	movff	___lwdiv@quotient+1,?___lwdiv+1
  4017   0042A0                     
  4018                           ; BSR set to: 0
  4019   0042A0  0012               	return		;funcret
  4020   0042A2                     __end_of___lwdiv:
  4021                           	callstack 0
  4022                           
  4023 ;; *************** function _read_prec_or_width *****************
  4024 ;; Defined at:
  4025 ;;		line 1029 in file "C:\Program Files\Microchip\xc8\v2.41\pic\sources\c99\common\doprnt.c"
  4026 ;; Parameters:    Size  Location     Type
  4027 ;;  fmt             2    2[BANK0 ] PTR PTR const unsigned c
  4028 ;;		 -> vfprintf@cfmt(2), 
  4029 ;;  ap              2    4[BANK0 ] PTR PTR void [1]
  4030 ;;		 -> sprintf@ap(2), 
  4031 ;; Auto vars:     Size  Location     Type
  4032 ;;  c               1    8[BANK0 ] unsigned char 
  4033 ;;  n               2    9[BANK0 ] int 
  4034 ;; Return value:  Size  Location     Type
  4035 ;;                  2    2[BANK0 ] int 
  4036 ;; Registers used:
  4037 ;;		wreg, fsr2l, fsr2h, status,2, status,0, tblptrl, tblptrh, tblptru, prodl, prodh, cstack
  4038 ;; Tracked objects:
  4039 ;;		On entry : 0/0
  4040 ;;		On exit  : 0/0
  4041 ;;		Unchanged: 0/0
  4042 ;; Data sizes:     COMRAM   BANK0   BANK1   BANK2   BANK3   BANK4   BANK5   BANK6   BANK7
  4043 ;;      Params:         0       4       0       0       0       0       0       0       0
  4044 ;;      Locals:         0       3       0       0       0       0       0       0       0
  4045 ;;      Temps:          0       2       0       0       0       0       0       0       0
  4046 ;;      Totals:         0       9       0       0       0       0       0       0       0
  4047 ;;Total ram usage:        9 bytes
  4048 ;; Hardware stack levels used: 1
  4049 ;; Hardware stack levels required when called: 5
  4050 ;; This function calls:
  4051 ;;		___wmul
  4052 ;; This function is called by:
  4053 ;;		_vfpfcnvrt
  4054 ;; This function uses a non-reentrant model
  4055 ;;
  4056                           
  4057                           	psect	text7
  4058   003CBA                     __ptext7:
  4059                           	callstack 0
  4060   003CBA                     _read_prec_or_width:
  4061                           	callstack 22
  4062   003CBA                     
  4063                           ;C:\Program Files\Microchip\xc8\v2.41\pic\sources\c99\common\doprnt.c: 1030:     int n =
      +                           0;
  4064   003CBA  0E00               	movlw	0
  4065   003CBC  0100               	movlb	0	; () banked
  4066   003CBE  6F6A               	movwf	(read_prec_or_width@n+1)& (0+255),b
  4067   003CC0  0E00               	movlw	0
  4068   003CC2  6F69               	movwf	read_prec_or_width@n& (0+255),b
  4069   003CC4                     
  4070                           ; BSR set to: 0
  4071                           ;C:\Program Files\Microchip\xc8\v2.41\pic\sources\c99\common\doprnt.c: 1031:     if ((*f
      +                          mt)[0] == '*') {
  4072   003CC4  C062  FFD9         	movff	read_prec_or_width@fmt,fsr2l
  4073   003CC8  C063  FFDA         	movff	read_prec_or_width@fmt+1,fsr2h
  4074   003CCC  CFDE FFF6          	movff	postinc2,tblptrl
  4075   003CD0  CFDD FFF7          	movff	postdec2,tblptrh
  4076   003CD4                     	if	0	;tblptru may be non-zero
  4077   003CD4                     	endif
  4078   003CD4                     	if	0	;tblptru may be non-zero
  4079   003CD4                     	endif
  4080   003CD4  0008               	tblrd		*
  4081   003CD6  50F5               	movf	tablat,w,c
  4082   003CD8  0A2A               	xorlw	42
  4083   003CDA  A4D8               	btfss	status,2,c
  4084   003CDC  EF72  F01E         	goto	u7991
  4085   003CE0  EF74  F01E         	goto	u7990
  4086   003CE4                     u7991:
  4087   003CE4  EFA9  F01E         	goto	l6914
  4088   003CE8                     u7990:
  4089   003CE8                     
  4090                           ; BSR set to: 0
  4091                           ;C:\Program Files\Microchip\xc8\v2.41\pic\sources\c99\common\doprnt.c: 1032:         ++*
      +                          fmt;
  4092   003CE8  C062  FFD9         	movff	read_prec_or_width@fmt,fsr2l
  4093   003CEC  C063  FFDA         	movff	read_prec_or_width@fmt+1,fsr2h
  4094   003CF0  2ADE               	incf	postinc2,f,c
  4095   003CF2  0E00               	movlw	0
  4096   003CF4  22DD               	addwfc	postdec2,f,c
  4097                           
  4098                           ;C:\Program Files\Microchip\xc8\v2.41\pic\sources\c99\common\doprnt.c: 1033:         n =
      +                           (*(int *)__va_arg(*(int **)*ap, (int)0));
  4099   003CF6  C064  FFD9         	movff	read_prec_or_width@ap,fsr2l
  4100   003CFA  C065  FFDA         	movff	read_prec_or_width@ap+1,fsr2h
  4101   003CFE  CFDF F066          	movff	indf2,??_read_prec_or_width
  4102   003D02  0E02               	movlw	2
  4103   003D04  26DE               	addwf	postinc2,f,c
  4104   003D06  CFDF F067          	movff	indf2,??_read_prec_or_width+1
  4105   003D0A  0E00               	movlw	0
  4106   003D0C  22DD               	addwfc	postdec2,f,c
  4107   003D0E  C066  FFD9         	movff	??_read_prec_or_width,fsr2l
  4108   003D12  C067  FFDA         	movff	??_read_prec_or_width+1,fsr2h
  4109   003D16  CFDE F069          	movff	postinc2,read_prec_or_width@n
  4110   003D1A  CFDD F06A          	movff	postdec2,read_prec_or_width@n+1
  4111                           
  4112                           ;C:\Program Files\Microchip\xc8\v2.41\pic\sources\c99\common\doprnt.c: 1034:     } else 
      +                          {
  4113   003D1E  EFBD  F01E         	goto	l1411
  4114   003D22                     l6910:
  4115                           
  4116                           ; BSR set to: 0
  4117                           ;C:\Program Files\Microchip\xc8\v2.41\pic\sources\c99\common\doprnt.c: 1037:            
      +                           n = n * 10 + c;
  4118   003D22  C069  F01F         	movff	read_prec_or_width@n,___wmul@multiplier
  4119   003D26  C06A  F020         	movff	read_prec_or_width@n+1,___wmul@multiplier+1
  4120   003D2A  0E00               	movlw	0
  4121   003D2C  6E22               	movwf	(___wmul@multiplicand+1)^0,c
  4122   003D2E  0E0A               	movlw	10
  4123   003D30  6E21               	movwf	___wmul@multiplicand^0,c
  4124   003D32  ECD1  F023         	call	___wmul	;wreg free
  4125   003D36  0100               	movlb	0	; () banked
  4126   003D38  5168               	movf	read_prec_or_width@c& (0+255),w,b
  4127   003D3A  241F               	addwf	?___wmul^0,w,c
  4128   003D3C  6F69               	movwf	read_prec_or_width@n& (0+255),b
  4129   003D3E  0E00               	movlw	0
  4130   003D40  2020               	addwfc	(?___wmul+1)^0,w,c
  4131   003D42  6F6A               	movwf	(read_prec_or_width@n+1)& (0+255),b
  4132   003D44                     
  4133                           ; BSR set to: 0
  4134                           ;C:\Program Files\Microchip\xc8\v2.41\pic\sources\c99\common\doprnt.c: 1038:            
      +                           ++*fmt;
  4135   003D44  C062  FFD9         	movff	read_prec_or_width@fmt,fsr2l
  4136   003D48  C063  FFDA         	movff	read_prec_or_width@fmt+1,fsr2h
  4137   003D4C  2ADE               	incf	postinc2,f,c
  4138   003D4E  0E00               	movlw	0
  4139   003D50  22DD               	addwfc	postdec2,f,c
  4140   003D52                     l6914:
  4141                           
  4142                           ; BSR set to: 0
  4143                           ;C:\Program Files\Microchip\xc8\v2.41\pic\sources\c99\common\doprnt.c: 1036:         whi
      +                          le ((c = ((unsigned)(*fmt)[0]) - '0') < 10) {
  4144   003D52  C062  FFD9         	movff	read_prec_or_width@fmt,fsr2l
  4145   003D56  C063  FFDA         	movff	read_prec_or_width@fmt+1,fsr2h
  4146   003D5A  CFDE FFF6          	movff	postinc2,tblptrl
  4147   003D5E  CFDD FFF7          	movff	postdec2,tblptrh
  4148   003D62                     	if	0	;tblptru may be non-zero
  4149   003D62                     	endif
  4150   003D62                     	if	0	;tblptru may be non-zero
  4151   003D62                     	endif
  4152   003D62  0008               	tblrd		*
  4153   003D64  50F5               	movf	tablat,w,c
  4154   003D66  0FD0               	addlw	208
  4155   003D68  6F68               	movwf	read_prec_or_width@c& (0+255),b
  4156   003D6A  0E09               	movlw	9
  4157   003D6C  6568               	cpfsgt	read_prec_or_width@c& (0+255),b
  4158   003D6E  EFBB  F01E         	goto	u8001
  4159   003D72  EFBD  F01E         	goto	u8000
  4160   003D76                     u8001:
  4161   003D76  EF91  F01E         	goto	l6910
  4162   003D7A                     u8000:
  4163   003D7A                     l1411:
  4164                           
  4165                           ; BSR set to: 0
  4166                           ;C:\Program Files\Microchip\xc8\v2.41\pic\sources\c99\common\doprnt.c: 1041:     return 
      +                          n;
  4167   003D7A  C069  F062         	movff	read_prec_or_width@n,?_read_prec_or_width
  4168   003D7E  C06A  F063         	movff	read_prec_or_width@n+1,?_read_prec_or_width+1
  4169   003D82                     
  4170                           ; BSR set to: 0
  4171   003D82  0012               	return		;funcret
  4172   003D84                     __end_of_read_prec_or_width:
  4173                           	callstack 0
  4174                           
  4175 ;; *************** function ___wmul *****************
  4176 ;; Defined at:
  4177 ;;		line 15 in file "C:\Program Files\Microchip\xc8\v2.41\pic\sources\c99\common\Umul16.c"
  4178 ;; Parameters:    Size  Location     Type
  4179 ;;  multiplier      2   30[COMRAM] unsigned int 
  4180 ;;  multiplicand    2   32[COMRAM] unsigned int 
  4181 ;; Auto vars:     Size  Location     Type
  4182 ;;  product         2    0[BANK0 ] unsigned int 
  4183 ;; Return value:  Size  Location     Type
  4184 ;;                  2   30[COMRAM] unsigned int 
  4185 ;; Registers used:
  4186 ;;		wreg, status,2, status,0, prodl, prodh
  4187 ;; Tracked objects:
  4188 ;;		On entry : 0/0
  4189 ;;		On exit  : 0/0
  4190 ;;		Unchanged: 0/0
  4191 ;; Data sizes:     COMRAM   BANK0   BANK1   BANK2   BANK3   BANK4   BANK5   BANK6   BANK7
  4192 ;;      Params:         4       0       0       0       0       0       0       0       0
  4193 ;;      Locals:         0       2       0       0       0       0       0       0       0
  4194 ;;      Temps:          0       0       0       0       0       0       0       0       0
  4195 ;;      Totals:         4       2       0       0       0       0       0       0       0
  4196 ;;Total ram usage:        6 bytes
  4197 ;; Hardware stack levels used: 1
  4198 ;; Hardware stack levels required when called: 4
  4199 ;; This function calls:
  4200 ;;		Nothing
  4201 ;; This function is called by:
  4202 ;;		_read_prec_or_width
  4203 ;; This function uses a non-reentrant model
  4204 ;;
  4205                           
  4206                           	psect	text8
  4207   0047A2                     __ptext8:
  4208                           	callstack 0
  4209   0047A2                     ___wmul:
  4210                           	callstack 22
  4211   0047A2  501F               	movf	___wmul@multiplier^0,w,c
  4212   0047A4  0221               	mulwf	___wmul@multiplicand^0,c
  4213   0047A6  CFF3 F060          	movff	prodl,___wmul@product
  4214   0047AA  CFF4 F061          	movff	prodh,___wmul@product+1
  4215   0047AE  501F               	movf	___wmul@multiplier^0,w,c
  4216   0047B0  0222               	mulwf	(___wmul@multiplicand+1)^0,c
  4217   0047B2  50F3               	movf	243,w,c
  4218   0047B4  0100               	movlb	0	; () banked
  4219   0047B6  2761               	addwf	(___wmul@product+1)& (0+255),f,b
  4220   0047B8  5020               	movf	(___wmul@multiplier+1)^0,w,c
  4221   0047BA  0221               	mulwf	___wmul@multiplicand^0,c
  4222   0047BC  50F3               	movf	243,w,c
  4223   0047BE  2761               	addwf	(___wmul@product+1)& (0+255),f,b
  4224   0047C0                     
  4225                           ; BSR set to: 0
  4226   0047C0  C060  F01F         	movff	___wmul@product,?___wmul
  4227   0047C4  C061  F020         	movff	___wmul@product+1,?___wmul+1
  4228   0047C8                     
  4229                           ; BSR set to: 0
  4230   0047C8  0012               	return		;funcret
  4231   0047CA                     __end_of___wmul:
  4232                           	callstack 0
  4233                           
  4234 ;; *************** function _efgtoa *****************
  4235 ;; Defined at:
  4236 ;;		line 531 in file "C:\Program Files\Microchip\xc8\v2.41\pic\sources\c99\common\doprnt.c"
  4237 ;; Parameters:    Size  Location     Type
  4238 ;;  fp              2   80[BANK0 ] PTR struct _IO_FILE
  4239 ;;		 -> sprintf@f(12), 
  4240 ;;  f               4   82[BANK0 ] PTR struct _IO_FILE
  4241 ;;  c               1   86[BANK0 ] unsigned char 
  4242 ;; Auto vars:     Size  Location     Type
  4243 ;;  u               4  129[BANK0 ] struct flui
  4244 ;;  g               4  123[BANK0 ] struct flui
  4245 ;;  l               4  116[BANK0 ] struct flui
  4246 ;;  h               4  112[BANK0 ] struct flui
  4247 ;;  ou              4  106[BANK0 ] struct flui
  4248 ;;  n               2  127[BANK0 ] int 
  4249 ;;  i               2  120[BANK0 ] int 
  4250 ;;  w               2  110[BANK0 ] int 
  4251 ;;  e               2  104[BANK0 ] int 
  4252 ;;  m               2  102[BANK0 ] int 
  4253 ;;  d               2  100[BANK0 ] int 
  4254 ;;  t               2   93[BANK0 ] int 
  4255 ;;  p               2   91[BANK0 ] int 
  4256 ;;  ne              2   89[BANK0 ] int 
  4257 ;;  sign            1  122[BANK0 ] unsigned char 
  4258 ;;  nmode           1   99[BANK0 ] unsigned char 
  4259 ;;  mode            1   98[BANK0 ] unsigned char 
  4260 ;;  pp              1   97[BANK0 ] unsigned char 
  4261 ;;  esign           1    0        unsigned char 
  4262 ;; Return value:  Size  Location     Type
  4263 ;;                  1    wreg      void 
  4264 ;; Registers used:
  4265 ;;		wreg, fsr1l, fsr1h, fsr2l, fsr2h, status,2, status,0, tblptrl, tblptrh, tblptru, prodl, prodh, cstack
  4266 ;; Tracked objects:
  4267 ;;		On entry : 0/0
  4268 ;;		On exit  : 0/0
  4269 ;;		Unchanged: 0/0
  4270 ;; Data sizes:     COMRAM   BANK0   BANK1   BANK2   BANK3   BANK4   BANK5   BANK6   BANK7
  4271 ;;      Params:         0       7       0       0       0       0       0       0       0
  4272 ;;      Locals:         0      44       0       0       0       0       0       0       0
  4273 ;;      Temps:          0       2       0       0       0       0       0       0       0
  4274 ;;      Totals:         0      53       0       0       0       0       0       0       0
  4275 ;;Total ram usage:       53 bytes
  4276 ;; Hardware stack levels used: 1
  4277 ;; Hardware stack levels required when called: 8
  4278 ;; This function calls:
  4279 ;;		___fladd
  4280 ;;		___fldiv
  4281 ;;		___fleq
  4282 ;;		___flge
  4283 ;;		___flmul
  4284 ;;		___flneg
  4285 ;;		___flsub
  4286 ;;		___fltol
  4287 ;;		___fpclassifyf
  4288 ;;		_floorf
  4289 ;;		_labs
  4290 ;;		_memcpy
  4291 ;;		_pad
  4292 ;;		_strcpy
  4293 ;; This function is called by:
  4294 ;;		_vfpfcnvrt
  4295 ;; This function uses a non-reentrant model
  4296 ;;
  4297                           
  4298                           	psect	text9
  4299   000844                     __ptext9:
  4300                           	callstack 0
  4301   000844                     _efgtoa:
  4302                           	callstack 19
  4303   000844                     
  4304                           ;C:\Program Files\Microchip\xc8\v2.41\pic\sources\c99\common\doprnt.c: 531: static void 
      +                          efgtoa(FILE *fp, long double f, char c);C:\Program Files\Microchip\xc8\v2.41\pic\sources
      +                          \c99\common\doprnt.c: 532: {;C:\Program Files\Microchip\xc8\v2.41\pic\sources\c99\common
      +                          \doprnt.c: 533:     char mode, nmode, pp, sign, esign;;C:\Program Files\Microchip\xc8\v2
      +                          .41\pic\sources\c99\common\doprnt.c: 534:     int d, e, i, m, n, ne, p, t, w;;C:\Program
      +                           Files\Microchip\xc8\v2.41\pic\sources\c99\common\doprnt.c: 535:     long double h, l;
  4305   000844  0E00               	movlw	0
  4306   000846  0100               	movlb	0	; () banked
  4307   000848  6FDA               	movwf	efgtoa@sign& (0+255),b
  4308   00084A                     
  4309                           ; BSR set to: 0
  4310                           ;C:\Program Files\Microchip\xc8\v2.41\pic\sources\c99\common\doprnt.c: 540:     g.f = f;
  4311   00084A  C0B2  F0DB         	movff	efgtoa@f,efgtoa@g
  4312   00084E  C0B3  F0DC         	movff	efgtoa@f+1,efgtoa@g+1
  4313   000852  C0B4  F0DD         	movff	efgtoa@f+2,efgtoa@g+2
  4314   000856  C0B5  F0DE         	movff	efgtoa@f+3,efgtoa@g+3
  4315   00085A                     
  4316                           ; BSR set to: 0
  4317                           ;C:\Program Files\Microchip\xc8\v2.41\pic\sources\c99\common\doprnt.c: 541:     if (g.f 
      +                          < 0.0) {
  4318   00085A  BFDE               	btfsc	(efgtoa@g+3)& (0+255),7,b
  4319   00085C  EF34  F004         	goto	u7570
  4320   000860  EF32  F004         	goto	u7571
  4321   000864                     u7571:
  4322   000864  EF48  F004         	goto	l6644
  4323   000868                     u7570:
  4324   000868                     
  4325                           ; BSR set to: 0
  4326                           ;C:\Program Files\Microchip\xc8\v2.41\pic\sources\c99\common\doprnt.c: 542:         sign
      +                           = 1;
  4327   000868  0E01               	movlw	1
  4328   00086A  6FDA               	movwf	efgtoa@sign& (0+255),b
  4329   00086C                     
  4330                           ; BSR set to: 0
  4331                           ;C:\Program Files\Microchip\xc8\v2.41\pic\sources\c99\common\doprnt.c: 543:         g.f 
      +                          = -g.f;
  4332   00086C  C0DB  F01F         	movff	efgtoa@g,___flneg@f1
  4333   000870  C0DC  F020         	movff	efgtoa@g+1,___flneg@f1+1
  4334   000874  C0DD  F021         	movff	efgtoa@g+2,___flneg@f1+2
  4335   000878  C0DE  F022         	movff	efgtoa@g+3,___flneg@f1+3
  4336   00087C  EC9F  F023         	call	___flneg	;wreg free
  4337   000880  C01F  F0DB         	movff	?___flneg,efgtoa@g
  4338   000884  C020  F0DC         	movff	?___flneg+1,efgtoa@g+1
  4339   000888  C021  F0DD         	movff	?___flneg+2,efgtoa@g+2
  4340   00088C  C022  F0DE         	movff	?___flneg+3,efgtoa@g+3
  4341   000890                     l6644:
  4342                           
  4343                           ;C:\Program Files\Microchip\xc8\v2.41\pic\sources\c99\common\doprnt.c: 547:     n = 0;
  4344   000890  0E00               	movlw	0
  4345   000892  0100               	movlb	0	; () banked
  4346   000894  6FE0               	movwf	(efgtoa@n+1)& (0+255),b
  4347   000896  0E00               	movlw	0
  4348   000898  6FDF               	movwf	efgtoa@n& (0+255),b
  4349   00089A                     
  4350                           ; BSR set to: 0
  4351                           ;C:\Program Files\Microchip\xc8\v2.41\pic\sources\c99\common\doprnt.c: 548:     w = widt
      +                          h;
  4352   00089A  C024  F0CE         	movff	_width,efgtoa@w
  4353   00089E  C025  F0CF         	movff	_width+1,efgtoa@w+1
  4354   0008A2                     
  4355                           ; BSR set to: 0
  4356                           ;C:\Program Files\Microchip\xc8\v2.41\pic\sources\c99\common\doprnt.c: 549:     if (sign
  4357   0008A2  51DA               	movf	efgtoa@sign& (0+255),w,b
  4358   0008A4  B4D8               	btfsc	status,2,c
  4359   0008A6  EF57  F004         	goto	u7581
  4360   0008AA  EF59  F004         	goto	u7580
  4361   0008AE                     u7581:
  4362   0008AE  EF6D  F004         	goto	l6658
  4363   0008B2                     u7580:
  4364   0008B2                     
  4365                           ; BSR set to: 0
  4366                           ;C:\Program Files\Microchip\xc8\v2.41\pic\sources\c99\common\doprnt.c: 553:    ) {;C:\Pr
      +                          ogram Files\Microchip\xc8\v2.41\pic\sources\c99\common\doprnt.c: 554:   sign = sign ? '-
      +                          ' : '+';
  4367   0008B2  51DA               	movf	efgtoa@sign& (0+255),w,b
  4368   0008B4  A4D8               	btfss	status,2,c
  4369   0008B6  EF5F  F004         	goto	u7591
  4370   0008BA  EF61  F004         	goto	u7590
  4371   0008BE                     u7591:
  4372   0008BE  EF67  F004         	goto	l6654
  4373   0008C2                     u7590:
  4374   0008C2                     
  4375                           ; BSR set to: 0
  4376   0008C2  0E00               	movlw	0
  4377   0008C4  6FC0               	movwf	(_efgtoa$2543+1)& (0+255),b
  4378   0008C6  0E2B               	movlw	43
  4379   0008C8  6FBF               	movwf	_efgtoa$2543& (0+255),b
  4380   0008CA  EF6B  F004         	goto	l6656
  4381   0008CE                     l6654:
  4382                           
  4383                           ; BSR set to: 0
  4384   0008CE  0E00               	movlw	0
  4385   0008D0  6FC0               	movwf	(_efgtoa$2543+1)& (0+255),b
  4386   0008D2  0E2D               	movlw	45
  4387   0008D4  6FBF               	movwf	_efgtoa$2543& (0+255),b
  4388   0008D6                     l6656:
  4389                           
  4390                           ; BSR set to: 0
  4391   0008D6  C0BF  F0DA         	movff	_efgtoa$2543,efgtoa@sign
  4392   0008DA                     l6658:
  4393                           
  4394                           ; BSR set to: 0
  4395                           ;C:\Program Files\Microchip\xc8\v2.41\pic\sources\c99\common\doprnt.c: 563:     if (( __
      +                          fpclassifyf(g.f) == 1 )) {
  4396   0008DA  C0DB  F01F         	movff	efgtoa@g,___fpclassifyf@x
  4397   0008DE  C0DC  F020         	movff	efgtoa@g+1,___fpclassifyf@x+1
  4398   0008E2  C0DD  F021         	movff	efgtoa@g+2,___fpclassifyf@x+2
  4399   0008E6  C0DE  F022         	movff	efgtoa@g+3,___fpclassifyf@x+3
  4400   0008EA  EC06  F01D         	call	___fpclassifyf	;wreg free
  4401   0008EE  041F               	decf	?___fpclassifyf^0,w,c
  4402   0008F0  1020               	iorwf	(?___fpclassifyf+1)^0,w,c
  4403   0008F2  A4D8               	btfss	status,2,c
  4404   0008F4  EF7E  F004         	goto	u7601
  4405   0008F8  EF80  F004         	goto	u7600
  4406   0008FC                     u7601:
  4407   0008FC  EFB3  F004         	goto	l6676
  4408   000900                     u7600:
  4409   000900                     
  4410                           ;C:\Program Files\Microchip\xc8\v2.41\pic\sources\c99\common\doprnt.c: 564:   if (sign) 
      +                          {
  4411   000900  0100               	movlb	0	; () banked
  4412   000902  51DA               	movf	efgtoa@sign& (0+255),w,b
  4413   000904  B4D8               	btfsc	status,2,c
  4414   000906  EF87  F004         	goto	u7611
  4415   00090A  EF89  F004         	goto	u7610
  4416   00090E                     u7611:
  4417   00090E  EF92  F004         	goto	l6668
  4418   000912                     u7610:
  4419   000912                     
  4420                           ; BSR set to: 0
  4421                           ;C:\Program Files\Microchip\xc8\v2.41\pic\sources\c99\common\doprnt.c: 565:    dbuf[0] =
      +                           sign;
  4422   000912  C0DA  F178         	movff	efgtoa@sign,_dbuf
  4423   000916                     
  4424                           ; BSR set to: 0
  4425                           ;C:\Program Files\Microchip\xc8\v2.41\pic\sources\c99\common\doprnt.c: 566:    w--;
  4426   000916  07CE               	decf	efgtoa@w& (0+255),f,b
  4427   000918  A0D8               	btfss	status,0,c
  4428   00091A  07CF               	decf	(efgtoa@w+1)& (0+255),f,b
  4429   00091C                     
  4430                           ; BSR set to: 0
  4431                           ;C:\Program Files\Microchip\xc8\v2.41\pic\sources\c99\common\doprnt.c: 567:    n = 1;
  4432   00091C  0E00               	movlw	0
  4433   00091E  6FE0               	movwf	(efgtoa@n+1)& (0+255),b
  4434   000920  0E01               	movlw	1
  4435   000922  6FDF               	movwf	efgtoa@n& (0+255),b
  4436   000924                     l6668:
  4437                           
  4438                           ; BSR set to: 0
  4439                           ;C:\Program Files\Microchip\xc8\v2.41\pic\sources\c99\common\doprnt.c: 575:   {;C:\Progr
      +                          am Files\Microchip\xc8\v2.41\pic\sources\c99\common\doprnt.c: 576:             strcpy(&d
      +                          buf[n], "inf");
  4440   000924  0E78               	movlw	low _dbuf
  4441   000926  25DF               	addwf	efgtoa@n& (0+255),w,b
  4442   000928  6E1F               	movwf	strcpy@dest^0,c
  4443   00092A  0E01               	movlw	high _dbuf
  4444   00092C  21E0               	addwfc	(efgtoa@n+1)& (0+255),w,b
  4445   00092E  6E20               	movwf	(strcpy@dest+1)^0,c
  4446   000930  0E38               	movlw	low STR_3
  4447   000932  6E21               	movwf	strcpy@src^0,c
  4448   000934  0E08               	movlw	high STR_3
  4449   000936  6E22               	movwf	(strcpy@src+1)^0,c
  4450   000938  EC40  F023         	call	_strcpy	;wreg free
  4451   00093C                     l6670:
  4452                           
  4453                           ;C:\Program Files\Microchip\xc8\v2.41\pic\sources\c99\common\doprnt.c: 577:         };C:
      +                          \Program Files\Microchip\xc8\v2.41\pic\sources\c99\common\doprnt.c: 578:         w -= ((
      +                          sizeof("inf")/sizeof("inf"[0]))-1);
  4454   00093C  0100               	movlb	0	; () banked
  4455   00093E  0EFD               	movlw	253
  4456   000940  27CE               	addwf	efgtoa@w& (0+255),f,b
  4457   000942  0EFF               	movlw	255
  4458   000944  23CF               	addwfc	(efgtoa@w+1)& (0+255),f,b
  4459   000946                     
  4460                           ; BSR set to: 0
  4461                           ;C:\Program Files\Microchip\xc8\v2.41\pic\sources\c99\common\doprnt.c: 579:         retu
      +                          rn (void) pad(fp, &dbuf[0], w);
  4462   000946  C0B0  F06C         	movff	efgtoa@fp,pad@fp
  4463   00094A  C0B1  F06D         	movff	efgtoa@fp+1,pad@fp+1
  4464   00094E  0E78               	movlw	low _dbuf
  4465   000950  6F6E               	movwf	pad@buf& (0+255),b
  4466   000952  0E01               	movlw	high _dbuf
  4467   000954  6F6F               	movwf	(pad@buf+1)& (0+255),b
  4468   000956  C0CE  F070         	movff	efgtoa@w,pad@p
  4469   00095A  C0CF  F071         	movff	efgtoa@w+1,pad@p+1
  4470   00095E  ECD8  F01F         	call	_pad	;wreg free
  4471   000962  EF57  F009         	goto	l1345
  4472   000966                     l6676:
  4473                           
  4474                           ;C:\Program Files\Microchip\xc8\v2.41\pic\sources\c99\common\doprnt.c: 581:     if (( __
      +                          fpclassifyf(g.f) == 0 )) {
  4475   000966  C0DB  F01F         	movff	efgtoa@g,___fpclassifyf@x
  4476   00096A  C0DC  F020         	movff	efgtoa@g+1,___fpclassifyf@x+1
  4477   00096E  C0DD  F021         	movff	efgtoa@g+2,___fpclassifyf@x+2
  4478   000972  C0DE  F022         	movff	efgtoa@g+3,___fpclassifyf@x+3
  4479   000976  EC06  F01D         	call	___fpclassifyf	;wreg free
  4480   00097A  501F               	movf	?___fpclassifyf^0,w,c
  4481   00097C  1020               	iorwf	(?___fpclassifyf+1)^0,w,c
  4482   00097E  A4D8               	btfss	status,2,c
  4483   000980  EFC4  F004         	goto	u7621
  4484   000984  EFC6  F004         	goto	u7620
  4485   000988                     u7621:
  4486   000988  EFE6  F004         	goto	l6694
  4487   00098C                     u7620:
  4488   00098C                     
  4489                           ;C:\Program Files\Microchip\xc8\v2.41\pic\sources\c99\common\doprnt.c: 582:   if (sign) 
      +                          {
  4490   00098C  0100               	movlb	0	; () banked
  4491   00098E  51DA               	movf	efgtoa@sign& (0+255),w,b
  4492   000990  B4D8               	btfsc	status,2,c
  4493   000992  EFCD  F004         	goto	u7631
  4494   000996  EFCF  F004         	goto	u7630
  4495   00099A                     u7631:
  4496   00099A  EFD8  F004         	goto	l6686
  4497   00099E                     u7630:
  4498   00099E                     
  4499                           ; BSR set to: 0
  4500                           ;C:\Program Files\Microchip\xc8\v2.41\pic\sources\c99\common\doprnt.c: 583:    dbuf[0] =
      +                           sign;
  4501   00099E  C0DA  F178         	movff	efgtoa@sign,_dbuf
  4502   0009A2                     
  4503                           ; BSR set to: 0
  4504                           ;C:\Program Files\Microchip\xc8\v2.41\pic\sources\c99\common\doprnt.c: 584:    w--;
  4505   0009A2  07CE               	decf	efgtoa@w& (0+255),f,b
  4506   0009A4  A0D8               	btfss	status,0,c
  4507   0009A6  07CF               	decf	(efgtoa@w+1)& (0+255),f,b
  4508   0009A8                     
  4509                           ; BSR set to: 0
  4510                           ;C:\Program Files\Microchip\xc8\v2.41\pic\sources\c99\common\doprnt.c: 585:    n = 1;
  4511   0009A8  0E00               	movlw	0
  4512   0009AA  6FE0               	movwf	(efgtoa@n+1)& (0+255),b
  4513   0009AC  0E01               	movlw	1
  4514   0009AE  6FDF               	movwf	efgtoa@n& (0+255),b
  4515   0009B0                     l6686:
  4516                           
  4517                           ; BSR set to: 0
  4518                           ;C:\Program Files\Microchip\xc8\v2.41\pic\sources\c99\common\doprnt.c: 593:   {;C:\Progr
      +                          am Files\Microchip\xc8\v2.41\pic\sources\c99\common\doprnt.c: 594:             strcpy(&d
      +                          buf[n], "nan");
  4519   0009B0  0E78               	movlw	low _dbuf
  4520   0009B2  25DF               	addwf	efgtoa@n& (0+255),w,b
  4521   0009B4  6E1F               	movwf	strcpy@dest^0,c
  4522   0009B6  0E01               	movlw	high _dbuf
  4523   0009B8  21E0               	addwfc	(efgtoa@n+1)& (0+255),w,b
  4524   0009BA  6E20               	movwf	(strcpy@dest+1)^0,c
  4525   0009BC  0E3C               	movlw	low STR_6
  4526   0009BE  6E21               	movwf	strcpy@src^0,c
  4527   0009C0  0E08               	movlw	high STR_6
  4528   0009C2  6E22               	movwf	(strcpy@src+1)^0,c
  4529   0009C4  EC40  F023         	call	_strcpy	;wreg free
  4530   0009C8  EF9E  F004         	goto	l6670
  4531   0009CC                     l6694:
  4532                           
  4533                           ;C:\Program Files\Microchip\xc8\v2.41\pic\sources\c99\common\doprnt.c: 601:     u.f = 1.
      +                          0;
  4534   0009CC  0E00               	movlw	0
  4535   0009CE  0100               	movlb	0	; () banked
  4536   0009D0  6FE1               	movwf	efgtoa@u& (0+255),b
  4537   0009D2  0E00               	movlw	0
  4538   0009D4  6FE2               	movwf	(efgtoa@u+1)& (0+255),b
  4539   0009D6  0E80               	movlw	128
  4540   0009D8  6FE3               	movwf	(efgtoa@u+2)& (0+255),b
  4541   0009DA  0E3F               	movlw	63
  4542   0009DC  6FE4               	movwf	(efgtoa@u+3)& (0+255),b
  4543                           
  4544                           ;C:\Program Files\Microchip\xc8\v2.41\pic\sources\c99\common\doprnt.c: 602:     e = 0;
  4545   0009DE  0E00               	movlw	0
  4546   0009E0  6FC9               	movwf	(efgtoa@e+1)& (0+255),b
  4547   0009E2  0E00               	movlw	0
  4548   0009E4  6FC8               	movwf	efgtoa@e& (0+255),b
  4549   0009E6                     
  4550                           ; BSR set to: 0
  4551                           ;C:\Program Files\Microchip\xc8\v2.41\pic\sources\c99\common\doprnt.c: 603:  if (!(g.f =
      +                          = 0.0)) {
  4552   0009E6  C0DB  F060         	movff	efgtoa@g,___fleq@ff1
  4553   0009EA  C0DC  F061         	movff	efgtoa@g+1,___fleq@ff1+1
  4554   0009EE  C0DD  F062         	movff	efgtoa@g+2,___fleq@ff1+2
  4555   0009F2  C0DE  F063         	movff	efgtoa@g+3,___fleq@ff1+3
  4556   0009F6  0E00               	movlw	0
  4557   0009F8  6F64               	movwf	___fleq@ff2& (0+255),b
  4558   0009FA  0E00               	movlw	0
  4559   0009FC  6F65               	movwf	(___fleq@ff2+1)& (0+255),b
  4560   0009FE  0E00               	movlw	0
  4561   000A00  6F66               	movwf	(___fleq@ff2+2)& (0+255),b
  4562   000A02  0E00               	movlw	0
  4563   000A04  6F67               	movwf	(___fleq@ff2+3)& (0+255),b
  4564   000A06  EC2F  F020         	call	___fleq	;wreg free
  4565   000A0A  0100               	movlb	0	; () banked
  4566   000A0C  B0D8               	btfsc	status,0,c
  4567   000A0E  EF0B  F005         	goto	u7641
  4568   000A12  EF0D  F005         	goto	u7640
  4569   000A16                     u7641:
  4570   000A16  EFED  F005         	goto	l1348
  4571   000A1A                     u7640:
  4572   000A1A  EF1A  F005         	goto	l6702
  4573   000A1E                     l1350:
  4574                           
  4575                           ;C:\Program Files\Microchip\xc8\v2.41\pic\sources\c99\common\doprnt.c: 605:    u = ou;
  4576   000A1E  C0CA  F0E1         	movff	efgtoa@ou,efgtoa@u
  4577   000A22  C0CB  F0E2         	movff	efgtoa@ou+1,efgtoa@u+1
  4578   000A26  C0CC  F0E3         	movff	efgtoa@ou+2,efgtoa@u+2
  4579   000A2A  C0CD  F0E4         	movff	efgtoa@ou+3,efgtoa@u+3
  4580   000A2E                     
  4581                           ;C:\Program Files\Microchip\xc8\v2.41\pic\sources\c99\common\doprnt.c: 606:    ++e;
  4582   000A2E  0100               	movlb	0	; () banked
  4583   000A30  4BC8               	infsnz	efgtoa@e& (0+255),f,b
  4584   000A32  2BC9               	incf	(efgtoa@e+1)& (0+255),f,b
  4585   000A34                     l6702:
  4586                           
  4587                           ; BSR set to: 0
  4588                           ;C:\Program Files\Microchip\xc8\v2.41\pic\sources\c99\common\doprnt.c: 604:   while ((la
      +                          bs((g).u-((ou.f = u.f*10.0,ou)).u) <= 1) || g.f > ou.f) {
  4589   000A34  C0E1  F06A         	movff	efgtoa@u,___flmul@b
  4590   000A38  C0E2  F06B         	movff	efgtoa@u+1,___flmul@b+1
  4591   000A3C  C0E3  F06C         	movff	efgtoa@u+2,___flmul@b+2
  4592   000A40  C0E4  F06D         	movff	efgtoa@u+3,___flmul@b+3
  4593   000A44  0E00               	movlw	0
  4594   000A46  6F6E               	movwf	___flmul@a& (0+255),b
  4595   000A48  0E00               	movlw	0
  4596   000A4A  6F6F               	movwf	(___flmul@a+1)& (0+255),b
  4597   000A4C  0E20               	movlw	32
  4598   000A4E  6F70               	movwf	(___flmul@a+2)& (0+255),b
  4599   000A50  0E41               	movlw	65
  4600   000A52  6F71               	movwf	(___flmul@a+3)& (0+255),b
  4601   000A54  EC1B  F012         	call	___flmul	;wreg free
  4602   000A58  C06A  F0CA         	movff	?___flmul,efgtoa@ou
  4603   000A5C  C06B  F0CB         	movff	?___flmul+1,efgtoa@ou+1
  4604   000A60  C06C  F0CC         	movff	?___flmul+2,efgtoa@ou+2
  4605   000A64  C06D  F0CD         	movff	?___flmul+3,efgtoa@ou+3
  4606   000A68  0100               	movlb	0	; () banked
  4607   000A6A  51CA               	movf	efgtoa@ou& (0+255),w,b
  4608   000A6C  5DDB               	subwf	efgtoa@g& (0+255),w,b
  4609   000A6E  6E1F               	movwf	labs@a^0,c
  4610   000A70  51CB               	movf	(efgtoa@ou+1)& (0+255),w,b
  4611   000A72  59DC               	subwfb	(efgtoa@g+1)& (0+255),w,b
  4612   000A74  6E20               	movwf	(labs@a+1)^0,c
  4613   000A76  51CC               	movf	(efgtoa@ou+2)& (0+255),w,b
  4614   000A78  59DD               	subwfb	(efgtoa@g+2)& (0+255),w,b
  4615   000A7A  6E21               	movwf	(labs@a+2)^0,c
  4616   000A7C  51CD               	movf	(efgtoa@ou+3)& (0+255),w,b
  4617   000A7E  59DE               	subwfb	(efgtoa@g+3)& (0+255),w,b
  4618   000A80  6E22               	movwf	(labs@a+3)^0,c
  4619   000A82  EC87  F021         	call	_labs	;wreg free
  4620   000A86  BE22               	btfsc	(?_labs+3)^0,7,c
  4621   000A88  EF51  F005         	goto	u7651
  4622   000A8C  5022               	movf	(?_labs+3)^0,w,c
  4623   000A8E  1021               	iorwf	(?_labs+2)^0,w,c
  4624   000A90  1020               	iorwf	(?_labs+1)^0,w,c
  4625   000A92  E109               	bnz	u7650
  4626   000A94  0E02               	movlw	2
  4627   000A96  5C1F               	subwf	?_labs^0,w,c
  4628   000A98  A0D8               	btfss	status,0,c
  4629   000A9A  EF51  F005         	goto	u7651
  4630   000A9E  EF53  F005         	goto	u7650
  4631   000AA2                     u7651:
  4632   000AA2  EF0F  F005         	goto	l1350
  4633   000AA6                     u7650:
  4634   000AA6  C0CA  F083         	movff	efgtoa@ou,___flge@ff1
  4635   000AAA  C0CB  F084         	movff	efgtoa@ou+1,___flge@ff1+1
  4636   000AAE  C0CC  F085         	movff	efgtoa@ou+2,___flge@ff1+2
  4637   000AB2  C0CD  F086         	movff	efgtoa@ou+3,___flge@ff1+3
  4638   000AB6  C0DB  F087         	movff	efgtoa@g,___flge@ff2
  4639   000ABA  C0DC  F088         	movff	efgtoa@g+1,___flge@ff2+1
  4640   000ABE  C0DD  F089         	movff	efgtoa@g+2,___flge@ff2+2
  4641   000AC2  C0DE  F08A         	movff	efgtoa@g+3,___flge@ff2+3
  4642   000AC6  EC00  F01C         	call	___flge	;wreg free
  4643   000ACA  0100               	movlb	0	; () banked
  4644   000ACC  A0D8               	btfss	status,0,c
  4645   000ACE  EF6B  F005         	goto	u7661
  4646   000AD2  EF6D  F005         	goto	u7660
  4647   000AD6                     u7661:
  4648   000AD6  EF0F  F005         	goto	l1350
  4649   000ADA                     u7660:
  4650   000ADA                     
  4651                           ; BSR set to: 0
  4652                           ;C:\Program Files\Microchip\xc8\v2.41\pic\sources\c99\common\doprnt.c: 608:   if ((labs(
      +                          (g).u-(u).u) <= 1)) {
  4653   000ADA  51E1               	movf	efgtoa@u& (0+255),w,b
  4654   000ADC  5DDB               	subwf	efgtoa@g& (0+255),w,b
  4655   000ADE  6E1F               	movwf	labs@a^0,c
  4656   000AE0  51E2               	movf	(efgtoa@u+1)& (0+255),w,b
  4657   000AE2  59DC               	subwfb	(efgtoa@g+1)& (0+255),w,b
  4658   000AE4  6E20               	movwf	(labs@a+1)^0,c
  4659   000AE6  51E3               	movf	(efgtoa@u+2)& (0+255),w,b
  4660   000AE8  59DD               	subwfb	(efgtoa@g+2)& (0+255),w,b
  4661   000AEA  6E21               	movwf	(labs@a+2)^0,c
  4662   000AEC  51E4               	movf	(efgtoa@u+3)& (0+255),w,b
  4663   000AEE  59DE               	subwfb	(efgtoa@g+3)& (0+255),w,b
  4664   000AF0  6E22               	movwf	(labs@a+3)^0,c
  4665   000AF2  EC87  F021         	call	_labs	;wreg free
  4666   000AF6  BE22               	btfsc	(?_labs+3)^0,7,c
  4667   000AF8  EF8B  F005         	goto	u7670
  4668   000AFC  5022               	movf	(?_labs+3)^0,w,c
  4669   000AFE  1021               	iorwf	(?_labs+2)^0,w,c
  4670   000B00  1020               	iorwf	(?_labs+1)^0,w,c
  4671   000B02  E107               	bnz	u7671
  4672   000B04  0E02               	movlw	2
  4673   000B06  5C1F               	subwf	?_labs^0,w,c
  4674   000B08  B0D8               	btfsc	status,0,c
  4675   000B0A  EF89  F005         	goto	u7671
  4676   000B0E  EF8B  F005         	goto	u7670
  4677   000B12                     u7671:
  4678   000B12  EFD3  F005         	goto	l6720
  4679   000B16                     u7670:
  4680   000B16                     l6710:
  4681                           
  4682                           ;C:\Program Files\Microchip\xc8\v2.41\pic\sources\c99\common\doprnt.c: 609:    g = u;
  4683   000B16  C0E1  F0DB         	movff	efgtoa@u,efgtoa@g
  4684   000B1A  C0E2  F0DC         	movff	efgtoa@u+1,efgtoa@g+1
  4685   000B1E  C0E3  F0DD         	movff	efgtoa@u+2,efgtoa@g+2
  4686   000B22  C0E4  F0DE         	movff	efgtoa@u+3,efgtoa@g+3
  4687                           
  4688                           ;C:\Program Files\Microchip\xc8\v2.41\pic\sources\c99\common\doprnt.c: 610:   }
  4689   000B26  EFED  F005         	goto	l1348
  4690   000B2A                     l6712:
  4691                           
  4692                           ; BSR set to: 0
  4693                           ;C:\Program Files\Microchip\xc8\v2.41\pic\sources\c99\common\doprnt.c: 613:     u.f = u.
      +                          f/10.0;
  4694   000B2A  C0E1  F083         	movff	efgtoa@u,___fldiv@b
  4695   000B2E  C0E2  F084         	movff	efgtoa@u+1,___fldiv@b+1
  4696   000B32  C0E3  F085         	movff	efgtoa@u+2,___fldiv@b+2
  4697   000B36  C0E4  F086         	movff	efgtoa@u+3,___fldiv@b+3
  4698   000B3A  0E00               	movlw	0
  4699   000B3C  6F87               	movwf	___fldiv@a& (0+255),b
  4700   000B3E  0E00               	movlw	0
  4701   000B40  6F88               	movwf	(___fldiv@a+1)& (0+255),b
  4702   000B42  0E20               	movlw	32
  4703   000B44  6F89               	movwf	(___fldiv@a+2)& (0+255),b
  4704   000B46  0E41               	movlw	65
  4705   000B48  6F8A               	movwf	(___fldiv@a+3)& (0+255),b
  4706   000B4A  EC46  F016         	call	___fldiv	;wreg free
  4707   000B4E  C083  F0E1         	movff	?___fldiv,efgtoa@u
  4708   000B52  C084  F0E2         	movff	?___fldiv+1,efgtoa@u+1
  4709   000B56  C085  F0E3         	movff	?___fldiv+2,efgtoa@u+2
  4710   000B5A  C086  F0E4         	movff	?___fldiv+3,efgtoa@u+3
  4711   000B5E                     
  4712                           ;C:\Program Files\Microchip\xc8\v2.41\pic\sources\c99\common\doprnt.c: 614:     --e;
  4713   000B5E  0100               	movlb	0	; () banked
  4714   000B60  07C8               	decf	efgtoa@e& (0+255),f,b
  4715   000B62  A0D8               	btfss	status,0,c
  4716   000B64  07C9               	decf	(efgtoa@e+1)& (0+255),f,b
  4717   000B66                     
  4718                           ; BSR set to: 0
  4719                           ;C:\Program Files\Microchip\xc8\v2.41\pic\sources\c99\common\doprnt.c: 615:     if ((lab
      +                          s((g).u-(u).u) <= 1)) {
  4720   000B66  51E1               	movf	efgtoa@u& (0+255),w,b
  4721   000B68  5DDB               	subwf	efgtoa@g& (0+255),w,b
  4722   000B6A  6E1F               	movwf	labs@a^0,c
  4723   000B6C  51E2               	movf	(efgtoa@u+1)& (0+255),w,b
  4724   000B6E  59DC               	subwfb	(efgtoa@g+1)& (0+255),w,b
  4725   000B70  6E20               	movwf	(labs@a+1)^0,c
  4726   000B72  51E3               	movf	(efgtoa@u+2)& (0+255),w,b
  4727   000B74  59DD               	subwfb	(efgtoa@g+2)& (0+255),w,b
  4728   000B76  6E21               	movwf	(labs@a+2)^0,c
  4729   000B78  51E4               	movf	(efgtoa@u+3)& (0+255),w,b
  4730   000B7A  59DE               	subwfb	(efgtoa@g+3)& (0+255),w,b
  4731   000B7C  6E22               	movwf	(labs@a+3)^0,c
  4732   000B7E  EC87  F021         	call	_labs	;wreg free
  4733   000B82  BE22               	btfsc	(?_labs+3)^0,7,c
  4734   000B84  EFD1  F005         	goto	u7680
  4735   000B88  5022               	movf	(?_labs+3)^0,w,c
  4736   000B8A  1021               	iorwf	(?_labs+2)^0,w,c
  4737   000B8C  1020               	iorwf	(?_labs+1)^0,w,c
  4738   000B8E  E107               	bnz	u7681
  4739   000B90  0E02               	movlw	2
  4740   000B92  5C1F               	subwf	?_labs^0,w,c
  4741   000B94  B0D8               	btfsc	status,0,c
  4742   000B96  EFCF  F005         	goto	u7681
  4743   000B9A  EFD1  F005         	goto	u7680
  4744   000B9E                     u7681:
  4745   000B9E  EFD3  F005         	goto	l6720
  4746   000BA2                     u7680:
  4747   000BA2  EF8B  F005         	goto	l6710
  4748   000BA6                     l6720:
  4749                           
  4750                           ;C:\Program Files\Microchip\xc8\v2.41\pic\sources\c99\common\doprnt.c: 612:    while (g.
      +                          f < u.f) {
  4751   000BA6  C0DB  F083         	movff	efgtoa@g,___flge@ff1
  4752   000BAA  C0DC  F084         	movff	efgtoa@g+1,___flge@ff1+1
  4753   000BAE  C0DD  F085         	movff	efgtoa@g+2,___flge@ff1+2
  4754   000BB2  C0DE  F086         	movff	efgtoa@g+3,___flge@ff1+3
  4755   000BB6  C0E1  F087         	movff	efgtoa@u,___flge@ff2
  4756   000BBA  C0E2  F088         	movff	efgtoa@u+1,___flge@ff2+1
  4757   000BBE  C0E3  F089         	movff	efgtoa@u+2,___flge@ff2+2
  4758   000BC2  C0E4  F08A         	movff	efgtoa@u+3,___flge@ff2+3
  4759   000BC6  EC00  F01C         	call	___flge	;wreg free
  4760   000BCA  0100               	movlb	0	; () banked
  4761   000BCC  A0D8               	btfss	status,0,c
  4762   000BCE  EFEB  F005         	goto	u7691
  4763   000BD2  EFED  F005         	goto	u7690
  4764   000BD6                     u7691:
  4765   000BD6  EF95  F005         	goto	l6712
  4766   000BDA                     u7690:
  4767   000BDA                     l1348:
  4768                           
  4769                           ;C:\Program Files\Microchip\xc8\v2.41\pic\sources\c99\common\doprnt.c: 627:  mode = c;
  4770   000BDA  C0B6  F0C2         	movff	efgtoa@c,efgtoa@mode
  4771                           
  4772                           ;C:\Program Files\Microchip\xc8\v2.41\pic\sources\c99\common\doprnt.c: 629:     nmode = 
      +                          mode;
  4773   000BDE  C0C2  F0C3         	movff	efgtoa@mode,efgtoa@nmode
  4774   000BE2                     
  4775                           ;C:\Program Files\Microchip\xc8\v2.41\pic\sources\c99\common\doprnt.c: 639:  {;C:\Progra
      +                          m Files\Microchip\xc8\v2.41\pic\sources\c99\common\doprnt.c: 640:         p = (prec < 0)
      +                           ? 6 : prec;
  4776   000BE2  BE27               	btfsc	(_prec+1)^0,7,c
  4777   000BE4  EFF6  F005         	goto	u7701
  4778   000BE8  EFF8  F005         	goto	u7700
  4779   000BEC                     u7701:
  4780   000BEC  EFFE  F005         	goto	l6726
  4781   000BF0                     u7700:
  4782   000BF0  C026  F0BB         	movff	_prec,efgtoa@p
  4783   000BF4  C027  F0BC         	movff	_prec+1,efgtoa@p+1
  4784   000BF8  EF03  F006         	goto	l6728
  4785   000BFC                     l6726:
  4786   000BFC  0E00               	movlw	0
  4787   000BFE  0100               	movlb	0	; () banked
  4788   000C00  6FBC               	movwf	(efgtoa@p+1)& (0+255),b
  4789   000C02  0E06               	movlw	6
  4790   000C04  6FBB               	movwf	efgtoa@p& (0+255),b
  4791   000C06                     l6728:
  4792                           
  4793                           ;C:\Program Files\Microchip\xc8\v2.41\pic\sources\c99\common\doprnt.c: 641:     };C:\Pro
      +                          gram Files\Microchip\xc8\v2.41\pic\sources\c99\common\doprnt.c: 655:     m = p;
  4794   000C06  C0BB  F0C6         	movff	efgtoa@p,efgtoa@m
  4795   000C0A  C0BC  F0C7         	movff	efgtoa@p+1,efgtoa@m+1
  4796   000C0E                     
  4797                           ;C:\Program Files\Microchip\xc8\v2.41\pic\sources\c99\common\doprnt.c: 659:  {;C:\Progra
      +                          m Files\Microchip\xc8\v2.41\pic\sources\c99\common\doprnt.c: 660:         ++m;
  4798   000C0E  0100               	movlb	0	; () banked
  4799   000C10  4BC6               	infsnz	efgtoa@m& (0+255),f,b
  4800   000C12  2BC7               	incf	(efgtoa@m+1)& (0+255),f,b
  4801   000C14                     
  4802                           ; BSR set to: 0
  4803                           ;C:\Program Files\Microchip\xc8\v2.41\pic\sources\c99\common\doprnt.c: 661:     };C:\Pro
      +                          gram Files\Microchip\xc8\v2.41\pic\sources\c99\common\doprnt.c: 665:     if (nmode == 'f
      +                          ') {
  4804   000C14  0E66               	movlw	102
  4805   000C16  19C3               	xorwf	efgtoa@nmode& (0+255),w,b
  4806   000C18  A4D8               	btfss	status,2,c
  4807   000C1A  EF11  F006         	goto	u7711
  4808   000C1E  EF13  F006         	goto	u7710
  4809   000C22                     u7711:
  4810   000C22  EF33  F006         	goto	l6742
  4811   000C26                     u7710:
  4812   000C26                     
  4813                           ; BSR set to: 0
  4814                           ;C:\Program Files\Microchip\xc8\v2.41\pic\sources\c99\common\doprnt.c: 666:         if (
      +                          e < 0) {
  4815   000C26  BFC9               	btfsc	(efgtoa@e+1)& (0+255),7,b
  4816   000C28  EF1A  F006         	goto	u7720
  4817   000C2C  EF18  F006         	goto	u7721
  4818   000C30                     u7721:
  4819   000C30  EF26  F006         	goto	l6738
  4820   000C34                     u7720:
  4821   000C34                     
  4822                           ; BSR set to: 0
  4823                           ;C:\Program Files\Microchip\xc8\v2.41\pic\sources\c99\common\doprnt.c: 667:             
      +                          u.f = 1.0;
  4824   000C34  0E00               	movlw	0
  4825   000C36  6FE1               	movwf	efgtoa@u& (0+255),b
  4826   000C38  0E00               	movlw	0
  4827   000C3A  6FE2               	movwf	(efgtoa@u+1)& (0+255),b
  4828   000C3C  0E80               	movlw	128
  4829   000C3E  6FE3               	movwf	(efgtoa@u+2)& (0+255),b
  4830   000C40  0E3F               	movlw	63
  4831   000C42  6FE4               	movwf	(efgtoa@u+3)& (0+255),b
  4832                           
  4833                           ;C:\Program Files\Microchip\xc8\v2.41\pic\sources\c99\common\doprnt.c: 668:             
      +                          e = 0;
  4834   000C44  0E00               	movlw	0
  4835   000C46  6FC9               	movwf	(efgtoa@e+1)& (0+255),b
  4836   000C48  0E00               	movlw	0
  4837   000C4A  6FC8               	movwf	efgtoa@e& (0+255),b
  4838   000C4C                     l6738:
  4839                           
  4840                           ; BSR set to: 0
  4841                           ;C:\Program Files\Microchip\xc8\v2.41\pic\sources\c99\common\doprnt.c: 670:         if (
      +                          !(mode == 'g')) {
  4842   000C4C  0E67               	movlw	103
  4843   000C4E  19C2               	xorwf	efgtoa@mode& (0+255),w,b
  4844   000C50  B4D8               	btfsc	status,2,c
  4845   000C52  EF2D  F006         	goto	u7731
  4846   000C56  EF2F  F006         	goto	u7730
  4847   000C5A                     u7731:
  4848   000C5A  EF33  F006         	goto	l6742
  4849   000C5E                     u7730:
  4850   000C5E                     
  4851                           ; BSR set to: 0
  4852                           ;C:\Program Files\Microchip\xc8\v2.41\pic\sources\c99\common\doprnt.c: 671:             
      +                          m += e;
  4853   000C5E  51C8               	movf	efgtoa@e& (0+255),w,b
  4854   000C60  27C6               	addwf	efgtoa@m& (0+255),f,b
  4855   000C62  51C9               	movf	(efgtoa@e+1)& (0+255),w,b
  4856   000C64  23C7               	addwfc	(efgtoa@m+1)& (0+255),f,b
  4857   000C66                     l6742:
  4858                           
  4859                           ; BSR set to: 0
  4860                           ;C:\Program Files\Microchip\xc8\v2.41\pic\sources\c99\common\doprnt.c: 677:     i = 0;
  4861   000C66  0E00               	movlw	0
  4862   000C68  6FD9               	movwf	(efgtoa@i+1)& (0+255),b
  4863   000C6A  0E00               	movlw	0
  4864   000C6C  6FD8               	movwf	efgtoa@i& (0+255),b
  4865   000C6E                     
  4866                           ; BSR set to: 0
  4867                           ;C:\Program Files\Microchip\xc8\v2.41\pic\sources\c99\common\doprnt.c: 678:     h = g.f;
  4868   000C6E  C0DB  F0D0         	movff	efgtoa@g,efgtoa@h
  4869   000C72  C0DC  F0D1         	movff	efgtoa@g+1,efgtoa@h+1
  4870   000C76  C0DD  F0D2         	movff	efgtoa@g+2,efgtoa@h+2
  4871   000C7A  C0DE  F0D3         	movff	efgtoa@g+3,efgtoa@h+3
  4872   000C7E                     
  4873                           ; BSR set to: 0
  4874                           ;C:\Program Files\Microchip\xc8\v2.41\pic\sources\c99\common\doprnt.c: 679:     ou = u;
  4875   000C7E  C0E1  F0CA         	movff	efgtoa@u,efgtoa@ou
  4876   000C82  C0E2  F0CB         	movff	efgtoa@u+1,efgtoa@ou+1
  4877   000C86  C0E3  F0CC         	movff	efgtoa@u+2,efgtoa@ou+2
  4878   000C8A  C0E4  F0CD         	movff	efgtoa@u+3,efgtoa@ou+3
  4879                           
  4880                           ;C:\Program Files\Microchip\xc8\v2.41\pic\sources\c99\common\doprnt.c: 680:     while (i
      +                           < m) {
  4881   000C8E  EFC5  F006         	goto	l6756
  4882   000C92                     l6748:
  4883                           
  4884                           ; BSR set to: 0
  4885                           ;C:\Program Files\Microchip\xc8\v2.41\pic\sources\c99\common\doprnt.c: 681:         l = 
      +                          floorf(h/u.f);
  4886   000C92  C0D0  F083         	movff	efgtoa@h,___fldiv@b
  4887   000C96  C0D1  F084         	movff	efgtoa@h+1,___fldiv@b+1
  4888   000C9A  C0D2  F085         	movff	efgtoa@h+2,___fldiv@b+2
  4889   000C9E  C0D3  F086         	movff	efgtoa@h+3,___fldiv@b+3
  4890   000CA2  C0E1  F087         	movff	efgtoa@u,___fldiv@a
  4891   000CA6  C0E2  F088         	movff	efgtoa@u+1,___fldiv@a+1
  4892   000CAA  C0E3  F089         	movff	efgtoa@u+2,___fldiv@a+2
  4893   000CAE  C0E4  F08A         	movff	efgtoa@u+3,___fldiv@a+3
  4894   000CB2  EC46  F016         	call	___fldiv	;wreg free
  4895   000CB6  C083  F09C         	movff	?___fldiv,floorf@x
  4896   000CBA  C084  F09D         	movff	?___fldiv+1,floorf@x+1
  4897   000CBE  C085  F09E         	movff	?___fldiv+2,floorf@x+2
  4898   000CC2  C086  F09F         	movff	?___fldiv+3,floorf@x+3
  4899   000CC6  EC14  F018         	call	_floorf	;wreg free
  4900   000CCA  C09C  F0D4         	movff	?_floorf,efgtoa@l
  4901   000CCE  C09D  F0D5         	movff	?_floorf+1,efgtoa@l+1
  4902   000CD2  C09E  F0D6         	movff	?_floorf+2,efgtoa@l+2
  4903   000CD6  C09F  F0D7         	movff	?_floorf+3,efgtoa@l+3
  4904                           
  4905                           ;C:\Program Files\Microchip\xc8\v2.41\pic\sources\c99\common\doprnt.c: 682:         d = 
      +                          (int)l;
  4906   000CDA  C0D4  F09C         	movff	efgtoa@l,___fltol@f1
  4907   000CDE  C0D5  F09D         	movff	efgtoa@l+1,___fltol@f1+1
  4908   000CE2  C0D6  F09E         	movff	efgtoa@l+2,___fltol@f1+2
  4909   000CE6  C0D7  F09F         	movff	efgtoa@l+3,___fltol@f1+3
  4910   000CEA  EC7C  F01B         	call	___fltol	;wreg free
  4911   000CEE  C09C  F0C4         	movff	?___fltol,efgtoa@d
  4912   000CF2  C09D  F0C5         	movff	?___fltol+1,efgtoa@d+1
  4913   000CF6                     
  4914                           ;C:\Program Files\Microchip\xc8\v2.41\pic\sources\c99\common\doprnt.c: 683:         h -=
      +                           l*u.f;
  4915   000CF6  C0D0  F083         	movff	efgtoa@h,___flsub@b
  4916   000CFA  C0D1  F084         	movff	efgtoa@h+1,___flsub@b+1
  4917   000CFE  C0D2  F085         	movff	efgtoa@h+2,___flsub@b+2
  4918   000D02  C0D3  F086         	movff	efgtoa@h+3,___flsub@b+3
  4919   000D06  C0D4  F06E         	movff	efgtoa@l,___flmul@a
  4920   000D0A  C0D5  F06F         	movff	efgtoa@l+1,___flmul@a+1
  4921   000D0E  C0D6  F070         	movff	efgtoa@l+2,___flmul@a+2
  4922   000D12  C0D7  F071         	movff	efgtoa@l+3,___flmul@a+3
  4923   000D16  C0E1  F06A         	movff	efgtoa@u,___flmul@b
  4924   000D1A  C0E2  F06B         	movff	efgtoa@u+1,___flmul@b+1
  4925   000D1E  C0E3  F06C         	movff	efgtoa@u+2,___flmul@b+2
  4926   000D22  C0E4  F06D         	movff	efgtoa@u+3,___flmul@b+3
  4927   000D26  EC1B  F012         	call	___flmul	;wreg free
  4928   000D2A  C06A  F087         	movff	?___flmul,___flsub@a
  4929   000D2E  C06B  F088         	movff	?___flmul+1,___flsub@a+1
  4930   000D32  C06C  F089         	movff	?___flmul+2,___flsub@a+2
  4931   000D36  C06D  F08A         	movff	?___flmul+3,___flsub@a+3
  4932   000D3A  ECF8  F022         	call	___flsub	;wreg free
  4933   000D3E  C083  F0D0         	movff	?___flsub,efgtoa@h
  4934   000D42  C084  F0D1         	movff	?___flsub+1,efgtoa@h+1
  4935   000D46  C085  F0D2         	movff	?___flsub+2,efgtoa@h+2
  4936   000D4A  C086  F0D3         	movff	?___flsub+3,efgtoa@h+3
  4937   000D4E                     
  4938                           ;C:\Program Files\Microchip\xc8\v2.41\pic\sources\c99\common\doprnt.c: 684:         u.f 
      +                          = u.f/10.0;
  4939   000D4E  C0E1  F083         	movff	efgtoa@u,___fldiv@b
  4940   000D52  C0E2  F084         	movff	efgtoa@u+1,___fldiv@b+1
  4941   000D56  C0E3  F085         	movff	efgtoa@u+2,___fldiv@b+2
  4942   000D5A  C0E4  F086         	movff	efgtoa@u+3,___fldiv@b+3
  4943   000D5E  0E00               	movlw	0
  4944   000D60  0100               	movlb	0	; () banked
  4945   000D62  6F87               	movwf	___fldiv@a& (0+255),b
  4946   000D64  0E00               	movlw	0
  4947   000D66  6F88               	movwf	(___fldiv@a+1)& (0+255),b
  4948   000D68  0E20               	movlw	32
  4949   000D6A  6F89               	movwf	(___fldiv@a+2)& (0+255),b
  4950   000D6C  0E41               	movlw	65
  4951   000D6E  6F8A               	movwf	(___fldiv@a+3)& (0+255),b
  4952   000D70  EC46  F016         	call	___fldiv	;wreg free
  4953   000D74  C083  F0E1         	movff	?___fldiv,efgtoa@u
  4954   000D78  C084  F0E2         	movff	?___fldiv+1,efgtoa@u+1
  4955   000D7C  C085  F0E3         	movff	?___fldiv+2,efgtoa@u+2
  4956   000D80  C086  F0E4         	movff	?___fldiv+3,efgtoa@u+3
  4957   000D84                     
  4958                           ;C:\Program Files\Microchip\xc8\v2.41\pic\sources\c99\common\doprnt.c: 685:         ++i;
  4959   000D84  0100               	movlb	0	; () banked
  4960   000D86  4BD8               	infsnz	efgtoa@i& (0+255),f,b
  4961   000D88  2BD9               	incf	(efgtoa@i+1)& (0+255),f,b
  4962   000D8A                     l6756:
  4963                           
  4964                           ; BSR set to: 0
  4965                           ;C:\Program Files\Microchip\xc8\v2.41\pic\sources\c99\common\doprnt.c: 680:     while (i
      +                           < m) {
  4966   000D8A  51C6               	movf	efgtoa@m& (0+255),w,b
  4967   000D8C  5DD8               	subwf	efgtoa@i& (0+255),w,b
  4968   000D8E  51D9               	movf	(efgtoa@i+1)& (0+255),w,b
  4969   000D90  0A80               	xorlw	128
  4970   000D92  6FB7               	movwf	??_efgtoa& (0+255),b
  4971   000D94  51C7               	movf	(efgtoa@m+1)& (0+255),w,b
  4972   000D96  0A80               	xorlw	128
  4973   000D98  59B7               	subwfb	??_efgtoa& (0+255),w,b
  4974   000D9A  A0D8               	btfss	status,0,c
  4975   000D9C  EFD2  F006         	goto	u7741
  4976   000DA0  EFD4  F006         	goto	u7740
  4977   000DA4                     u7741:
  4978   000DA4  EF49  F006         	goto	l6748
  4979   000DA8                     u7740:
  4980   000DA8                     
  4981                           ; BSR set to: 0
  4982                           ;C:\Program Files\Microchip\xc8\v2.41\pic\sources\c99\common\doprnt.c: 689:     l = u.f*
      +                          5.0;
  4983   000DA8  C0E1  F06A         	movff	efgtoa@u,___flmul@b
  4984   000DAC  C0E2  F06B         	movff	efgtoa@u+1,___flmul@b+1
  4985   000DB0  C0E3  F06C         	movff	efgtoa@u+2,___flmul@b+2
  4986   000DB4  C0E4  F06D         	movff	efgtoa@u+3,___flmul@b+3
  4987   000DB8  0E00               	movlw	0
  4988   000DBA  6F6E               	movwf	___flmul@a& (0+255),b
  4989   000DBC  0E00               	movlw	0
  4990   000DBE  6F6F               	movwf	(___flmul@a+1)& (0+255),b
  4991   000DC0  0EA0               	movlw	160
  4992   000DC2  6F70               	movwf	(___flmul@a+2)& (0+255),b
  4993   000DC4  0E40               	movlw	64
  4994   000DC6  6F71               	movwf	(___flmul@a+3)& (0+255),b
  4995   000DC8  EC1B  F012         	call	___flmul	;wreg free
  4996   000DCC  C06A  F0D4         	movff	?___flmul,efgtoa@l
  4997   000DD0  C06B  F0D5         	movff	?___flmul+1,efgtoa@l+1
  4998   000DD4  C06C  F0D6         	movff	?___flmul+2,efgtoa@l+2
  4999   000DD8  C06D  F0D7         	movff	?___flmul+3,efgtoa@l+3
  5000   000DDC                     
  5001                           ;C:\Program Files\Microchip\xc8\v2.41\pic\sources\c99\common\doprnt.c: 690:     if (h < 
      +                          l) {
  5002   000DDC  C0D0  F083         	movff	efgtoa@h,___flge@ff1
  5003   000DE0  C0D1  F084         	movff	efgtoa@h+1,___flge@ff1+1
  5004   000DE4  C0D2  F085         	movff	efgtoa@h+2,___flge@ff1+2
  5005   000DE8  C0D3  F086         	movff	efgtoa@h+3,___flge@ff1+3
  5006   000DEC  C0D4  F087         	movff	efgtoa@l,___flge@ff2
  5007   000DF0  C0D5  F088         	movff	efgtoa@l+1,___flge@ff2+1
  5008   000DF4  C0D6  F089         	movff	efgtoa@l+2,___flge@ff2+2
  5009   000DF8  C0D7  F08A         	movff	efgtoa@l+3,___flge@ff2+3
  5010   000DFC  EC00  F01C         	call	___flge	;wreg free
  5011   000E00  0100               	movlb	0	; () banked
  5012   000E02  B0D8               	btfsc	status,0,c
  5013   000E04  EF06  F007         	goto	u7751
  5014   000E08  EF08  F007         	goto	u7750
  5015   000E0C                     u7751:
  5016   000E0C  EF12  F007         	goto	l6764
  5017   000E10                     u7750:
  5018   000E10                     
  5019                           ; BSR set to: 0
  5020                           ;C:\Program Files\Microchip\xc8\v2.41\pic\sources\c99\common\doprnt.c: 691:         l = 
      +                          0.0;
  5021   000E10  0E00               	movlw	0
  5022   000E12  6FD4               	movwf	efgtoa@l& (0+255),b
  5023   000E14  0E00               	movlw	0
  5024   000E16  6FD5               	movwf	(efgtoa@l+1)& (0+255),b
  5025   000E18  0E00               	movlw	0
  5026   000E1A  6FD6               	movwf	(efgtoa@l+2)& (0+255),b
  5027   000E1C  0E00               	movlw	0
  5028   000E1E  6FD7               	movwf	(efgtoa@l+3)& (0+255),b
  5029                           
  5030                           ;C:\Program Files\Microchip\xc8\v2.41\pic\sources\c99\common\doprnt.c: 692:     } else {
  5031   000E20  EF3B  F007         	goto	l6770
  5032   000E24                     l6764:
  5033                           
  5034                           ; BSR set to: 0
  5035                           ;C:\Program Files\Microchip\xc8\v2.41\pic\sources\c99\common\doprnt.c: 694:         if (
      +                          (h == l) && !(d % 2)) {
  5036   000E24  C0D0  F060         	movff	efgtoa@h,___fleq@ff1
  5037   000E28  C0D1  F061         	movff	efgtoa@h+1,___fleq@ff1+1
  5038   000E2C  C0D2  F062         	movff	efgtoa@h+2,___fleq@ff1+2
  5039   000E30  C0D3  F063         	movff	efgtoa@h+3,___fleq@ff1+3
  5040   000E34  C0D4  F064         	movff	efgtoa@l,___fleq@ff2
  5041   000E38  C0D5  F065         	movff	efgtoa@l+1,___fleq@ff2+1
  5042   000E3C  C0D6  F066         	movff	efgtoa@l+2,___fleq@ff2+2
  5043   000E40  C0D7  F067         	movff	efgtoa@l+3,___fleq@ff2+3
  5044   000E44  EC2F  F020         	call	___fleq	;wreg free
  5045   000E48  0100               	movlb	0	; () banked
  5046   000E4A  A0D8               	btfss	status,0,c
  5047   000E4C  EF2A  F007         	goto	u7761
  5048   000E50  EF2C  F007         	goto	u7760
  5049   000E54                     u7761:
  5050   000E54  EF3B  F007         	goto	l6770
  5051   000E58                     u7760:
  5052   000E58                     
  5053                           ; BSR set to: 0
  5054   000E58  B1C4               	btfsc	efgtoa@d& (0+255),0,b
  5055   000E5A  EF31  F007         	goto	u7771
  5056   000E5E  EF33  F007         	goto	u7770
  5057   000E62                     u7771:
  5058   000E62  EF3B  F007         	goto	l6770
  5059   000E66                     u7770:
  5060   000E66                     
  5061                           ; BSR set to: 0
  5062                           ;C:\Program Files\Microchip\xc8\v2.41\pic\sources\c99\common\doprnt.c: 695:             
      +                          l = 0.0;
  5063   000E66  0E00               	movlw	0
  5064   000E68  6FD4               	movwf	efgtoa@l& (0+255),b
  5065   000E6A  0E00               	movlw	0
  5066   000E6C  6FD5               	movwf	(efgtoa@l+1)& (0+255),b
  5067   000E6E  0E00               	movlw	0
  5068   000E70  6FD6               	movwf	(efgtoa@l+2)& (0+255),b
  5069   000E72  0E00               	movlw	0
  5070   000E74  6FD7               	movwf	(efgtoa@l+3)& (0+255),b
  5071   000E76                     l6770:
  5072                           
  5073                           ; BSR set to: 0
  5074                           ;C:\Program Files\Microchip\xc8\v2.41\pic\sources\c99\common\doprnt.c: 700:     h = g.f 
      +                          + l;
  5075   000E76  C0DB  F060         	movff	efgtoa@g,___fladd@b
  5076   000E7A  C0DC  F061         	movff	efgtoa@g+1,___fladd@b+1
  5077   000E7E  C0DD  F062         	movff	efgtoa@g+2,___fladd@b+2
  5078   000E82  C0DE  F063         	movff	efgtoa@g+3,___fladd@b+3
  5079   000E86  C0D4  F064         	movff	efgtoa@l,___fladd@a
  5080   000E8A  C0D5  F065         	movff	efgtoa@l+1,___fladd@a+1
  5081   000E8E  C0D6  F066         	movff	efgtoa@l+2,___fladd@a+2
  5082   000E92  C0D7  F067         	movff	efgtoa@l+3,___fladd@a+3
  5083   000E96  EC8B  F00D         	call	___fladd	;wreg free
  5084   000E9A  C060  F0D0         	movff	?___fladd,efgtoa@h
  5085   000E9E  C061  F0D1         	movff	?___fladd+1,efgtoa@h+1
  5086   000EA2  C062  F0D2         	movff	?___fladd+2,efgtoa@h+2
  5087   000EA6  C063  F0D3         	movff	?___fladd+3,efgtoa@h+3
  5088   000EAA                     
  5089                           ;C:\Program Files\Microchip\xc8\v2.41\pic\sources\c99\common\doprnt.c: 702:  if (h >= (o
      +                          u.f*10.0)) {
  5090   000EAA  C0D0  F083         	movff	efgtoa@h,___flge@ff1
  5091   000EAE  C0D1  F084         	movff	efgtoa@h+1,___flge@ff1+1
  5092   000EB2  C0D2  F085         	movff	efgtoa@h+2,___flge@ff1+2
  5093   000EB6  C0D3  F086         	movff	efgtoa@h+3,___flge@ff1+3
  5094   000EBA  0E00               	movlw	0
  5095   000EBC  0100               	movlb	0	; () banked
  5096   000EBE  6F6E               	movwf	___flmul@a& (0+255),b
  5097   000EC0  0E00               	movlw	0
  5098   000EC2  6F6F               	movwf	(___flmul@a+1)& (0+255),b
  5099   000EC4  0E20               	movlw	32
  5100   000EC6  6F70               	movwf	(___flmul@a+2)& (0+255),b
  5101   000EC8  0E41               	movlw	65
  5102   000ECA  6F71               	movwf	(___flmul@a+3)& (0+255),b
  5103   000ECC  C0CA  F06A         	movff	efgtoa@ou,___flmul@b
  5104   000ED0  C0CB  F06B         	movff	efgtoa@ou+1,___flmul@b+1
  5105   000ED4  C0CC  F06C         	movff	efgtoa@ou+2,___flmul@b+2
  5106   000ED8  C0CD  F06D         	movff	efgtoa@ou+3,___flmul@b+3
  5107   000EDC  EC1B  F012         	call	___flmul	;wreg free
  5108   000EE0  C06A  F087         	movff	?___flmul,___flge@ff2
  5109   000EE4  C06B  F088         	movff	?___flmul+1,___flge@ff2+1
  5110   000EE8  C06C  F089         	movff	?___flmul+2,___flge@ff2+2
  5111   000EEC  C06D  F08A         	movff	?___flmul+3,___flge@ff2+3
  5112   000EF0  EC00  F01C         	call	___flge	;wreg free
  5113   000EF4  0100               	movlb	0	; () banked
  5114   000EF6  A0D8               	btfss	status,0,c
  5115   000EF8  EF80  F007         	goto	u7781
  5116   000EFC  EF82  F007         	goto	u7780
  5117   000F00                     u7781:
  5118   000F00  EFAA  F007         	goto	l6782
  5119   000F04                     u7780:
  5120   000F04                     
  5121                           ; BSR set to: 0
  5122                           ;C:\Program Files\Microchip\xc8\v2.41\pic\sources\c99\common\doprnt.c: 703:   e++;
  5123   000F04  4BC8               	infsnz	efgtoa@e& (0+255),f,b
  5124   000F06  2BC9               	incf	(efgtoa@e+1)& (0+255),f,b
  5125   000F08                     
  5126                           ; BSR set to: 0
  5127                           ;C:\Program Files\Microchip\xc8\v2.41\pic\sources\c99\common\doprnt.c: 704:   ou.f *= 10
      +                          .0;
  5128   000F08  C0CA  F06A         	movff	efgtoa@ou,___flmul@b
  5129   000F0C  C0CB  F06B         	movff	efgtoa@ou+1,___flmul@b+1
  5130   000F10  C0CC  F06C         	movff	efgtoa@ou+2,___flmul@b+2
  5131   000F14  C0CD  F06D         	movff	efgtoa@ou+3,___flmul@b+3
  5132   000F18  0E00               	movlw	0
  5133   000F1A  6F6E               	movwf	___flmul@a& (0+255),b
  5134   000F1C  0E00               	movlw	0
  5135   000F1E  6F6F               	movwf	(___flmul@a+1)& (0+255),b
  5136   000F20  0E20               	movlw	32
  5137   000F22  6F70               	movwf	(___flmul@a+2)& (0+255),b
  5138   000F24  0E41               	movlw	65
  5139   000F26  6F71               	movwf	(___flmul@a+3)& (0+255),b
  5140   000F28  EC1B  F012         	call	___flmul	;wreg free
  5141   000F2C  C06A  F0CA         	movff	?___flmul,efgtoa@ou
  5142   000F30  C06B  F0CB         	movff	?___flmul+1,efgtoa@ou+1
  5143   000F34  C06C  F0CC         	movff	?___flmul+2,efgtoa@ou+2
  5144   000F38  C06D  F0CD         	movff	?___flmul+3,efgtoa@ou+3
  5145   000F3C                     
  5146                           ;C:\Program Files\Microchip\xc8\v2.41\pic\sources\c99\common\doprnt.c: 706:   if (nmode 
      +                          == 'f') {
  5147   000F3C  0E66               	movlw	102
  5148   000F3E  0100               	movlb	0	; () banked
  5149   000F40  19C3               	xorwf	efgtoa@nmode& (0+255),w,b
  5150   000F42  A4D8               	btfss	status,2,c
  5151   000F44  EFA6  F007         	goto	u7791
  5152   000F48  EFA8  F007         	goto	u7790
  5153   000F4C                     u7791:
  5154   000F4C  EFAA  F007         	goto	l6782
  5155   000F50                     u7790:
  5156   000F50                     
  5157                           ; BSR set to: 0
  5158                           ;C:\Program Files\Microchip\xc8\v2.41\pic\sources\c99\common\doprnt.c: 708:    m++;
  5159   000F50  4BC6               	infsnz	efgtoa@m& (0+255),f,b
  5160   000F52  2BC7               	incf	(efgtoa@m+1)& (0+255),f,b
  5161   000F54                     l6782:
  5162                           
  5163                           ; BSR set to: 0
  5164                           ;C:\Program Files\Microchip\xc8\v2.41\pic\sources\c99\common\doprnt.c: 714:     u = ou;
  5165   000F54  C0CA  F0E1         	movff	efgtoa@ou,efgtoa@u
  5166   000F58  C0CB  F0E2         	movff	efgtoa@ou+1,efgtoa@u+1
  5167   000F5C  C0CC  F0E3         	movff	efgtoa@ou+2,efgtoa@u+2
  5168   000F60  C0CD  F0E4         	movff	efgtoa@ou+3,efgtoa@u+3
  5169   000F64                     
  5170                           ; BSR set to: 0
  5171                           ;C:\Program Files\Microchip\xc8\v2.41\pic\sources\c99\common\doprnt.c: 718:  ne = e;
  5172   000F64  C0C8  F0B9         	movff	efgtoa@e,efgtoa@ne
  5173   000F68  C0C9  F0BA         	movff	efgtoa@e+1,efgtoa@ne+1
  5174   000F6C                     
  5175                           ; BSR set to: 0
  5176                           ;C:\Program Files\Microchip\xc8\v2.41\pic\sources\c99\common\doprnt.c: 720:     pp = 0;
  5177   000F6C  0E00               	movlw	0
  5178   000F6E  6FC1               	movwf	efgtoa@pp& (0+255),b
  5179   000F70                     
  5180                           ; BSR set to: 0
  5181                           ;C:\Program Files\Microchip\xc8\v2.41\pic\sources\c99\common\doprnt.c: 721:     t = 0;
  5182   000F70  0E00               	movlw	0
  5183   000F72  6FBE               	movwf	(efgtoa@t+1)& (0+255),b
  5184   000F74  0E00               	movlw	0
  5185   000F76  6FBD               	movwf	efgtoa@t& (0+255),b
  5186   000F78                     
  5187                           ; BSR set to: 0
  5188                           ;C:\Program Files\Microchip\xc8\v2.41\pic\sources\c99\common\doprnt.c: 722:     i = 0;
  5189   000F78  0E00               	movlw	0
  5190   000F7A  6FD9               	movwf	(efgtoa@i+1)& (0+255),b
  5191   000F7C  0E00               	movlw	0
  5192   000F7E  6FD8               	movwf	efgtoa@i& (0+255),b
  5193                           
  5194                           ;C:\Program Files\Microchip\xc8\v2.41\pic\sources\c99\common\doprnt.c: 723:     while ((
      +                          i < m) && (n < (80 - 5))) {
  5195   000F80  EFA8  F008         	goto	l6832
  5196   000F84                     l6792:
  5197                           
  5198                           ; BSR set to: 0
  5199                           ;C:\Program Files\Microchip\xc8\v2.41\pic\sources\c99\common\doprnt.c: 724:         l = 
      +                          floorf(h/u.f);
  5200   000F84  C0D0  F083         	movff	efgtoa@h,___fldiv@b
  5201   000F88  C0D1  F084         	movff	efgtoa@h+1,___fldiv@b+1
  5202   000F8C  C0D2  F085         	movff	efgtoa@h+2,___fldiv@b+2
  5203   000F90  C0D3  F086         	movff	efgtoa@h+3,___fldiv@b+3
  5204   000F94  C0E1  F087         	movff	efgtoa@u,___fldiv@a
  5205   000F98  C0E2  F088         	movff	efgtoa@u+1,___fldiv@a+1
  5206   000F9C  C0E3  F089         	movff	efgtoa@u+2,___fldiv@a+2
  5207   000FA0  C0E4  F08A         	movff	efgtoa@u+3,___fldiv@a+3
  5208   000FA4  EC46  F016         	call	___fldiv	;wreg free
  5209   000FA8  C083  F09C         	movff	?___fldiv,floorf@x
  5210   000FAC  C084  F09D         	movff	?___fldiv+1,floorf@x+1
  5211   000FB0  C085  F09E         	movff	?___fldiv+2,floorf@x+2
  5212   000FB4  C086  F09F         	movff	?___fldiv+3,floorf@x+3
  5213   000FB8  EC14  F018         	call	_floorf	;wreg free
  5214   000FBC  C09C  F0D4         	movff	?_floorf,efgtoa@l
  5215   000FC0  C09D  F0D5         	movff	?_floorf+1,efgtoa@l+1
  5216   000FC4  C09E  F0D6         	movff	?_floorf+2,efgtoa@l+2
  5217   000FC8  C09F  F0D7         	movff	?_floorf+3,efgtoa@l+3
  5218                           
  5219                           ;C:\Program Files\Microchip\xc8\v2.41\pic\sources\c99\common\doprnt.c: 725:         d = 
      +                          (int)l > 9 ? 9 : (int)l;
  5220   000FCC  C0D4  F09C         	movff	efgtoa@l,___fltol@f1
  5221   000FD0  C0D5  F09D         	movff	efgtoa@l+1,___fltol@f1+1
  5222   000FD4  C0D6  F09E         	movff	efgtoa@l+2,___fltol@f1+2
  5223   000FD8  C0D7  F09F         	movff	efgtoa@l+3,___fltol@f1+3
  5224   000FDC  EC7C  F01B         	call	___fltol	;wreg free
  5225   000FE0  0100               	movlb	0	; () banked
  5226   000FE2  BF9D               	btfsc	(?___fltol+1)& (0+255),7,b
  5227   000FE4  EFFF  F007         	goto	u7800
  5228   000FE8  519D               	movf	(?___fltol+1)& (0+255),w,b
  5229   000FEA  E107               	bnz	u7801
  5230   000FEC  0E0A               	movlw	10
  5231   000FEE  5D9C               	subwf	?___fltol& (0+255),w,b
  5232   000FF0  B0D8               	btfsc	status,0,c
  5233   000FF2  EFFD  F007         	goto	u7801
  5234   000FF6  EFFF  F007         	goto	u7800
  5235   000FFA                     u7801:
  5236   000FFA  EF0F  F008         	goto	l6796
  5237   000FFE                     u7800:
  5238   000FFE                     
  5239                           ; BSR set to: 0
  5240   000FFE  C0D4  F09C         	movff	efgtoa@l,___fltol@f1
  5241   001002  C0D5  F09D         	movff	efgtoa@l+1,___fltol@f1+1
  5242   001006  C0D6  F09E         	movff	efgtoa@l+2,___fltol@f1+2
  5243   00100A  C0D7  F09F         	movff	efgtoa@l+3,___fltol@f1+3
  5244   00100E  EC7C  F01B         	call	___fltol	;wreg free
  5245   001012  C09C  F0C4         	movff	?___fltol,efgtoa@d
  5246   001016  C09D  F0C5         	movff	?___fltol+1,efgtoa@d+1
  5247   00101A  EF13  F008         	goto	l1378
  5248   00101E                     l6796:
  5249                           
  5250                           ; BSR set to: 0
  5251   00101E  0E00               	movlw	0
  5252   001020  6FC5               	movwf	(efgtoa@d+1)& (0+255),b
  5253   001022  0E09               	movlw	9
  5254   001024  6FC4               	movwf	efgtoa@d& (0+255),b
  5255   001026                     l1378:
  5256                           
  5257                           ;C:\Program Files\Microchip\xc8\v2.41\pic\sources\c99\common\doprnt.c: 736:   {;C:\Progr
      +                          am Files\Microchip\xc8\v2.41\pic\sources\c99\common\doprnt.c: 737:             if (!pp &
      +                          & (ne < 0)) {
  5258   001026  0100               	movlb	0	; () banked
  5259   001028  51C1               	movf	efgtoa@pp& (0+255),w,b
  5260   00102A  A4D8               	btfss	status,2,c
  5261   00102C  EF1A  F008         	goto	u7811
  5262   001030  EF1C  F008         	goto	u7810
  5263   001034                     u7811:
  5264   001034  EF44  F008         	goto	l6816
  5265   001038                     u7810:
  5266   001038                     
  5267                           ; BSR set to: 0
  5268   001038  BFBA               	btfsc	(efgtoa@ne+1)& (0+255),7,b
  5269   00103A  EF23  F008         	goto	u7820
  5270   00103E  EF21  F008         	goto	u7821
  5271   001042                     u7821:
  5272   001042  EF44  F008         	goto	l6816
  5273   001046                     u7820:
  5274   001046                     
  5275                           ; BSR set to: 0
  5276                           ;C:\Program Files\Microchip\xc8\v2.41\pic\sources\c99\common\doprnt.c: 738:             
      +                              dbuf[n++] = '.';
  5277   001046  0E78               	movlw	low _dbuf
  5278   001048  25DF               	addwf	efgtoa@n& (0+255),w,b
  5279   00104A  6ED9               	movwf	fsr2l,c
  5280   00104C  0E01               	movlw	high _dbuf
  5281   00104E  21E0               	addwfc	(efgtoa@n+1)& (0+255),w,b
  5282   001050  6EDA               	movwf	fsr2h,c
  5283   001052  0E2E               	movlw	46
  5284   001054  6EDF               	movwf	indf2,c
  5285   001056                     
  5286                           ; BSR set to: 0
  5287   001056  4BDF               	infsnz	efgtoa@n& (0+255),f,b
  5288   001058  2BE0               	incf	(efgtoa@n+1)& (0+255),f,b
  5289   00105A                     
  5290                           ; BSR set to: 0
  5291                           ;C:\Program Files\Microchip\xc8\v2.41\pic\sources\c99\common\doprnt.c: 739:             
      +                              --w;
  5292   00105A  07CE               	decf	efgtoa@w& (0+255),f,b
  5293   00105C  A0D8               	btfss	status,0,c
  5294   00105E  07CF               	decf	(efgtoa@w+1)& (0+255),f,b
  5295   001060                     
  5296                           ; BSR set to: 0
  5297                           ;C:\Program Files\Microchip\xc8\v2.41\pic\sources\c99\common\doprnt.c: 740:             
      +                              pp = 1;
  5298   001060  0E01               	movlw	1
  5299   001062  6FC1               	movwf	efgtoa@pp& (0+255),b
  5300   001064  EF44  F008         	goto	l6816
  5301   001068                     l6808:
  5302                           
  5303                           ; BSR set to: 0
  5304                           ;C:\Program Files\Microchip\xc8\v2.41\pic\sources\c99\common\doprnt.c: 743:             
      +                              dbuf[n++] = '0';
  5305   001068  0E78               	movlw	low _dbuf
  5306   00106A  25DF               	addwf	efgtoa@n& (0+255),w,b
  5307   00106C  6ED9               	movwf	fsr2l,c
  5308   00106E  0E01               	movlw	high _dbuf
  5309   001070  21E0               	addwfc	(efgtoa@n+1)& (0+255),w,b
  5310   001072  6EDA               	movwf	fsr2h,c
  5311   001074  0E30               	movlw	48
  5312   001076  6EDF               	movwf	indf2,c
  5313   001078                     
  5314                           ; BSR set to: 0
  5315   001078  4BDF               	infsnz	efgtoa@n& (0+255),f,b
  5316   00107A  2BE0               	incf	(efgtoa@n+1)& (0+255),f,b
  5317   00107C                     
  5318                           ; BSR set to: 0
  5319                           ;C:\Program Files\Microchip\xc8\v2.41\pic\sources\c99\common\doprnt.c: 744:             
      +                              --w;
  5320   00107C  07CE               	decf	efgtoa@w& (0+255),f,b
  5321   00107E  A0D8               	btfss	status,0,c
  5322   001080  07CF               	decf	(efgtoa@w+1)& (0+255),f,b
  5323   001082                     
  5324                           ; BSR set to: 0
  5325                           ;C:\Program Files\Microchip\xc8\v2.41\pic\sources\c99\common\doprnt.c: 745:             
      +                              --t;
  5326   001082  07BD               	decf	efgtoa@t& (0+255),f,b
  5327   001084  A0D8               	btfss	status,0,c
  5328   001086  07BE               	decf	(efgtoa@t+1)& (0+255),f,b
  5329   001088                     l6816:
  5330                           
  5331                           ; BSR set to: 0
  5332                           ;C:\Program Files\Microchip\xc8\v2.41\pic\sources\c99\common\doprnt.c: 742:             
      +                          while (t) {
  5333   001088  51BD               	movf	efgtoa@t& (0+255),w,b
  5334   00108A  11BE               	iorwf	(efgtoa@t+1)& (0+255),w,b
  5335   00108C  A4D8               	btfss	status,2,c
  5336   00108E  EF4B  F008         	goto	u7831
  5337   001092  EF4D  F008         	goto	u7830
  5338   001096                     u7831:
  5339   001096  EF34  F008         	goto	l6808
  5340   00109A                     u7830:
  5341   00109A                     
  5342                           ; BSR set to: 0
  5343                           ;C:\Program Files\Microchip\xc8\v2.41\pic\sources\c99\common\doprnt.c: 747:             
      +                          dbuf[n++] = (char)((int)'0' + d);
  5344   00109A  0E78               	movlw	low _dbuf
  5345   00109C  25DF               	addwf	efgtoa@n& (0+255),w,b
  5346   00109E  6ED9               	movwf	fsr2l,c
  5347   0010A0  0E01               	movlw	high _dbuf
  5348   0010A2  21E0               	addwfc	(efgtoa@n+1)& (0+255),w,b
  5349   0010A4  6EDA               	movwf	fsr2h,c
  5350   0010A6  51C4               	movf	efgtoa@d& (0+255),w,b
  5351   0010A8  0F30               	addlw	48
  5352   0010AA  6EDF               	movwf	indf2,c
  5353   0010AC                     
  5354                           ; BSR set to: 0
  5355   0010AC  4BDF               	infsnz	efgtoa@n& (0+255),f,b
  5356   0010AE  2BE0               	incf	(efgtoa@n+1)& (0+255),f,b
  5357   0010B0                     
  5358                           ; BSR set to: 0
  5359                           ;C:\Program Files\Microchip\xc8\v2.41\pic\sources\c99\common\doprnt.c: 748:             
      +                          --w;
  5360   0010B0  07CE               	decf	efgtoa@w& (0+255),f,b
  5361   0010B2  A0D8               	btfss	status,0,c
  5362   0010B4  07CF               	decf	(efgtoa@w+1)& (0+255),f,b
  5363   0010B6                     
  5364                           ; BSR set to: 0
  5365                           ;C:\Program Files\Microchip\xc8\v2.41\pic\sources\c99\common\doprnt.c: 749:         };C:
      +                          \Program Files\Microchip\xc8\v2.41\pic\sources\c99\common\doprnt.c: 750:         h -= l*
      +                          u.f;
  5366   0010B6  C0D0  F083         	movff	efgtoa@h,___flsub@b
  5367   0010BA  C0D1  F084         	movff	efgtoa@h+1,___flsub@b+1
  5368   0010BE  C0D2  F085         	movff	efgtoa@h+2,___flsub@b+2
  5369   0010C2  C0D3  F086         	movff	efgtoa@h+3,___flsub@b+3
  5370   0010C6  C0D4  F06E         	movff	efgtoa@l,___flmul@a
  5371   0010CA  C0D5  F06F         	movff	efgtoa@l+1,___flmul@a+1
  5372   0010CE  C0D6  F070         	movff	efgtoa@l+2,___flmul@a+2
  5373   0010D2  C0D7  F071         	movff	efgtoa@l+3,___flmul@a+3
  5374   0010D6  C0E1  F06A         	movff	efgtoa@u,___flmul@b
  5375   0010DA  C0E2  F06B         	movff	efgtoa@u+1,___flmul@b+1
  5376   0010DE  C0E3  F06C         	movff	efgtoa@u+2,___flmul@b+2
  5377   0010E2  C0E4  F06D         	movff	efgtoa@u+3,___flmul@b+3
  5378   0010E6  EC1B  F012         	call	___flmul	;wreg free
  5379   0010EA  C06A  F087         	movff	?___flmul,___flsub@a
  5380   0010EE  C06B  F088         	movff	?___flmul+1,___flsub@a+1
  5381   0010F2  C06C  F089         	movff	?___flmul+2,___flsub@a+2
  5382   0010F6  C06D  F08A         	movff	?___flmul+3,___flsub@a+3
  5383   0010FA  ECF8  F022         	call	___flsub	;wreg free
  5384   0010FE  C083  F0D0         	movff	?___flsub,efgtoa@h
  5385   001102  C084  F0D1         	movff	?___flsub+1,efgtoa@h+1
  5386   001106  C085  F0D2         	movff	?___flsub+2,efgtoa@h+2
  5387   00110A  C086  F0D3         	movff	?___flsub+3,efgtoa@h+3
  5388   00110E                     
  5389                           ;C:\Program Files\Microchip\xc8\v2.41\pic\sources\c99\common\doprnt.c: 751:         u.f 
      +                          = u.f/10.0;
  5390   00110E  C0E1  F083         	movff	efgtoa@u,___fldiv@b
  5391   001112  C0E2  F084         	movff	efgtoa@u+1,___fldiv@b+1
  5392   001116  C0E3  F085         	movff	efgtoa@u+2,___fldiv@b+2
  5393   00111A  C0E4  F086         	movff	efgtoa@u+3,___fldiv@b+3
  5394   00111E  0E00               	movlw	0
  5395   001120  0100               	movlb	0	; () banked
  5396   001122  6F87               	movwf	___fldiv@a& (0+255),b
  5397   001124  0E00               	movlw	0
  5398   001126  6F88               	movwf	(___fldiv@a+1)& (0+255),b
  5399   001128  0E20               	movlw	32
  5400   00112A  6F89               	movwf	(___fldiv@a+2)& (0+255),b
  5401   00112C  0E41               	movlw	65
  5402   00112E  6F8A               	movwf	(___fldiv@a+3)& (0+255),b
  5403   001130  EC46  F016         	call	___fldiv	;wreg free
  5404   001134  C083  F0E1         	movff	?___fldiv,efgtoa@u
  5405   001138  C084  F0E2         	movff	?___fldiv+1,efgtoa@u+1
  5406   00113C  C085  F0E3         	movff	?___fldiv+2,efgtoa@u+2
  5407   001140  C086  F0E4         	movff	?___fldiv+3,efgtoa@u+3
  5408   001144                     
  5409                           ;C:\Program Files\Microchip\xc8\v2.41\pic\sources\c99\common\doprnt.c: 752:         --ne
      +                          ;
  5410   001144  0100               	movlb	0	; () banked
  5411   001146  07B9               	decf	efgtoa@ne& (0+255),f,b
  5412   001148  A0D8               	btfss	status,0,c
  5413   00114A  07BA               	decf	(efgtoa@ne+1)& (0+255),f,b
  5414   00114C                     
  5415                           ; BSR set to: 0
  5416                           ;C:\Program Files\Microchip\xc8\v2.41\pic\sources\c99\common\doprnt.c: 753:         ++i;
  5417   00114C  4BD8               	infsnz	efgtoa@i& (0+255),f,b
  5418   00114E  2BD9               	incf	(efgtoa@i+1)& (0+255),f,b
  5419   001150                     l6832:
  5420                           
  5421                           ; BSR set to: 0
  5422                           ;C:\Program Files\Microchip\xc8\v2.41\pic\sources\c99\common\doprnt.c: 723:     while ((
      +                          i < m) && (n < (80 - 5))) {
  5423   001150  51C6               	movf	efgtoa@m& (0+255),w,b
  5424   001152  5DD8               	subwf	efgtoa@i& (0+255),w,b
  5425   001154  51D9               	movf	(efgtoa@i+1)& (0+255),w,b
  5426   001156  0A80               	xorlw	128
  5427   001158  6FB7               	movwf	??_efgtoa& (0+255),b
  5428   00115A  51C7               	movf	(efgtoa@m+1)& (0+255),w,b
  5429   00115C  0A80               	xorlw	128
  5430   00115E  59B7               	subwfb	??_efgtoa& (0+255),w,b
  5431   001160  B0D8               	btfsc	status,0,c
  5432   001162  EFB5  F008         	goto	u7841
  5433   001166  EFB7  F008         	goto	u7840
  5434   00116A                     u7841:
  5435   00116A  EFC5  F008         	goto	l6836
  5436   00116E                     u7840:
  5437   00116E                     
  5438                           ; BSR set to: 0
  5439   00116E  BFE0               	btfsc	(efgtoa@n+1)& (0+255),7,b
  5440   001170  EFC3  F008         	goto	u7851
  5441   001174  51E0               	movf	(efgtoa@n+1)& (0+255),w,b
  5442   001176  E109               	bnz	u7850
  5443   001178  0E4B               	movlw	75
  5444   00117A  5DDF               	subwf	efgtoa@n& (0+255),w,b
  5445   00117C  A0D8               	btfss	status,0,c
  5446   00117E  EFC3  F008         	goto	u7851
  5447   001182  EFC5  F008         	goto	u7850
  5448   001186                     u7851:
  5449   001186  EFC2  F007         	goto	l6792
  5450   00118A                     u7850:
  5451   00118A                     l6836:
  5452                           
  5453                           ; BSR set to: 0
  5454                           ;C:\Program Files\Microchip\xc8\v2.41\pic\sources\c99\common\doprnt.c: 760:  i = sizeof(
      +                          dbuf) - 1;
  5455   00118A  0E00               	movlw	0
  5456   00118C  6FD9               	movwf	(efgtoa@i+1)& (0+255),b
  5457   00118E  0E4F               	movlw	79
  5458   001190  6FD8               	movwf	efgtoa@i& (0+255),b
  5459   001192                     
  5460                           ; BSR set to: 0
  5461                           ;C:\Program Files\Microchip\xc8\v2.41\pic\sources\c99\common\doprnt.c: 761:     dbuf[i] 
      +                          = '\0';
  5462   001192  0E78               	movlw	low _dbuf
  5463   001194  25D8               	addwf	efgtoa@i& (0+255),w,b
  5464   001196  6ED9               	movwf	fsr2l,c
  5465   001198  0E01               	movlw	high _dbuf
  5466   00119A  21D9               	addwfc	(efgtoa@i+1)& (0+255),w,b
  5467   00119C  6EDA               	movwf	fsr2h,c
  5468   00119E  6ADF               	clrf	indf2,c
  5469   0011A0                     
  5470                           ; BSR set to: 0
  5471                           ;C:\Program Files\Microchip\xc8\v2.41\pic\sources\c99\common\doprnt.c: 792:  memcpy(&dbu
      +                          f[i-n], &dbuf[0], (size_t)n);
  5472   0011A0  0E78               	movlw	low _dbuf
  5473   0011A2  6FB7               	movwf	??_efgtoa& (0+255),b
  5474   0011A4  0E01               	movlw	high _dbuf
  5475   0011A6  6FB8               	movwf	(??_efgtoa+1)& (0+255),b
  5476   0011A8  51DF               	movf	efgtoa@n& (0+255),w,b
  5477   0011AA  5FB7               	subwf	??_efgtoa& (0+255),f,b
  5478   0011AC  51E0               	movf	(efgtoa@n+1)& (0+255),w,b
  5479   0011AE  5BB8               	subwfb	(??_efgtoa+1)& (0+255),f,b
  5480   0011B0  51D8               	movf	efgtoa@i& (0+255),w,b
  5481   0011B2  25B7               	addwf	??_efgtoa& (0+255),w,b
  5482   0011B4  6F60               	movwf	memcpy@d1& (0+255),b
  5483   0011B6  51D9               	movf	(efgtoa@i+1)& (0+255),w,b
  5484   0011B8  21B8               	addwfc	(??_efgtoa+1)& (0+255),w,b
  5485   0011BA  6F61               	movwf	(memcpy@d1+1)& (0+255),b
  5486   0011BC  0E78               	movlw	low _dbuf
  5487   0011BE  6F62               	movwf	memcpy@s1& (0+255),b
  5488   0011C0  0E01               	movlw	high _dbuf
  5489   0011C2  6F63               	movwf	(memcpy@s1+1)& (0+255),b
  5490   0011C4  C0DF  F064         	movff	efgtoa@n,memcpy@n
  5491   0011C8  C0E0  F065         	movff	efgtoa@n+1,memcpy@n+1
  5492   0011CC  ECA7  F022         	call	_memcpy	;wreg free
  5493   0011D0                     
  5494                           ;C:\Program Files\Microchip\xc8\v2.41\pic\sources\c99\common\doprnt.c: 793:  n = i-n;
  5495   0011D0  0100               	movlb	0	; () banked
  5496   0011D2  51DF               	movf	efgtoa@n& (0+255),w,b
  5497   0011D4  5DD8               	subwf	efgtoa@i& (0+255),w,b
  5498   0011D6  6FDF               	movwf	efgtoa@n& (0+255),b
  5499   0011D8  51E0               	movf	(efgtoa@n+1)& (0+255),w,b
  5500   0011DA  59D9               	subwfb	(efgtoa@i+1)& (0+255),w,b
  5501   0011DC  6FE0               	movwf	(efgtoa@n+1)& (0+255),b
  5502   0011DE                     
  5503                           ; BSR set to: 0
  5504                           ;C:\Program Files\Microchip\xc8\v2.41\pic\sources\c99\common\doprnt.c: 794:  i = sign ==
      +                           0 ? 0 : 1;
  5505   0011DE  51DA               	movf	efgtoa@sign& (0+255),w,b
  5506   0011E0  A4D8               	btfss	status,2,c
  5507   0011E2  EFF5  F008         	goto	u7861
  5508   0011E6  EFF8  F008         	goto	u7860
  5509   0011EA                     u7861:
  5510   0011EA  0E01               	movlw	1
  5511   0011EC  EFF9  F008         	goto	u7870
  5512   0011F0                     u7860:
  5513   0011F0  0E00               	movlw	0
  5514   0011F2                     u7870:
  5515   0011F2  6FD8               	movwf	efgtoa@i& (0+255),b
  5516   0011F4  6BD9               	clrf	(efgtoa@i+1)& (0+255),b
  5517   0011F6                     
  5518                           ; BSR set to: 0
  5519                           ;C:\Program Files\Microchip\xc8\v2.41\pic\sources\c99\common\doprnt.c: 797:  if (flags &
      +                           (1 << 1)) {
  5520   0011F6  A236               	btfss	_flags^0,1,c
  5521   0011F8  EF00  F009         	goto	u7881
  5522   0011FC  EF02  F009         	goto	u7880
  5523   001200                     u7881:
  5524   001200  EF30  F009         	goto	l6858
  5525   001204                     u7880:
  5526   001204  EF12  F009         	goto	l6854
  5527   001208                     l6850:
  5528                           
  5529                           ; BSR set to: 0
  5530                           ;C:\Program Files\Microchip\xc8\v2.41\pic\sources\c99\common\doprnt.c: 799:    dbuf[--n]
      +                           = '0';
  5531   001208  07DF               	decf	efgtoa@n& (0+255),f,b
  5532   00120A  A0D8               	btfss	status,0,c
  5533   00120C  07E0               	decf	(efgtoa@n+1)& (0+255),f,b
  5534   00120E  0E78               	movlw	low _dbuf
  5535   001210  25DF               	addwf	efgtoa@n& (0+255),w,b
  5536   001212  6ED9               	movwf	fsr2l,c
  5537   001214  0E01               	movlw	high _dbuf
  5538   001216  21E0               	addwfc	(efgtoa@n+1)& (0+255),w,b
  5539   001218  6EDA               	movwf	fsr2h,c
  5540   00121A  0E30               	movlw	48
  5541   00121C  6EDF               	movwf	indf2,c
  5542   00121E                     
  5543                           ; BSR set to: 0
  5544                           ;C:\Program Files\Microchip\xc8\v2.41\pic\sources\c99\common\doprnt.c: 800:    w--;
  5545   00121E  07CE               	decf	efgtoa@w& (0+255),f,b
  5546   001220  A0D8               	btfss	status,0,c
  5547   001222  07CF               	decf	(efgtoa@w+1)& (0+255),f,b
  5548   001224                     l6854:
  5549                           
  5550                           ; BSR set to: 0
  5551                           ;C:\Program Files\Microchip\xc8\v2.41\pic\sources\c99\common\doprnt.c: 798:   while (w >
      +                           i && n > i) {
  5552   001224  51CE               	movf	efgtoa@w& (0+255),w,b
  5553   001226  5DD8               	subwf	efgtoa@i& (0+255),w,b
  5554   001228  51D9               	movf	(efgtoa@i+1)& (0+255),w,b
  5555   00122A  0A80               	xorlw	128
  5556   00122C  6FB7               	movwf	??_efgtoa& (0+255),b
  5557   00122E  51CF               	movf	(efgtoa@w+1)& (0+255),w,b
  5558   001230  0A80               	xorlw	128
  5559   001232  59B7               	subwfb	??_efgtoa& (0+255),w,b
  5560   001234  B0D8               	btfsc	status,0,c
  5561   001236  EF1F  F009         	goto	u7891
  5562   00123A  EF21  F009         	goto	u7890
  5563   00123E                     u7891:
  5564   00123E  EF30  F009         	goto	l6858
  5565   001242                     u7890:
  5566   001242                     
  5567                           ; BSR set to: 0
  5568   001242  51DF               	movf	efgtoa@n& (0+255),w,b
  5569   001244  5DD8               	subwf	efgtoa@i& (0+255),w,b
  5570   001246  51D9               	movf	(efgtoa@i+1)& (0+255),w,b
  5571   001248  0A80               	xorlw	128
  5572   00124A  6FB7               	movwf	??_efgtoa& (0+255),b
  5573   00124C  51E0               	movf	(efgtoa@n+1)& (0+255),w,b
  5574   00124E  0A80               	xorlw	128
  5575   001250  59B7               	subwfb	??_efgtoa& (0+255),w,b
  5576   001252  A0D8               	btfss	status,0,c
  5577   001254  EF2E  F009         	goto	u7901
  5578   001258  EF30  F009         	goto	u7900
  5579   00125C                     u7901:
  5580   00125C  EF04  F009         	goto	l6850
  5581   001260                     u7900:
  5582   001260                     l6858:
  5583                           
  5584                           ; BSR set to: 0
  5585                           ;C:\Program Files\Microchip\xc8\v2.41\pic\sources\c99\common\doprnt.c: 805:  if (sign) {
  5586   001260  51DA               	movf	efgtoa@sign& (0+255),w,b
  5587   001262  B4D8               	btfsc	status,2,c
  5588   001264  EF36  F009         	goto	u7911
  5589   001268  EF38  F009         	goto	u7910
  5590   00126C                     u7911:
  5591   00126C  EF43  F009         	goto	l6862
  5592   001270                     u7910:
  5593   001270                     
  5594                           ; BSR set to: 0
  5595                           ;C:\Program Files\Microchip\xc8\v2.41\pic\sources\c99\common\doprnt.c: 806:   dbuf[--n] 
      +                          = sign;
  5596   001270  07DF               	decf	efgtoa@n& (0+255),f,b
  5597   001272  A0D8               	btfss	status,0,c
  5598   001274  07E0               	decf	(efgtoa@n+1)& (0+255),f,b
  5599   001276  0E78               	movlw	low _dbuf
  5600   001278  25DF               	addwf	efgtoa@n& (0+255),w,b
  5601   00127A  6ED9               	movwf	fsr2l,c
  5602   00127C  0E01               	movlw	high _dbuf
  5603   00127E  21E0               	addwfc	(efgtoa@n+1)& (0+255),w,b
  5604   001280  6EDA               	movwf	fsr2h,c
  5605   001282  C0DA  FFDF         	movff	efgtoa@sign,indf2
  5606   001286                     l6862:
  5607                           
  5608                           ; BSR set to: 0
  5609                           ;C:\Program Files\Microchip\xc8\v2.41\pic\sources\c99\common\doprnt.c: 808:  w -= i;
  5610   001286  51D8               	movf	efgtoa@i& (0+255),w,b
  5611   001288  5FCE               	subwf	efgtoa@w& (0+255),f,b
  5612   00128A  51D9               	movf	(efgtoa@i+1)& (0+255),w,b
  5613   00128C  5BCF               	subwfb	(efgtoa@w+1)& (0+255),f,b
  5614   00128E                     
  5615                           ; BSR set to: 0
  5616                           ;C:\Program Files\Microchip\xc8\v2.41\pic\sources\c99\common\doprnt.c: 811:     return (
      +                          void) pad(fp, &dbuf[n], w);
  5617   00128E  C0B0  F06C         	movff	efgtoa@fp,pad@fp
  5618   001292  C0B1  F06D         	movff	efgtoa@fp+1,pad@fp+1
  5619   001296  0E78               	movlw	low _dbuf
  5620   001298  25DF               	addwf	efgtoa@n& (0+255),w,b
  5621   00129A  6F6E               	movwf	pad@buf& (0+255),b
  5622   00129C  0E01               	movlw	high _dbuf
  5623   00129E  21E0               	addwfc	(efgtoa@n+1)& (0+255),w,b
  5624   0012A0  6F6F               	movwf	(pad@buf+1)& (0+255),b
  5625   0012A2  C0CE  F070         	movff	efgtoa@w,pad@p
  5626   0012A6  C0CF  F071         	movff	efgtoa@w+1,pad@p+1
  5627   0012AA  ECD8  F01F         	call	_pad	;wreg free
  5628   0012AE                     l1345:
  5629   0012AE  0012               	return		;funcret
  5630   0012B0                     __end_of_efgtoa:
  5631                           	callstack 0
  5632                           
  5633 ;; *************** function _strcpy *****************
  5634 ;; Defined at:
  5635 ;;		line 3 in file "C:\Program Files\Microchip\xc8\v2.41\pic\sources\c99\common\strcpy.c"
  5636 ;; Parameters:    Size  Location     Type
  5637 ;;  dest            2   30[COMRAM] PTR unsigned char 
  5638 ;;		 -> dbuf(80), 
  5639 ;;  src             2   32[COMRAM] PTR const unsigned char 
  5640 ;;		 -> STR_6(4), STR_3(4), 
  5641 ;; Auto vars:     Size  Location     Type
  5642 ;;  d               2    2[BANK0 ] PTR unsigned char 
  5643 ;;		 -> dbuf(80), 
  5644 ;;  s               2    0[BANK0 ] PTR const unsigned char 
  5645 ;;		 -> STR_6(4), STR_3(4), 
  5646 ;; Return value:  Size  Location     Type
  5647 ;;                  2   30[COMRAM] PTR unsigned char 
  5648 ;; Registers used:
  5649 ;;		wreg, fsr2l, fsr2h, status,2, status,0, tblptrl, tblptrh, tblptru
  5650 ;; Tracked objects:
  5651 ;;		On entry : 0/0
  5652 ;;		On exit  : 0/0
  5653 ;;		Unchanged: 0/0
  5654 ;; Data sizes:     COMRAM   BANK0   BANK1   BANK2   BANK3   BANK4   BANK5   BANK6   BANK7
  5655 ;;      Params:         4       0       0       0       0       0       0       0       0
  5656 ;;      Locals:         0       4       0       0       0       0       0       0       0
  5657 ;;      Temps:          0       0       0       0       0       0       0       0       0
  5658 ;;      Totals:         4       4       0       0       0       0       0       0       0
  5659 ;;Total ram usage:        8 bytes
  5660 ;; Hardware stack levels used: 1
  5661 ;; Hardware stack levels required when called: 4
  5662 ;; This function calls:
  5663 ;;		Nothing
  5664 ;; This function is called by:
  5665 ;;		_efgtoa
  5666 ;; This function uses a non-reentrant model
  5667 ;;
  5668                           
  5669                           	psect	text10
  5670   004680                     __ptext10:
  5671                           	callstack 0
  5672   004680                     _strcpy:
  5673                           	callstack 22
  5674   004680  C021  F060         	movff	strcpy@src,strcpy@s
  5675   004684  C022  F061         	movff	strcpy@src+1,strcpy@s+1
  5676   004688  C01F  F062         	movff	strcpy@dest,strcpy@d
  5677   00468C  C020  F063         	movff	strcpy@dest+1,strcpy@d+1
  5678   004690                     l6558:
  5679   004690  C060  FFF6         	movff	strcpy@s,tblptrl
  5680   004694  C061  FFF7         	movff	strcpy@s+1,tblptrh
  5681   004698  0100               	movlb	0	; () banked
  5682   00469A  4B60               	infsnz	strcpy@s& (0+255),f,b
  5683   00469C  2B61               	incf	(strcpy@s+1)& (0+255),f,b
  5684   00469E                     	if	0	;tblptru may be non-zero
  5685   00469E                     	endif
  5686   00469E                     	if	0	;tblptru may be non-zero
  5687   00469E                     	endif
  5688   00469E  C062  FFD9         	movff	strcpy@d,fsr2l
  5689   0046A2  C063  FFDA         	movff	strcpy@d+1,fsr2h
  5690   0046A6  4B62               	infsnz	strcpy@d& (0+255),f,b
  5691   0046A8  2B63               	incf	(strcpy@d+1)& (0+255),f,b
  5692   0046AA  0008               	tblrd		*
  5693   0046AC  CFF5 FFDF          	movff	tablat,indf2
  5694   0046B0  50DF               	movf	indf2,w,c
  5695   0046B2  A4D8               	btfss	status,2,c
  5696   0046B4  EF5E  F023         	goto	u7411
  5697   0046B8  EF60  F023         	goto	u7410
  5698   0046BC                     u7411:
  5699   0046BC  EF48  F023         	goto	l6558
  5700   0046C0                     u7410:
  5701   0046C0                     
  5702                           ; BSR set to: 0
  5703   0046C0  0012               	return		;funcret
  5704   0046C2                     __end_of_strcpy:
  5705                           	callstack 0
  5706                           
  5707 ;; *************** function _memcpy *****************
  5708 ;; Defined at:
  5709 ;;		line 4 in file "C:\Program Files\Microchip\xc8\v2.41\pic\sources\c99\common\memcpy.c"
  5710 ;; Parameters:    Size  Location     Type
  5711 ;;  d1              2    0[BANK0 ] PTR void 
  5712 ;;		 -> dbuf(80), 
  5713 ;;  s1              2    2[BANK0 ] PTR const void 
  5714 ;;		 -> dbuf(80), 
  5715 ;;  n               2    4[BANK0 ] unsigned int 
  5716 ;; Auto vars:     Size  Location     Type
  5717 ;;  s               2   33[COMRAM] PTR const unsigned char 
  5718 ;;		 -> dbuf(80), 
  5719 ;;  d               2   31[COMRAM] PTR unsigned char 
  5720 ;;		 -> dbuf(80), 
  5721 ;;  tmp             1   30[COMRAM] unsigned char 
  5722 ;; Return value:  Size  Location     Type
  5723 ;;                  2    0[BANK0 ] PTR void 
  5724 ;; Registers used:
  5725 ;;		wreg, fsr2l, fsr2h, status,2, status,0
  5726 ;; Tracked objects:
  5727 ;;		On entry : 0/0
  5728 ;;		On exit  : 0/0
  5729 ;;		Unchanged: 0/0
  5730 ;; Data sizes:     COMRAM   BANK0   BANK1   BANK2   BANK3   BANK4   BANK5   BANK6   BANK7
  5731 ;;      Params:         0       6       0       0       0       0       0       0       0
  5732 ;;      Locals:         5       0       0       0       0       0       0       0       0
  5733 ;;      Temps:          0       0       0       0       0       0       0       0       0
  5734 ;;      Totals:         5       6       0       0       0       0       0       0       0
  5735 ;;Total ram usage:       11 bytes
  5736 ;; Hardware stack levels used: 1
  5737 ;; Hardware stack levels required when called: 4
  5738 ;; This function calls:
  5739 ;;		Nothing
  5740 ;; This function is called by:
  5741 ;;		_efgtoa
  5742 ;; This function uses a non-reentrant model
  5743 ;;
  5744                           
  5745                           	psect	text11
  5746   00454E                     __ptext11:
  5747                           	callstack 0
  5748   00454E                     _memcpy:
  5749                           	callstack 22
  5750   00454E  C062  F022         	movff	memcpy@s1,memcpy@s
  5751   004552  C063  F023         	movff	memcpy@s1+1,memcpy@s+1
  5752   004556  C060  F020         	movff	memcpy@d1,memcpy@d
  5753   00455A  C061  F021         	movff	memcpy@d1+1,memcpy@d+1
  5754   00455E  EFC1  F022         	goto	l6574
  5755   004562                     l6566:
  5756                           
  5757                           ; BSR set to: 0
  5758   004562  C022  FFD9         	movff	memcpy@s,fsr2l
  5759   004566  C023  FFDA         	movff	memcpy@s+1,fsr2h
  5760   00456A  50DF               	movf	indf2,w,c
  5761   00456C  6E1F               	movwf	memcpy@tmp^0,c
  5762   00456E                     
  5763                           ; BSR set to: 0
  5764   00456E  4A22               	infsnz	memcpy@s^0,f,c
  5765   004570  2A23               	incf	(memcpy@s+1)^0,f,c
  5766   004572                     
  5767                           ; BSR set to: 0
  5768   004572  C020  FFD9         	movff	memcpy@d,fsr2l
  5769   004576  C021  FFDA         	movff	memcpy@d+1,fsr2h
  5770   00457A  C01F  FFDF         	movff	memcpy@tmp,indf2
  5771   00457E                     
  5772                           ; BSR set to: 0
  5773   00457E  4A20               	infsnz	memcpy@d^0,f,c
  5774   004580  2A21               	incf	(memcpy@d+1)^0,f,c
  5775   004582                     l6574:
  5776   004582  0100               	movlb	0	; () banked
  5777   004584  0764               	decf	memcpy@n& (0+255),f,b
  5778   004586  A0D8               	btfss	status,0,c
  5779   004588  0765               	decf	(memcpy@n+1)& (0+255),f,b
  5780   00458A  2964               	incf	memcpy@n& (0+255),w,b
  5781   00458C  E106               	bnz	u7431
  5782   00458E  2965               	incf	(memcpy@n+1)& (0+255),w,b
  5783   004590  A4D8               	btfss	status,2,c
  5784   004592  EFCD  F022         	goto	u7431
  5785   004596  EFCF  F022         	goto	u7430
  5786   00459A                     u7431:
  5787   00459A  EFB1  F022         	goto	l6566
  5788   00459E                     u7430:
  5789   00459E                     
  5790                           ; BSR set to: 0
  5791   00459E  0012               	return		;funcret
  5792   0045A0                     __end_of_memcpy:
  5793                           	callstack 0
  5794                           
  5795 ;; *************** function _labs *****************
  5796 ;; Defined at:
  5797 ;;		line 1 in file "C:\Program Files\Microchip\xc8\v2.41\pic\sources\c99\common\labs.c"
  5798 ;; Parameters:    Size  Location     Type
  5799 ;;  a               4   30[COMRAM] long 
  5800 ;; Auto vars:     Size  Location     Type
  5801 ;;		None
  5802 ;; Return value:  Size  Location     Type
  5803 ;;                  4   30[COMRAM] long 
  5804 ;; Registers used:
  5805 ;;		wreg, status,2, status,0
  5806 ;; Tracked objects:
  5807 ;;		On entry : 0/0
  5808 ;;		On exit  : 0/0
  5809 ;;		Unchanged: 0/0
  5810 ;; Data sizes:     COMRAM   BANK0   BANK1   BANK2   BANK3   BANK4   BANK5   BANK6   BANK7
  5811 ;;      Params:         4       0       0       0       0       0       0       0       0
  5812 ;;      Locals:         0       0       0       0       0       0       0       0       0
  5813 ;;      Temps:          0       4       0       0       0       0       0       0       0
  5814 ;;      Totals:         4       4       0       0       0       0       0       0       0
  5815 ;;Total ram usage:        8 bytes
  5816 ;; Hardware stack levels used: 1
  5817 ;; Hardware stack levels required when called: 4
  5818 ;; This function calls:
  5819 ;;		Nothing
  5820 ;; This function is called by:
  5821 ;;		_efgtoa
  5822 ;; This function uses a non-reentrant model
  5823 ;;
  5824                           
  5825                           	psect	text12
  5826   00430E                     __ptext12:
  5827                           	callstack 0
  5828   00430E                     _labs:
  5829                           	callstack 22
  5830   00430E  BE22               	btfsc	(labs@a+3)^0,7,c
  5831   004310  EF96  F021         	goto	u7420
  5832   004314  5022               	movf	(labs@a+3)^0,w,c
  5833   004316  1021               	iorwf	(labs@a+2)^0,w,c
  5834   004318  1020               	iorwf	(labs@a+1)^0,w,c
  5835   00431A  E106               	bnz	u7421
  5836   00431C  041F               	decf	labs@a^0,w,c
  5837   00431E  B0D8               	btfsc	status,0,c
  5838   004320  EF94  F021         	goto	u7421
  5839   004324  EF96  F021         	goto	u7420
  5840   004328                     u7421:
  5841   004328  EFB2  F021         	goto	l1494
  5842   00432C                     u7420:
  5843   00432C  C01F  F060         	movff	labs@a,??_labs
  5844   004330  C020  F061         	movff	labs@a+1,??_labs+1
  5845   004334  C021  F062         	movff	labs@a+2,??_labs+2
  5846   004338  C022  F063         	movff	labs@a+3,??_labs+3
  5847   00433C  0100               	movlb	0	; () banked
  5848   00433E  1F60               	comf	??_labs& (0+255),f,b
  5849   004340  1F61               	comf	(??_labs+1)& (0+255),f,b
  5850   004342  1F62               	comf	(??_labs+2)& (0+255),f,b
  5851   004344  1F63               	comf	(??_labs+3)& (0+255),f,b
  5852   004346  2B60               	incf	??_labs& (0+255),f,b
  5853   004348  0E00               	movlw	0
  5854   00434A  2361               	addwfc	(??_labs+1)& (0+255),f,b
  5855   00434C  2362               	addwfc	(??_labs+2)& (0+255),f,b
  5856   00434E  2363               	addwfc	(??_labs+3)& (0+255),f,b
  5857   004350  C060  F01F         	movff	??_labs,?_labs
  5858   004354  C061  F020         	movff	??_labs+1,?_labs+1
  5859   004358  C062  F021         	movff	??_labs+2,?_labs+2
  5860   00435C  C063  F022         	movff	??_labs+3,?_labs+3
  5861   004360  EFBA  F021         	goto	l1497
  5862   004364                     l1494:
  5863   004364  C01F  F01F         	movff	labs@a,?_labs
  5864   004368  C020  F020         	movff	labs@a+1,?_labs+1
  5865   00436C  C021  F021         	movff	labs@a+2,?_labs+2
  5866   004370  C022  F022         	movff	labs@a+3,?_labs+3
  5867   004374                     l1497:
  5868   004374  0012               	return		;funcret
  5869   004376                     __end_of_labs:
  5870                           	callstack 0
  5871                           
  5872 ;; *************** function _floorf *****************
  5873 ;; Defined at:
  5874 ;;		line 3 in file "C:\Program Files\Microchip\xc8\v2.41\pic\sources\c99\common\floorf.c"
  5875 ;; Parameters:    Size  Location     Type
  5876 ;;  x               4   60[BANK0 ] float 
  5877 ;; Auto vars:     Size  Location     Type
  5878 ;;  u               4   76[BANK0 ] struct .
  5879 ;;  m               4   70[BANK0 ] unsigned long 
  5880 ;;  e               2   74[BANK0 ] int 
  5881 ;; Return value:  Size  Location     Type
  5882 ;;                  4   60[BANK0 ] float 
  5883 ;; Registers used:
  5884 ;;		wreg, status,2, status,0
  5885 ;; Tracked objects:
  5886 ;;		On entry : 0/0
  5887 ;;		On exit  : 0/0
  5888 ;;		Unchanged: 0/0
  5889 ;; Data sizes:     COMRAM   BANK0   BANK1   BANK2   BANK3   BANK4   BANK5   BANK6   BANK7
  5890 ;;      Params:         0       4       0       0       0       0       0       0       0
  5891 ;;      Locals:         0      10       0       0       0       0       0       0       0
  5892 ;;      Temps:          0       6       0       0       0       0       0       0       0
  5893 ;;      Totals:         0      20       0       0       0       0       0       0       0
  5894 ;;Total ram usage:       20 bytes
  5895 ;; Hardware stack levels used: 1
  5896 ;; Hardware stack levels required when called: 4
  5897 ;; This function calls:
  5898 ;;		Nothing
  5899 ;; This function is called by:
  5900 ;;		_efgtoa
  5901 ;; This function uses a non-reentrant model
  5902 ;;
  5903                           
  5904                           	psect	text13
  5905   003028                     __ptext13:
  5906                           	callstack 0
  5907   003028                     _floorf:
  5908                           	callstack 22
  5909   003028  C112  F0AC         	movff	floorf@F526,floorf@u
  5910   00302C  C113  F0AD         	movff	floorf@F526+1,floorf@u+1
  5911   003030  C114  F0AE         	movff	floorf@F526+2,floorf@u+2
  5912   003034  C115  F0AF         	movff	floorf@F526+3,floorf@u+3
  5913   003038  C09C  F0AC         	movff	floorf@x,floorf@u
  5914   00303C  C09D  F0AD         	movff	floorf@x+1,floorf@u+1
  5915   003040  C09E  F0AE         	movff	floorf@x+2,floorf@u+2
  5916   003044  C09F  F0AF         	movff	floorf@x+3,floorf@u+3
  5917   003048  0E81               	movlw	129
  5918   00304A  0100               	movlb	0	; () banked
  5919   00304C  6FA0               	movwf	??_floorf& (0+255),b
  5920   00304E  0EFF               	movlw	255
  5921   003050  6FA1               	movwf	(??_floorf+1)& (0+255),b
  5922   003052  C0AC  F0A2         	movff	floorf@u,??_floorf+2
  5923   003056  C0AD  F0A3         	movff	floorf@u+1,??_floorf+3
  5924   00305A  C0AE  F0A4         	movff	floorf@u+2,??_floorf+4
  5925   00305E  C0AF  F0A5         	movff	floorf@u+3,??_floorf+5
  5926   003062  0E18               	movlw	24
  5927   003064  EF39  F018         	goto	u4460
  5928   003068                     u4465:
  5929   003068  90D8               	bcf	status,0,c
  5930   00306A  33A5               	rrcf	(??_floorf+5)& (0+255),f,b
  5931   00306C  33A4               	rrcf	(??_floorf+4)& (0+255),f,b
  5932   00306E  33A3               	rrcf	(??_floorf+3)& (0+255),f,b
  5933   003070  33A2               	rrcf	(??_floorf+2)& (0+255),f,b
  5934   003072                     u4460:
  5935   003072  2EE8               	decfsz	wreg,f,c
  5936   003074  EF34  F018         	goto	u4465
  5937   003078  51A2               	movf	(??_floorf+2)& (0+255),w,b
  5938   00307A  25A0               	addwf	??_floorf& (0+255),w,b
  5939   00307C  6FAA               	movwf	floorf@e& (0+255),b
  5940   00307E  0E00               	movlw	0
  5941   003080  21A1               	addwfc	(??_floorf+1)& (0+255),w,b
  5942   003082  6FAB               	movwf	(floorf@e+1)& (0+255),b
  5943   003084  BFAB               	btfsc	(floorf@e+1)& (0+255),7,b
  5944   003086  EF4E  F018         	goto	u4471
  5945   00308A  51AB               	movf	(floorf@e+1)& (0+255),w,b
  5946   00308C  E109               	bnz	u4470
  5947   00308E  0E17               	movlw	23
  5948   003090  5DAA               	subwf	floorf@e& (0+255),w,b
  5949   003092  A0D8               	btfss	status,0,c
  5950   003094  EF4E  F018         	goto	u4471
  5951   003098  EF50  F018         	goto	u4470
  5952   00309C                     u4471:
  5953   00309C  EF5A  F018         	goto	l4512
  5954   0030A0                     u4470:
  5955   0030A0                     l4510:
  5956                           
  5957                           ; BSR set to: 0
  5958   0030A0  C09C  F09C         	movff	floorf@x,?_floorf
  5959   0030A4  C09D  F09D         	movff	floorf@x+1,?_floorf+1
  5960   0030A8  C09E  F09E         	movff	floorf@x+2,?_floorf+2
  5961   0030AC  C09F  F09F         	movff	floorf@x+3,?_floorf+3
  5962   0030B0  EF1E  F019         	goto	l1483
  5963   0030B4                     l4512:
  5964                           
  5965                           ; BSR set to: 0
  5966   0030B4  BFAB               	btfsc	(floorf@e+1)& (0+255),7,b
  5967   0030B6  EF5F  F018         	goto	u4481
  5968   0030BA  EF61  F018         	goto	u4480
  5969   0030BE                     u4481:
  5970   0030BE  EFD2  F018         	goto	l4522
  5971   0030C2                     u4480:
  5972   0030C2                     
  5973                           ; BSR set to: 0
  5974   0030C2  C0AA  F0A0         	movff	floorf@e,??_floorf
  5975   0030C6  0EFF               	movlw	255
  5976   0030C8  6FA1               	movwf	(??_floorf+1)& (0+255),b
  5977   0030CA  0EFF               	movlw	255
  5978   0030CC  6FA2               	movwf	(??_floorf+2)& (0+255),b
  5979   0030CE  0E7F               	movlw	127
  5980   0030D0  6FA3               	movwf	(??_floorf+3)& (0+255),b
  5981   0030D2  0E00               	movlw	0
  5982   0030D4  6FA4               	movwf	(??_floorf+4)& (0+255),b
  5983   0030D6                     u4495:
  5984   0030D6  67A0               	tstfsz	??_floorf& (0+255),b
  5985   0030D8  EF70  F018         	goto	u4496
  5986   0030DC  EF78  F018         	goto	u4497
  5987   0030E0                     u4496:
  5988   0030E0  35A4               	rlcf	(??_floorf+4)& (0+255),w,b
  5989   0030E2  33A4               	rrcf	(??_floorf+4)& (0+255),f,b
  5990   0030E4  33A3               	rrcf	(??_floorf+3)& (0+255),f,b
  5991   0030E6  33A2               	rrcf	(??_floorf+2)& (0+255),f,b
  5992   0030E8  33A1               	rrcf	(??_floorf+1)& (0+255),f,b
  5993   0030EA  2FA0               	decfsz	??_floorf& (0+255),f,b
  5994   0030EC  EF6B  F018         	goto	u4495
  5995   0030F0                     u4497:
  5996   0030F0  C0A1  F0A6         	movff	??_floorf+1,floorf@m
  5997   0030F4  C0A2  F0A7         	movff	??_floorf+2,floorf@m+1
  5998   0030F8  C0A3  F0A8         	movff	??_floorf+3,floorf@m+2
  5999   0030FC  C0A4  F0A9         	movff	??_floorf+4,floorf@m+3
  6000   003100  0100               	movlb	0	; () banked
  6001   003102  51A6               	movf	floorf@m& (0+255),w,b
  6002   003104  15AC               	andwf	floorf@u& (0+255),w,b
  6003   003106  6FA0               	movwf	??_floorf& (0+255),b
  6004   003108  51A7               	movf	(floorf@m+1)& (0+255),w,b
  6005   00310A  15AD               	andwf	(floorf@u+1)& (0+255),w,b
  6006   00310C  6FA1               	movwf	(??_floorf+1)& (0+255),b
  6007   00310E  51A8               	movf	(floorf@m+2)& (0+255),w,b
  6008   003110  15AE               	andwf	(floorf@u+2)& (0+255),w,b
  6009   003112  6FA2               	movwf	(??_floorf+2)& (0+255),b
  6010   003114  51A9               	movf	(floorf@m+3)& (0+255),w,b
  6011   003116  15AF               	andwf	(floorf@u+3)& (0+255),w,b
  6012   003118  6FA3               	movwf	(??_floorf+3)& (0+255),b
  6013   00311A  51A0               	movf	??_floorf& (0+255),w,b
  6014   00311C  11A1               	iorwf	(??_floorf+1)& (0+255),w,b
  6015   00311E  11A2               	iorwf	(??_floorf+2)& (0+255),w,b
  6016   003120  11A3               	iorwf	(??_floorf+3)& (0+255),w,b
  6017   003122  A4D8               	btfss	status,2,c
  6018   003124  EF96  F018         	goto	u4501
  6019   003128  EF98  F018         	goto	u4500
  6020   00312C                     u4501:
  6021   00312C  EF9A  F018         	goto	l4518
  6022   003130                     u4500:
  6023   003130  EF50  F018         	goto	l4510
  6024   003134                     l4518:
  6025                           
  6026                           ; BSR set to: 0
  6027   003134  C0AC  F0A0         	movff	floorf@u,??_floorf
  6028   003138  C0AD  F0A1         	movff	floorf@u+1,??_floorf+1
  6029   00313C  C0AE  F0A2         	movff	floorf@u+2,??_floorf+2
  6030   003140  C0AF  F0A3         	movff	floorf@u+3,??_floorf+3
  6031   003144  0E20               	movlw	32
  6032   003146  EFAA  F018         	goto	u4510
  6033   00314A                     u4515:
  6034   00314A  90D8               	bcf	status,0,c
  6035   00314C  33A3               	rrcf	(??_floorf+3)& (0+255),f,b
  6036   00314E  33A2               	rrcf	(??_floorf+2)& (0+255),f,b
  6037   003150  33A1               	rrcf	(??_floorf+1)& (0+255),f,b
  6038   003152  33A0               	rrcf	??_floorf& (0+255),f,b
  6039   003154                     u4510:
  6040   003154  2EE8               	decfsz	wreg,f,c
  6041   003156  EFA5  F018         	goto	u4515
  6042   00315A  51A0               	movf	??_floorf& (0+255),w,b
  6043   00315C  11A1               	iorwf	(??_floorf+1)& (0+255),w,b
  6044   00315E  11A2               	iorwf	(??_floorf+2)& (0+255),w,b
  6045   003160  11A3               	iorwf	(??_floorf+3)& (0+255),w,b
  6046   003162  B4D8               	btfsc	status,2,c
  6047   003164  EFB6  F018         	goto	u4521
  6048   003168  EFB8  F018         	goto	u4520
  6049   00316C                     u4521:
  6050   00316C  EFC0  F018         	goto	l1486
  6051   003170                     u4520:
  6052   003170                     
  6053                           ; BSR set to: 0
  6054   003170  51A6               	movf	floorf@m& (0+255),w,b
  6055   003172  27AC               	addwf	floorf@u& (0+255),f,b
  6056   003174  51A7               	movf	(floorf@m+1)& (0+255),w,b
  6057   003176  23AD               	addwfc	(floorf@u+1)& (0+255),f,b
  6058   003178  51A8               	movf	(floorf@m+2)& (0+255),w,b
  6059   00317A  23AE               	addwfc	(floorf@u+2)& (0+255),f,b
  6060   00317C  51A9               	movf	(floorf@m+3)& (0+255),w,b
  6061   00317E  23AF               	addwfc	(floorf@u+3)& (0+255),f,b
  6062   003180                     l1486:
  6063                           
  6064                           ; BSR set to: 0
  6065   003180  1DA6               	comf	floorf@m& (0+255),w,b
  6066   003182  6FA0               	movwf	??_floorf& (0+255),b
  6067   003184  1DA7               	comf	(floorf@m+1)& (0+255),w,b
  6068   003186  6FA1               	movwf	(??_floorf+1)& (0+255),b
  6069   003188  1DA8               	comf	(floorf@m+2)& (0+255),w,b
  6070   00318A  6FA2               	movwf	(??_floorf+2)& (0+255),b
  6071   00318C  1DA9               	comf	(floorf@m+3)& (0+255),w,b
  6072   00318E  6FA3               	movwf	(??_floorf+3)& (0+255),b
  6073   003190  51A0               	movf	??_floorf& (0+255),w,b
  6074   003192  17AC               	andwf	floorf@u& (0+255),f,b
  6075   003194  51A1               	movf	(??_floorf+1)& (0+255),w,b
  6076   003196  17AD               	andwf	(floorf@u+1)& (0+255),f,b
  6077   003198  51A2               	movf	(??_floorf+2)& (0+255),w,b
  6078   00319A  17AE               	andwf	(floorf@u+2)& (0+255),f,b
  6079   00319C  51A3               	movf	(??_floorf+3)& (0+255),w,b
  6080   00319E  17AF               	andwf	(floorf@u+3)& (0+255),f,b
  6081   0031A0  EF16  F019         	goto	l4530
  6082   0031A4                     l4522:
  6083                           
  6084                           ; BSR set to: 0
  6085   0031A4  C0AC  F0A0         	movff	floorf@u,??_floorf
  6086   0031A8  C0AD  F0A1         	movff	floorf@u+1,??_floorf+1
  6087   0031AC  C0AE  F0A2         	movff	floorf@u+2,??_floorf+2
  6088   0031B0  C0AF  F0A3         	movff	floorf@u+3,??_floorf+3
  6089   0031B4  0E20               	movlw	32
  6090   0031B6  EFE2  F018         	goto	u4530
  6091   0031BA                     u4535:
  6092   0031BA  90D8               	bcf	status,0,c
  6093   0031BC  33A3               	rrcf	(??_floorf+3)& (0+255),f,b
  6094   0031BE  33A2               	rrcf	(??_floorf+2)& (0+255),f,b
  6095   0031C0  33A1               	rrcf	(??_floorf+1)& (0+255),f,b
  6096   0031C2  33A0               	rrcf	??_floorf& (0+255),f,b
  6097   0031C4                     u4530:
  6098   0031C4  2EE8               	decfsz	wreg,f,c
  6099   0031C6  EFDD  F018         	goto	u4535
  6100   0031CA  51A0               	movf	??_floorf& (0+255),w,b
  6101   0031CC  11A1               	iorwf	(??_floorf+1)& (0+255),w,b
  6102   0031CE  11A2               	iorwf	(??_floorf+2)& (0+255),w,b
  6103   0031D0  11A3               	iorwf	(??_floorf+3)& (0+255),w,b
  6104   0031D2  A4D8               	btfss	status,2,c
  6105   0031D4  EFEE  F018         	goto	u4541
  6106   0031D8  EFF0  F018         	goto	u4540
  6107   0031DC                     u4541:
  6108   0031DC  EFFA  F018         	goto	l4526
  6109   0031E0                     u4540:
  6110   0031E0                     
  6111                           ; BSR set to: 0
  6112   0031E0  0E00               	movlw	0
  6113   0031E2  6FAC               	movwf	floorf@u& (0+255),b
  6114   0031E4  0E00               	movlw	0
  6115   0031E6  6FAD               	movwf	(floorf@u+1)& (0+255),b
  6116   0031E8  0E00               	movlw	0
  6117   0031EA  6FAE               	movwf	(floorf@u+2)& (0+255),b
  6118   0031EC  0E00               	movlw	0
  6119   0031EE  6FAF               	movwf	(floorf@u+3)& (0+255),b
  6120   0031F0  EF16  F019         	goto	l4530
  6121   0031F4                     l4526:
  6122                           
  6123                           ; BSR set to: 0
  6124   0031F4  90D8               	bcf	status,0,c
  6125   0031F6  35AC               	rlcf	floorf@u& (0+255),w,b
  6126   0031F8  6FA0               	movwf	??_floorf& (0+255),b
  6127   0031FA  35AD               	rlcf	(floorf@u+1)& (0+255),w,b
  6128   0031FC  6FA1               	movwf	(??_floorf+1)& (0+255),b
  6129   0031FE  35AE               	rlcf	(floorf@u+2)& (0+255),w,b
  6130   003200  6FA2               	movwf	(??_floorf+2)& (0+255),b
  6131   003202  35AF               	rlcf	(floorf@u+3)& (0+255),w,b
  6132   003204  6FA3               	movwf	(??_floorf+3)& (0+255),b
  6133   003206  51A0               	movf	??_floorf& (0+255),w,b
  6134   003208  11A1               	iorwf	(??_floorf+1)& (0+255),w,b
  6135   00320A  11A2               	iorwf	(??_floorf+2)& (0+255),w,b
  6136   00320C  11A3               	iorwf	(??_floorf+3)& (0+255),w,b
  6137   00320E  B4D8               	btfsc	status,2,c
  6138   003210  EF0C  F019         	goto	u4551
  6139   003214  EF0E  F019         	goto	u4550
  6140   003218                     u4551:
  6141   003218  EF16  F019         	goto	l4530
  6142   00321C                     u4550:
  6143   00321C                     
  6144                           ; BSR set to: 0
  6145   00321C  0E00               	movlw	0
  6146   00321E  6FAC               	movwf	floorf@u& (0+255),b
  6147   003220  0E00               	movlw	0
  6148   003222  6FAD               	movwf	(floorf@u+1)& (0+255),b
  6149   003224  0E80               	movlw	128
  6150   003226  6FAE               	movwf	(floorf@u+2)& (0+255),b
  6151   003228  0EBF               	movlw	191
  6152   00322A  6FAF               	movwf	(floorf@u+3)& (0+255),b
  6153   00322C                     l4530:
  6154                           
  6155                           ; BSR set to: 0
  6156   00322C  C0AC  F09C         	movff	floorf@u,?_floorf
  6157   003230  C0AD  F09D         	movff	floorf@u+1,?_floorf+1
  6158   003234  C0AE  F09E         	movff	floorf@u+2,?_floorf+2
  6159   003238  C0AF  F09F         	movff	floorf@u+3,?_floorf+3
  6160   00323C                     l1483:
  6161                           
  6162                           ; BSR set to: 0
  6163   00323C  0012               	return		;funcret
  6164   00323E                     __end_of_floorf:
  6165                           	callstack 0
  6166                           
  6167 ;; *************** function ___fpclassifyf *****************
  6168 ;; Defined at:
  6169 ;;		line 4 in file "C:\Program Files\Microchip\xc8\v2.41\pic\sources\c99\common\__fpclassifyf.c"
  6170 ;; Parameters:    Size  Location     Type
  6171 ;;  x               4   30[COMRAM] float 
  6172 ;; Auto vars:     Size  Location     Type
  6173 ;;  u               4    6[BANK0 ] struct .
  6174 ;;  e               2    4[BANK0 ] int 
  6175 ;; Return value:  Size  Location     Type
  6176 ;;                  2   30[COMRAM] int 
  6177 ;; Registers used:
  6178 ;;		wreg, status,2, status,0
  6179 ;; Tracked objects:
  6180 ;;		On entry : 0/0
  6181 ;;		On exit  : 0/0
  6182 ;;		Unchanged: 0/0
  6183 ;; Data sizes:     COMRAM   BANK0   BANK1   BANK2   BANK3   BANK4   BANK5   BANK6   BANK7
  6184 ;;      Params:         4       0       0       0       0       0       0       0       0
  6185 ;;      Locals:         0       6       0       0       0       0       0       0       0
  6186 ;;      Temps:          0       4       0       0       0       0       0       0       0
  6187 ;;      Totals:         4      10       0       0       0       0       0       0       0
  6188 ;;Total ram usage:       14 bytes
  6189 ;; Hardware stack levels used: 1
  6190 ;; Hardware stack levels required when called: 4
  6191 ;; This function calls:
  6192 ;;		Nothing
  6193 ;; This function is called by:
  6194 ;;		_efgtoa
  6195 ;; This function uses a non-reentrant model
  6196 ;;
  6197                           
  6198                           	psect	text14
  6199   003A0C                     __ptext14:
  6200                           	callstack 0
  6201   003A0C                     ___fpclassifyf:
  6202                           	callstack 22
  6203   003A0C  C116  F066         	movff	___fpclassifyf@F465,___fpclassifyf@u
  6204   003A10  C117  F067         	movff	___fpclassifyf@F465+1,___fpclassifyf@u+1
  6205   003A14  C118  F068         	movff	___fpclassifyf@F465+2,___fpclassifyf@u+2
  6206   003A18  C119  F069         	movff	___fpclassifyf@F465+3,___fpclassifyf@u+3
  6207   003A1C  C01F  F066         	movff	___fpclassifyf@x,___fpclassifyf@u
  6208   003A20  C020  F067         	movff	___fpclassifyf@x+1,___fpclassifyf@u+1
  6209   003A24  C021  F068         	movff	___fpclassifyf@x+2,___fpclassifyf@u+2
  6210   003A28  C022  F069         	movff	___fpclassifyf@x+3,___fpclassifyf@u+3
  6211   003A2C  C066  F060         	movff	___fpclassifyf@u,??___fpclassifyf
  6212   003A30  C067  F061         	movff	___fpclassifyf@u+1,??___fpclassifyf+1
  6213   003A34  C068  F062         	movff	___fpclassifyf@u+2,??___fpclassifyf+2
  6214   003A38  C069  F063         	movff	___fpclassifyf@u+3,??___fpclassifyf+3
  6215   003A3C  0E18               	movlw	24
  6216   003A3E  EF27  F01D         	goto	u7340
  6217   003A42                     u7345:
  6218   003A42  0100               	movlb	0	; () banked
  6219   003A44  90D8               	bcf	status,0,c
  6220   003A46  3363               	rrcf	(??___fpclassifyf+3)& (0+255),f,b
  6221   003A48  3362               	rrcf	(??___fpclassifyf+2)& (0+255),f,b
  6222   003A4A  3361               	rrcf	(??___fpclassifyf+1)& (0+255),f,b
  6223   003A4C  3360               	rrcf	??___fpclassifyf& (0+255),f,b
  6224   003A4E                     u7340:
  6225   003A4E  2EE8               	decfsz	wreg,f,c
  6226   003A50  EF21  F01D         	goto	u7345
  6227   003A54  5160               	movf	??___fpclassifyf& (0+255),w,b
  6228   003A56  6F64               	movwf	___fpclassifyf@e& (0+255),b
  6229   003A58  6B65               	clrf	(___fpclassifyf@e+1)& (0+255),b
  6230   003A5A  5164               	movf	___fpclassifyf@e& (0+255),w,b
  6231   003A5C  1165               	iorwf	(___fpclassifyf@e+1)& (0+255),w,b
  6232   003A5E  A4D8               	btfss	status,2,c
  6233   003A60  EF34  F01D         	goto	u7351
  6234   003A64  EF36  F01D         	goto	u7350
  6235   003A68                     u7351:
  6236   003A68  EF56  F01D         	goto	l6546
  6237   003A6C                     u7350:
  6238   003A6C                     
  6239                           ; BSR set to: 0
  6240   003A6C  90D8               	bcf	status,0,c
  6241   003A6E  3566               	rlcf	___fpclassifyf@u& (0+255),w,b
  6242   003A70  6F60               	movwf	??___fpclassifyf& (0+255),b
  6243   003A72  3567               	rlcf	(___fpclassifyf@u+1)& (0+255),w,b
  6244   003A74  6F61               	movwf	(??___fpclassifyf+1)& (0+255),b
  6245   003A76  3568               	rlcf	(___fpclassifyf@u+2)& (0+255),w,b
  6246   003A78  6F62               	movwf	(??___fpclassifyf+2)& (0+255),b
  6247   003A7A  3569               	rlcf	(___fpclassifyf@u+3)& (0+255),w,b
  6248   003A7C  6F63               	movwf	(??___fpclassifyf+3)& (0+255),b
  6249   003A7E  5160               	movf	??___fpclassifyf& (0+255),w,b
  6250   003A80  1161               	iorwf	(??___fpclassifyf+1)& (0+255),w,b
  6251   003A82  1162               	iorwf	(??___fpclassifyf+2)& (0+255),w,b
  6252   003A84  1163               	iorwf	(??___fpclassifyf+3)& (0+255),w,b
  6253   003A86  A4D8               	btfss	status,2,c
  6254   003A88  EF48  F01D         	goto	u7361
  6255   003A8C  EF4A  F01D         	goto	u7360
  6256   003A90                     u7361:
  6257   003A90  EF50  F01D         	goto	l6542
  6258   003A94                     u7360:
  6259   003A94                     
  6260                           ; BSR set to: 0
  6261   003A94  0E00               	movlw	0
  6262   003A96  6E20               	movwf	(?___fpclassifyf+1)^0,c
  6263   003A98  0E02               	movlw	2
  6264   003A9A  6E1F               	movwf	?___fpclassifyf^0,c
  6265   003A9C  EF85  F01D         	goto	l1469
  6266   003AA0                     l6542:
  6267                           
  6268                           ; BSR set to: 0
  6269   003AA0  0E00               	movlw	0
  6270   003AA2  6E20               	movwf	(?___fpclassifyf+1)^0,c
  6271   003AA4  0E03               	movlw	3
  6272   003AA6  6E1F               	movwf	?___fpclassifyf^0,c
  6273   003AA8  EF85  F01D         	goto	l1469
  6274   003AAC                     l6546:
  6275                           
  6276                           ; BSR set to: 0
  6277   003AAC  2964               	incf	___fpclassifyf@e& (0+255),w,b
  6278   003AAE  1165               	iorwf	(___fpclassifyf@e+1)& (0+255),w,b
  6279   003AB0  A4D8               	btfss	status,2,c
  6280   003AB2  EF5D  F01D         	goto	u7371
  6281   003AB6  EF5F  F01D         	goto	u7370
  6282   003ABA                     u7371:
  6283   003ABA  EF81  F01D         	goto	l6552
  6284   003ABE                     u7370:
  6285   003ABE                     
  6286                           ; BSR set to: 0
  6287   003ABE  C066  F060         	movff	___fpclassifyf@u,??___fpclassifyf
  6288   003AC2  C067  F061         	movff	___fpclassifyf@u+1,??___fpclassifyf+1
  6289   003AC6  C068  F062         	movff	___fpclassifyf@u+2,??___fpclassifyf+2
  6290   003ACA  C069  F063         	movff	___fpclassifyf@u+3,??___fpclassifyf+3
  6291   003ACE  0E09               	movlw	9
  6292   003AD0                     u7385:
  6293   003AD0  90D8               	bcf	status,0,c
  6294   003AD2  3760               	rlcf	??___fpclassifyf& (0+255),f,b
  6295   003AD4  3761               	rlcf	(??___fpclassifyf+1)& (0+255),f,b
  6296   003AD6  3762               	rlcf	(??___fpclassifyf+2)& (0+255),f,b
  6297   003AD8  3763               	rlcf	(??___fpclassifyf+3)& (0+255),f,b
  6298   003ADA  2EE8               	decfsz	wreg,f,c
  6299   003ADC  EF68  F01D         	goto	u7385
  6300   003AE0  5160               	movf	??___fpclassifyf& (0+255),w,b
  6301   003AE2  1161               	iorwf	(??___fpclassifyf+1)& (0+255),w,b
  6302   003AE4  1162               	iorwf	(??___fpclassifyf+2)& (0+255),w,b
  6303   003AE6  1163               	iorwf	(??___fpclassifyf+3)& (0+255),w,b
  6304   003AE8  B4D8               	btfsc	status,2,c
  6305   003AEA  EF79  F01D         	goto	u7391
  6306   003AEE  EF7C  F01D         	goto	u7390
  6307   003AF2                     u7391:
  6308   003AF2  0E01               	movlw	1
  6309   003AF4  EF7D  F01D         	goto	u7400
  6310   003AF8                     u7390:
  6311   003AF8  0E00               	movlw	0
  6312   003AFA                     u7400:
  6313   003AFA  6E1F               	movwf	?___fpclassifyf^0,c
  6314   003AFC  6A20               	clrf	(?___fpclassifyf+1)^0,c
  6315   003AFE  EF85  F01D         	goto	l1469
  6316   003B02                     l6552:
  6317                           
  6318                           ; BSR set to: 0
  6319   003B02  0E00               	movlw	0
  6320   003B04  6E20               	movwf	(?___fpclassifyf+1)^0,c
  6321   003B06  0E04               	movlw	4
  6322   003B08  6E1F               	movwf	?___fpclassifyf^0,c
  6323   003B0A                     l1469:
  6324                           
  6325                           ; BSR set to: 0
  6326   003B0A  0012               	return		;funcret
  6327   003B0C                     __end_of___fpclassifyf:
  6328                           	callstack 0
  6329                           
  6330 ;; *************** function ___fltol *****************
  6331 ;; Defined at:
  6332 ;;		line 43 in file "C:\Program Files\Microchip\xc8\v2.41\pic\sources\c99\common\fltol.c"
  6333 ;; Parameters:    Size  Location     Type
  6334 ;;  f1              4   60[BANK0 ] int 
  6335 ;; Auto vars:     Size  Location     Type
  6336 ;;  exp1            1   69[BANK0 ] unsigned char 
  6337 ;;  sign1           1   68[BANK0 ] unsigned char 
  6338 ;; Return value:  Size  Location     Type
  6339 ;;                  4   60[BANK0 ] long 
  6340 ;; Registers used:
  6341 ;;		wreg, status,2, status,0
  6342 ;; Tracked objects:
  6343 ;;		On entry : 0/0
  6344 ;;		On exit  : 0/0
  6345 ;;		Unchanged: 0/0
  6346 ;; Data sizes:     COMRAM   BANK0   BANK1   BANK2   BANK3   BANK4   BANK5   BANK6   BANK7
  6347 ;;      Params:         0       4       0       0       0       0       0       0       0
  6348 ;;      Locals:         0       2       0       0       0       0       0       0       0
  6349 ;;      Temps:          0       4       0       0       0       0       0       0       0
  6350 ;;      Totals:         0      10       0       0       0       0       0       0       0
  6351 ;;Total ram usage:       10 bytes
  6352 ;; Hardware stack levels used: 1
  6353 ;; Hardware stack levels required when called: 4
  6354 ;; This function calls:
  6355 ;;		Nothing
  6356 ;; This function is called by:
  6357 ;;		_main
  6358 ;;		_efgtoa
  6359 ;; This function uses a non-reentrant model
  6360 ;;
  6361                           
  6362                           	psect	text15
  6363   0036F8                     __ptext15:
  6364                           	callstack 0
  6365   0036F8                     ___fltol:
  6366                           	callstack 22
  6367   0036F8  0100               	movlb	0	; () banked
  6368   0036FA  359E               	rlcf	(___fltol@f1+2)& (0+255),w,b
  6369   0036FC  359F               	rlcf	(___fltol@f1+3)& (0+255),w,b
  6370   0036FE  6FA5               	movwf	___fltol@exp1& (0+255),b
  6371   003700  51A5               	movf	___fltol@exp1& (0+255),w,b
  6372   003702  A4D8               	btfss	status,2,c
  6373   003704  EF86  F01B         	goto	u4191
  6374   003708  EF88  F01B         	goto	u4190
  6375   00370C                     u4191:
  6376   00370C  EF92  F01B         	goto	l4378
  6377   003710                     u4190:
  6378   003710                     l4374:
  6379                           
  6380                           ; BSR set to: 0
  6381   003710  0E00               	movlw	0
  6382   003712  6F9C               	movwf	?___fltol& (0+255),b
  6383   003714  0E00               	movlw	0
  6384   003716  6F9D               	movwf	(?___fltol+1)& (0+255),b
  6385   003718  0E00               	movlw	0
  6386   00371A  6F9E               	movwf	(?___fltol+2)& (0+255),b
  6387   00371C  0E00               	movlw	0
  6388   00371E  6F9F               	movwf	(?___fltol+3)& (0+255),b
  6389   003720  EFFF  F01B         	goto	l893
  6390   003724                     l4378:
  6391                           
  6392                           ; BSR set to: 0
  6393   003724  C09C  F0A0         	movff	___fltol@f1,??___fltol
  6394   003728  C09D  F0A1         	movff	___fltol@f1+1,??___fltol+1
  6395   00372C  C09E  F0A2         	movff	___fltol@f1+2,??___fltol+2
  6396   003730  C09F  F0A3         	movff	___fltol@f1+3,??___fltol+3
  6397   003734  0E20               	movlw	32
  6398   003736  EFA2  F01B         	goto	u4200
  6399   00373A                     u4205:
  6400   00373A  90D8               	bcf	status,0,c
  6401   00373C  33A3               	rrcf	(??___fltol+3)& (0+255),f,b
  6402   00373E  33A2               	rrcf	(??___fltol+2)& (0+255),f,b
  6403   003740  33A1               	rrcf	(??___fltol+1)& (0+255),f,b
  6404   003742  33A0               	rrcf	??___fltol& (0+255),f,b
  6405   003744                     u4200:
  6406   003744  2EE8               	decfsz	wreg,f,c
  6407   003746  EF9D  F01B         	goto	u4205
  6408   00374A  51A0               	movf	??___fltol& (0+255),w,b
  6409   00374C  6FA4               	movwf	___fltol@sign1& (0+255),b
  6410   00374E                     
  6411                           ; BSR set to: 0
  6412   00374E  8F9E               	bsf	(___fltol@f1+2)& (0+255),7,b
  6413   003750                     
  6414                           ; BSR set to: 0
  6415   003750  0EFF               	movlw	255
  6416   003752  179C               	andwf	___fltol@f1& (0+255),f,b
  6417   003754  0EFF               	movlw	255
  6418   003756  179D               	andwf	(___fltol@f1+1)& (0+255),f,b
  6419   003758  0EFF               	movlw	255
  6420   00375A  179E               	andwf	(___fltol@f1+2)& (0+255),f,b
  6421   00375C  0E00               	movlw	0
  6422   00375E  179F               	andwf	(___fltol@f1+3)& (0+255),f,b
  6423   003760                     
  6424                           ; BSR set to: 0
  6425   003760  0E96               	movlw	150
  6426   003762  5FA5               	subwf	___fltol@exp1& (0+255),f,b
  6427   003764                     
  6428                           ; BSR set to: 0
  6429   003764  BFA5               	btfsc	___fltol@exp1& (0+255),7,b
  6430   003766  EFB9  F01B         	goto	u4210
  6431   00376A  EFB7  F01B         	goto	u4211
  6432   00376E                     u4211:
  6433   00376E  EFCF  F01B         	goto	l4398
  6434   003772                     u4210:
  6435   003772                     
  6436                           ; BSR set to: 0
  6437   003772  51A5               	movf	___fltol@exp1& (0+255),w,b
  6438   003774  0A80               	xorlw	128
  6439   003776  0F97               	addlw	151
  6440   003778  B0D8               	btfsc	status,0,c
  6441   00377A  EFC1  F01B         	goto	u4221
  6442   00377E  EFC3  F01B         	goto	u4220
  6443   003782                     u4221:
  6444   003782  EFC5  F01B         	goto	l4394
  6445   003786                     u4220:
  6446   003786  EF88  F01B         	goto	l4374
  6447   00378A                     l4394:
  6448                           
  6449                           ; BSR set to: 0
  6450   00378A  90D8               	bcf	status,0,c
  6451   00378C  339F               	rrcf	(___fltol@f1+3)& (0+255),f,b
  6452   00378E  339E               	rrcf	(___fltol@f1+2)& (0+255),f,b
  6453   003790  339D               	rrcf	(___fltol@f1+1)& (0+255),f,b
  6454   003792  339C               	rrcf	___fltol@f1& (0+255),f,b
  6455   003794                     
  6456                           ; BSR set to: 0
  6457   003794  3FA5               	incfsz	___fltol@exp1& (0+255),f,b
  6458   003796  EFC5  F01B         	goto	l4394
  6459   00379A  EFE7  F01B         	goto	l4408
  6460   00379E                     l4398:
  6461                           
  6462                           ; BSR set to: 0
  6463   00379E  0E1F               	movlw	31
  6464   0037A0  65A5               	cpfsgt	___fltol@exp1& (0+255),b
  6465   0037A2  EFD5  F01B         	goto	u4231
  6466   0037A6  EFD7  F01B         	goto	u4230
  6467   0037AA                     u4231:
  6468   0037AA  EFDF  F01B         	goto	l4406
  6469   0037AE                     u4230:
  6470   0037AE  EF88  F01B         	goto	l4374
  6471   0037B2                     l4404:
  6472                           
  6473                           ; BSR set to: 0
  6474   0037B2  90D8               	bcf	status,0,c
  6475   0037B4  379C               	rlcf	___fltol@f1& (0+255),f,b
  6476   0037B6  379D               	rlcf	(___fltol@f1+1)& (0+255),f,b
  6477   0037B8  379E               	rlcf	(___fltol@f1+2)& (0+255),f,b
  6478   0037BA  379F               	rlcf	(___fltol@f1+3)& (0+255),f,b
  6479   0037BC  07A5               	decf	___fltol@exp1& (0+255),f,b
  6480   0037BE                     l4406:
  6481                           
  6482                           ; BSR set to: 0
  6483   0037BE  51A5               	movf	___fltol@exp1& (0+255),w,b
  6484   0037C0  A4D8               	btfss	status,2,c
  6485   0037C2  EFE5  F01B         	goto	u4241
  6486   0037C6  EFE7  F01B         	goto	u4240
  6487   0037CA                     u4241:
  6488   0037CA  EFD9  F01B         	goto	l4404
  6489   0037CE                     u4240:
  6490   0037CE                     l4408:
  6491                           
  6492                           ; BSR set to: 0
  6493   0037CE  51A4               	movf	___fltol@sign1& (0+255),w,b
  6494   0037D0  B4D8               	btfsc	status,2,c
  6495   0037D2  EFED  F01B         	goto	u4251
  6496   0037D6  EFEF  F01B         	goto	u4250
  6497   0037DA                     u4251:
  6498   0037DA  EFF7  F01B         	goto	l4412
  6499   0037DE                     u4250:
  6500   0037DE                     
  6501                           ; BSR set to: 0
  6502   0037DE  1F9F               	comf	(___fltol@f1+3)& (0+255),f,b
  6503   0037E0  1F9E               	comf	(___fltol@f1+2)& (0+255),f,b
  6504   0037E2  1F9D               	comf	(___fltol@f1+1)& (0+255),f,b
  6505   0037E4  6D9C               	negf	___fltol@f1& (0+255),b
  6506   0037E6  0E00               	movlw	0
  6507   0037E8  239D               	addwfc	(___fltol@f1+1)& (0+255),f,b
  6508   0037EA  239E               	addwfc	(___fltol@f1+2)& (0+255),f,b
  6509   0037EC  239F               	addwfc	(___fltol@f1+3)& (0+255),f,b
  6510   0037EE                     l4412:
  6511                           
  6512                           ; BSR set to: 0
  6513   0037EE  C09C  F09C         	movff	___fltol@f1,?___fltol
  6514   0037F2  C09D  F09D         	movff	___fltol@f1+1,?___fltol+1
  6515   0037F6  C09E  F09E         	movff	___fltol@f1+2,?___fltol+2
  6516   0037FA  C09F  F09F         	movff	___fltol@f1+3,?___fltol+3
  6517   0037FE                     l893:
  6518                           
  6519                           ; BSR set to: 0
  6520   0037FE  0012               	return		;funcret
  6521   003800                     __end_of___fltol:
  6522                           	callstack 0
  6523                           
  6524 ;; *************** function ___flsub *****************
  6525 ;; Defined at:
  6526 ;;		line 245 in file "C:\Program Files\Microchip\xc8\v2.41\pic\sources\c99\common\sprcadd.c"
  6527 ;; Parameters:    Size  Location     Type
  6528 ;;  b               4   35[BANK0 ] long 
  6529 ;;  a               4   39[BANK0 ] long 
  6530 ;; Auto vars:     Size  Location     Type
  6531 ;;		None
  6532 ;; Return value:  Size  Location     Type
  6533 ;;                  4   35[BANK0 ] long 
  6534 ;; Registers used:
  6535 ;;		wreg, status,2, status,0, cstack
  6536 ;; Tracked objects:
  6537 ;;		On entry : 0/0
  6538 ;;		On exit  : 0/0
  6539 ;;		Unchanged: 0/0
  6540 ;; Data sizes:     COMRAM   BANK0   BANK1   BANK2   BANK3   BANK4   BANK5   BANK6   BANK7
  6541 ;;      Params:         0       8       0       0       0       0       0       0       0
  6542 ;;      Locals:         0       0       0       0       0       0       0       0       0
  6543 ;;      Temps:          0       0       0       0       0       0       0       0       0
  6544 ;;      Totals:         0       8       0       0       0       0       0       0       0
  6545 ;;Total ram usage:        8 bytes
  6546 ;; Hardware stack levels used: 1
  6547 ;; Hardware stack levels required when called: 5
  6548 ;; This function calls:
  6549 ;;		___fladd
  6550 ;; This function is called by:
  6551 ;;		_efgtoa
  6552 ;; This function uses a non-reentrant model
  6553 ;;
  6554                           
  6555                           	psect	text16
  6556   0045F0                     __ptext16:
  6557                           	callstack 0
  6558   0045F0                     ___flsub:
  6559                           	callstack 21
  6560   0045F0  0E00               	movlw	0
  6561   0045F2  0100               	movlb	0	; () banked
  6562   0045F4  1B87               	xorwf	___flsub@a& (0+255),f,b
  6563   0045F6  0E00               	movlw	0
  6564   0045F8  1B88               	xorwf	(___flsub@a+1)& (0+255),f,b
  6565   0045FA  0E00               	movlw	0
  6566   0045FC  1B89               	xorwf	(___flsub@a+2)& (0+255),f,b
  6567   0045FE  0E80               	movlw	128
  6568   004600  1B8A               	xorwf	(___flsub@a+3)& (0+255),f,b
  6569   004602                     
  6570                           ; BSR set to: 0
  6571   004602  C083  F060         	movff	___flsub@b,___fladd@b
  6572   004606  C084  F061         	movff	___flsub@b+1,___fladd@b+1
  6573   00460A  C085  F062         	movff	___flsub@b+2,___fladd@b+2
  6574   00460E  C086  F063         	movff	___flsub@b+3,___fladd@b+3
  6575   004612  C087  F064         	movff	___flsub@a,___fladd@a
  6576   004616  C088  F065         	movff	___flsub@a+1,___fladd@a+1
  6577   00461A  C089  F066         	movff	___flsub@a+2,___fladd@a+2
  6578   00461E  C08A  F067         	movff	___flsub@a+3,___fladd@a+3
  6579   004622  EC8B  F00D         	call	___fladd	;wreg free
  6580   004626  C060  F083         	movff	?___fladd,?___flsub
  6581   00462A  C061  F084         	movff	?___fladd+1,?___flsub+1
  6582   00462E  C062  F085         	movff	?___fladd+2,?___flsub+2
  6583   004632  C063  F086         	movff	?___fladd+3,?___flsub+3
  6584   004636  0012               	return		;funcret
  6585   004638                     __end_of___flsub:
  6586                           	callstack 0
  6587                           
  6588 ;; *************** function ___fladd *****************
  6589 ;; Defined at:
  6590 ;;		line 10 in file "C:\Program Files\Microchip\xc8\v2.41\pic\sources\c99\common\sprcadd.c"
  6591 ;; Parameters:    Size  Location     Type
  6592 ;;  b               4    0[BANK0 ] long 
  6593 ;;  a               4    4[BANK0 ] long 
  6594 ;; Auto vars:     Size  Location     Type
  6595 ;;  grs             1   11[BANK0 ] unsigned char 
  6596 ;;  bexp            1   10[BANK0 ] unsigned char 
  6597 ;;  aexp            1    9[BANK0 ] unsigned char 
  6598 ;;  signs           1    8[BANK0 ] unsigned char 
  6599 ;; Return value:  Size  Location     Type
  6600 ;;                  4    0[BANK0 ] unsigned char 
  6601 ;; Registers used:
  6602 ;;		wreg, status,2, status,0
  6603 ;; Tracked objects:
  6604 ;;		On entry : 0/0
  6605 ;;		On exit  : 0/0
  6606 ;;		Unchanged: 0/0
  6607 ;; Data sizes:     COMRAM   BANK0   BANK1   BANK2   BANK3   BANK4   BANK5   BANK6   BANK7
  6608 ;;      Params:         0       8       0       0       0       0       0       0       0
  6609 ;;      Locals:         0       4       0       0       0       0       0       0       0
  6610 ;;      Temps:          4       0       0       0       0       0       0       0       0
  6611 ;;      Totals:         4      12       0       0       0       0       0       0       0
  6612 ;;Total ram usage:       16 bytes
  6613 ;; Hardware stack levels used: 1
  6614 ;; Hardware stack levels required when called: 4
  6615 ;; This function calls:
  6616 ;;		Nothing
  6617 ;; This function is called by:
  6618 ;;		___flsub
  6619 ;;		_efgtoa
  6620 ;; This function uses a non-reentrant model
  6621 ;;
  6622                           
  6623                           	psect	text17
  6624   001B16                     __ptext17:
  6625                           	callstack 0
  6626   001B16                     ___fladd:
  6627                           	callstack 21
  6628   001B16  0100               	movlb	0	; () banked
  6629   001B18  5163               	movf	(___fladd@b+3)& (0+255),w,b
  6630   001B1A  0B80               	andlw	128
  6631   001B1C  6F68               	movwf	___fladd@signs& (0+255),b
  6632   001B1E  5163               	movf	(___fladd@b+3)& (0+255),w,b
  6633   001B20  2563               	addwf	(___fladd@b+3)& (0+255),w,b
  6634   001B22  6F6A               	movwf	___fladd@bexp& (0+255),b
  6635   001B24                     
  6636                           ; BSR set to: 0
  6637   001B24  AF62               	btfss	(___fladd@b+2)& (0+255),7,b
  6638   001B26  EF97  F00D         	goto	u6241
  6639   001B2A  EF99  F00D         	goto	u6240
  6640   001B2E                     u6241:
  6641   001B2E  EF9A  F00D         	goto	l5888
  6642   001B32                     u6240:
  6643   001B32                     
  6644                           ; BSR set to: 0
  6645   001B32  816A               	bsf	___fladd@bexp& (0+255),0,b
  6646   001B34                     l5888:
  6647                           
  6648                           ; BSR set to: 0
  6649   001B34  516A               	movf	___fladd@bexp& (0+255),w,b
  6650   001B36  B4D8               	btfsc	status,2,c
  6651   001B38  EFA0  F00D         	goto	u6251
  6652   001B3C  EFA2  F00D         	goto	u6250
  6653   001B40                     u6251:
  6654   001B40  EFB7  F00D         	goto	l5898
  6655   001B44                     u6250:
  6656   001B44                     
  6657                           ; BSR set to: 0
  6658   001B44  296A               	incf	___fladd@bexp& (0+255),w,b
  6659   001B46  A4D8               	btfss	status,2,c
  6660   001B48  EFA8  F00D         	goto	u6261
  6661   001B4C  EFAA  F00D         	goto	u6260
  6662   001B50                     u6261:
  6663   001B50  EFB2  F00D         	goto	l5894
  6664   001B54                     u6260:
  6665   001B54                     
  6666                           ; BSR set to: 0
  6667   001B54  0E00               	movlw	0
  6668   001B56  6F60               	movwf	___fladd@b& (0+255),b
  6669   001B58  0E00               	movlw	0
  6670   001B5A  6F61               	movwf	(___fladd@b+1)& (0+255),b
  6671   001B5C  0E00               	movlw	0
  6672   001B5E  6F62               	movwf	(___fladd@b+2)& (0+255),b
  6673   001B60  0E00               	movlw	0
  6674   001B62  6F63               	movwf	(___fladd@b+3)& (0+255),b
  6675   001B64                     l5894:
  6676                           
  6677                           ; BSR set to: 0
  6678   001B64  8F62               	bsf	(___fladd@b+2)& (0+255),7,b
  6679   001B66                     
  6680                           ; BSR set to: 0
  6681   001B66  0E00               	movlw	0
  6682   001B68  6F63               	movwf	(___fladd@b+3)& (0+255),b
  6683   001B6A  EFBF  F00D         	goto	l5900
  6684   001B6E                     l5898:
  6685                           
  6686                           ; BSR set to: 0
  6687   001B6E  0E00               	movlw	0
  6688   001B70  6F60               	movwf	___fladd@b& (0+255),b
  6689   001B72  0E00               	movlw	0
  6690   001B74  6F61               	movwf	(___fladd@b+1)& (0+255),b
  6691   001B76  0E00               	movlw	0
  6692   001B78  6F62               	movwf	(___fladd@b+2)& (0+255),b
  6693   001B7A  0E00               	movlw	0
  6694   001B7C  6F63               	movwf	(___fladd@b+3)& (0+255),b
  6695   001B7E                     l5900:
  6696                           
  6697                           ; BSR set to: 0
  6698   001B7E  5167               	movf	(___fladd@a+3)& (0+255),w,b
  6699   001B80  0B80               	andlw	128
  6700   001B82  6F69               	movwf	___fladd@aexp& (0+255),b
  6701   001B84                     
  6702                           ; BSR set to: 0
  6703   001B84  5168               	movf	___fladd@signs& (0+255),w,b
  6704   001B86  1969               	xorwf	___fladd@aexp& (0+255),w,b
  6705   001B88  B4D8               	btfsc	status,2,c
  6706   001B8A  EFC9  F00D         	goto	u6271
  6707   001B8E  EFCB  F00D         	goto	u6270
  6708   001B92                     u6271:
  6709   001B92  EFCC  F00D         	goto	l5906
  6710   001B96                     u6270:
  6711   001B96                     
  6712                           ; BSR set to: 0
  6713   001B96  8D68               	bsf	___fladd@signs& (0+255),6,b
  6714   001B98                     l5906:
  6715                           
  6716                           ; BSR set to: 0
  6717   001B98  5167               	movf	(___fladd@a+3)& (0+255),w,b
  6718   001B9A  2567               	addwf	(___fladd@a+3)& (0+255),w,b
  6719   001B9C  6F69               	movwf	___fladd@aexp& (0+255),b
  6720   001B9E                     
  6721                           ; BSR set to: 0
  6722   001B9E  AF66               	btfss	(___fladd@a+2)& (0+255),7,b
  6723   001BA0  EFD4  F00D         	goto	u6281
  6724   001BA4  EFD6  F00D         	goto	u6280
  6725   001BA8                     u6281:
  6726   001BA8  EFD7  F00D         	goto	l5912
  6727   001BAC                     u6280:
  6728   001BAC                     
  6729                           ; BSR set to: 0
  6730   001BAC  8169               	bsf	___fladd@aexp& (0+255),0,b
  6731   001BAE                     l5912:
  6732                           
  6733                           ; BSR set to: 0
  6734   001BAE  5169               	movf	___fladd@aexp& (0+255),w,b
  6735   001BB0  B4D8               	btfsc	status,2,c
  6736   001BB2  EFDD  F00D         	goto	u6291
  6737   001BB6  EFDF  F00D         	goto	u6290
  6738   001BBA                     u6291:
  6739   001BBA  EFF4  F00D         	goto	l5922
  6740   001BBE                     u6290:
  6741   001BBE                     
  6742                           ; BSR set to: 0
  6743   001BBE  2969               	incf	___fladd@aexp& (0+255),w,b
  6744   001BC0  A4D8               	btfss	status,2,c
  6745   001BC2  EFE5  F00D         	goto	u6301
  6746   001BC6  EFE7  F00D         	goto	u6300
  6747   001BCA                     u6301:
  6748   001BCA  EFEF  F00D         	goto	l5918
  6749   001BCE                     u6300:
  6750   001BCE                     
  6751                           ; BSR set to: 0
  6752   001BCE  0E00               	movlw	0
  6753   001BD0  6F64               	movwf	___fladd@a& (0+255),b
  6754   001BD2  0E00               	movlw	0
  6755   001BD4  6F65               	movwf	(___fladd@a+1)& (0+255),b
  6756   001BD6  0E00               	movlw	0
  6757   001BD8  6F66               	movwf	(___fladd@a+2)& (0+255),b
  6758   001BDA  0E00               	movlw	0
  6759   001BDC  6F67               	movwf	(___fladd@a+3)& (0+255),b
  6760   001BDE                     l5918:
  6761                           
  6762                           ; BSR set to: 0
  6763   001BDE  8F66               	bsf	(___fladd@a+2)& (0+255),7,b
  6764   001BE0                     
  6765                           ; BSR set to: 0
  6766   001BE0  0E00               	movlw	0
  6767   001BE2  6F67               	movwf	(___fladd@a+3)& (0+255),b
  6768   001BE4  EFFC  F00D         	goto	l5924
  6769   001BE8                     l5922:
  6770                           
  6771                           ; BSR set to: 0
  6772   001BE8  0E00               	movlw	0
  6773   001BEA  6F64               	movwf	___fladd@a& (0+255),b
  6774   001BEC  0E00               	movlw	0
  6775   001BEE  6F65               	movwf	(___fladd@a+1)& (0+255),b
  6776   001BF0  0E00               	movlw	0
  6777   001BF2  6F66               	movwf	(___fladd@a+2)& (0+255),b
  6778   001BF4  0E00               	movlw	0
  6779   001BF6  6F67               	movwf	(___fladd@a+3)& (0+255),b
  6780   001BF8                     l5924:
  6781                           
  6782                           ; BSR set to: 0
  6783   001BF8  516A               	movf	___fladd@bexp& (0+255),w,b
  6784   001BFA  5D69               	subwf	___fladd@aexp& (0+255),w,b
  6785   001BFC  B0D8               	btfsc	status,0,c
  6786   001BFE  EF03  F00E         	goto	u6311
  6787   001C02  EF05  F00E         	goto	u6310
  6788   001C06                     u6311:
  6789   001C06  EF2C  F00E         	goto	l5960
  6790   001C0A                     u6310:
  6791   001C0A                     
  6792                           ; BSR set to: 0
  6793   001C0A  AD68               	btfss	___fladd@signs& (0+255),6,b
  6794   001C0C  EF0A  F00E         	goto	u6321
  6795   001C10  EF0C  F00E         	goto	u6320
  6796   001C14                     u6321:
  6797   001C14  EF0E  F00E         	goto	l5930
  6798   001C18                     u6320:
  6799   001C18                     
  6800                           ; BSR set to: 0
  6801   001C18  0E80               	movlw	128
  6802   001C1A  1B68               	xorwf	___fladd@signs& (0+255),f,b
  6803   001C1C                     l5930:
  6804                           
  6805                           ; BSR set to: 0
  6806   001C1C  C06A  F06B         	movff	___fladd@bexp,___fladd@grs
  6807   001C20                     
  6808                           ; BSR set to: 0
  6809   001C20  C069  F06A         	movff	___fladd@aexp,___fladd@bexp
  6810   001C24                     
  6811                           ; BSR set to: 0
  6812   001C24  C06B  F069         	movff	___fladd@grs,___fladd@aexp
  6813   001C28                     
  6814                           ; BSR set to: 0
  6815   001C28  C060  F06B         	movff	___fladd@b,___fladd@grs
  6816   001C2C                     
  6817                           ; BSR set to: 0
  6818   001C2C  C064  F060         	movff	___fladd@a,___fladd@b
  6819   001C30                     
  6820                           ; BSR set to: 0
  6821   001C30  C06B  F064         	movff	___fladd@grs,___fladd@a
  6822   001C34                     
  6823                           ; BSR set to: 0
  6824   001C34  C061  F06B         	movff	___fladd@b+1,___fladd@grs
  6825   001C38                     
  6826                           ; BSR set to: 0
  6827   001C38  C065  F061         	movff	___fladd@a+1,___fladd@b+1
  6828   001C3C                     
  6829                           ; BSR set to: 0
  6830   001C3C  C06B  F065         	movff	___fladd@grs,___fladd@a+1
  6831   001C40                     
  6832                           ; BSR set to: 0
  6833   001C40  C062  F06B         	movff	___fladd@b+2,___fladd@grs
  6834   001C44                     
  6835                           ; BSR set to: 0
  6836   001C44  C066  F062         	movff	___fladd@a+2,___fladd@b+2
  6837   001C48                     
  6838                           ; BSR set to: 0
  6839   001C48  C06B  F066         	movff	___fladd@grs,___fladd@a+2
  6840   001C4C                     
  6841                           ; BSR set to: 0
  6842   001C4C  C063  F06B         	movff	___fladd@b+3,___fladd@grs
  6843   001C50                     
  6844                           ; BSR set to: 0
  6845   001C50  C067  F063         	movff	___fladd@a+3,___fladd@b+3
  6846   001C54                     
  6847                           ; BSR set to: 0
  6848   001C54  C06B  F067         	movff	___fladd@grs,___fladd@a+3
  6849   001C58                     l5960:
  6850                           
  6851                           ; BSR set to: 0
  6852   001C58  0E00               	movlw	0
  6853   001C5A  6F6B               	movwf	___fladd@grs& (0+255),b
  6854   001C5C                     
  6855                           ; BSR set to: 0
  6856   001C5C  516A               	movf	___fladd@bexp& (0+255),w,b
  6857   001C5E  C069  F01F         	movff	___fladd@aexp,??___fladd
  6858   001C62  6A20               	clrf	(??___fladd+1)^0,c
  6859   001C64  5E1F               	subwf	??___fladd^0,f,c
  6860   001C66  0E00               	movlw	0
  6861   001C68  5A20               	subwfb	(??___fladd+1)^0,f,c
  6862   001C6A  BE20               	btfsc	(??___fladd+1)^0,7,c
  6863   001C6C  EF41  F00E         	goto	u6331
  6864   001C70  5020               	movf	(??___fladd+1)^0,w,c
  6865   001C72  E109               	bnz	u6330
  6866   001C74  0E1A               	movlw	26
  6867   001C76  5C1F               	subwf	??___fladd^0,w,c
  6868   001C78  A0D8               	btfss	status,0,c
  6869   001C7A  EF41  F00E         	goto	u6331
  6870   001C7E  EF43  F00E         	goto	u6330
  6871   001C82                     u6331:
  6872   001C82  EF7A  F00E         	goto	l1125
  6873   001C86                     u6330:
  6874   001C86                     
  6875                           ; BSR set to: 0
  6876   001C86  5160               	movf	___fladd@b& (0+255),w,b
  6877   001C88  1161               	iorwf	(___fladd@b+1)& (0+255),w,b
  6878   001C8A  1162               	iorwf	(___fladd@b+2)& (0+255),w,b
  6879   001C8C  1163               	iorwf	(___fladd@b+3)& (0+255),w,b
  6880   001C8E  A4D8               	btfss	status,2,c
  6881   001C90  EF4C  F00E         	goto	u6341
  6882   001C94  EF4F  F00E         	goto	u6340
  6883   001C98                     u6341:
  6884   001C98  0E01               	movlw	1
  6885   001C9A  EF50  F00E         	goto	u6350
  6886   001C9E                     u6340:
  6887   001C9E  0E00               	movlw	0
  6888   001CA0                     u6350:
  6889   001CA0  6F6B               	movwf	___fladd@grs& (0+255),b
  6890   001CA2                     
  6891                           ; BSR set to: 0
  6892   001CA2  0E00               	movlw	0
  6893   001CA4  6F60               	movwf	___fladd@b& (0+255),b
  6894   001CA6  0E00               	movlw	0
  6895   001CA8  6F61               	movwf	(___fladd@b+1)& (0+255),b
  6896   001CAA  0E00               	movlw	0
  6897   001CAC  6F62               	movwf	(___fladd@b+2)& (0+255),b
  6898   001CAE  0E00               	movlw	0
  6899   001CB0  6F63               	movwf	(___fladd@b+3)& (0+255),b
  6900   001CB2                     
  6901                           ; BSR set to: 0
  6902   001CB2  C069  F06A         	movff	___fladd@aexp,___fladd@bexp
  6903   001CB6  EF83  F00E         	goto	l1124
  6904   001CBA                     l1126:
  6905                           
  6906                           ; BSR set to: 0
  6907   001CBA  A16B               	btfss	___fladd@grs& (0+255),0,b
  6908   001CBC  EF62  F00E         	goto	u6361
  6909   001CC0  EF64  F00E         	goto	u6360
  6910   001CC4                     u6361:
  6911   001CC4  EF6A  F00E         	goto	l5972
  6912   001CC8                     u6360:
  6913   001CC8                     
  6914                           ; BSR set to: 0
  6915   001CC8  90D8               	bcf	status,0,c
  6916   001CCA  316B               	rrcf	___fladd@grs& (0+255),w,b
  6917   001CCC  0901               	iorlw	1
  6918   001CCE  6F6B               	movwf	___fladd@grs& (0+255),b
  6919   001CD0  EF6C  F00E         	goto	l5974
  6920   001CD4                     l5972:
  6921                           
  6922                           ; BSR set to: 0
  6923   001CD4  90D8               	bcf	status,0,c
  6924   001CD6  336B               	rrcf	___fladd@grs& (0+255),f,b
  6925   001CD8                     l5974:
  6926                           
  6927                           ; BSR set to: 0
  6928   001CD8  A160               	btfss	___fladd@b& (0+255),0,b
  6929   001CDA  EF71  F00E         	goto	u6371
  6930   001CDE  EF73  F00E         	goto	u6370
  6931   001CE2                     u6371:
  6932   001CE2  EF74  F00E         	goto	l5978
  6933   001CE6                     u6370:
  6934   001CE6                     
  6935                           ; BSR set to: 0
  6936   001CE6  8F6B               	bsf	___fladd@grs& (0+255),7,b
  6937   001CE8                     l5978:
  6938                           
  6939                           ; BSR set to: 0
  6940   001CE8  3563               	rlcf	(___fladd@b+3)& (0+255),w,b
  6941   001CEA  3363               	rrcf	(___fladd@b+3)& (0+255),f,b
  6942   001CEC  3362               	rrcf	(___fladd@b+2)& (0+255),f,b
  6943   001CEE  3361               	rrcf	(___fladd@b+1)& (0+255),f,b
  6944   001CF0  3360               	rrcf	___fladd@b& (0+255),f,b
  6945   001CF2                     
  6946                           ; BSR set to: 0
  6947   001CF2  2B6A               	incf	___fladd@bexp& (0+255),f,b
  6948   001CF4                     l1125:
  6949                           
  6950                           ; BSR set to: 0
  6951   001CF4  5169               	movf	___fladd@aexp& (0+255),w,b
  6952   001CF6  5D6A               	subwf	___fladd@bexp& (0+255),w,b
  6953   001CF8  A0D8               	btfss	status,0,c
  6954   001CFA  EF81  F00E         	goto	u6381
  6955   001CFE  EF83  F00E         	goto	u6380
  6956   001D02                     u6381:
  6957   001D02  EF5D  F00E         	goto	l1126
  6958   001D06                     u6380:
  6959   001D06                     l1124:
  6960                           
  6961                           ; BSR set to: 0
  6962   001D06  BD68               	btfsc	___fladd@signs& (0+255),6,b
  6963   001D08  EF88  F00E         	goto	u6391
  6964   001D0C  EF8A  F00E         	goto	u6390
  6965   001D10                     u6391:
  6966   001D10  EFCA  F00E         	goto	l6006
  6967   001D14                     u6390:
  6968   001D14                     
  6969                           ; BSR set to: 0
  6970   001D14  516A               	movf	___fladd@bexp& (0+255),w,b
  6971   001D16  A4D8               	btfss	status,2,c
  6972   001D18  EF90  F00E         	goto	u6401
  6973   001D1C  EF92  F00E         	goto	u6400
  6974   001D20                     u6401:
  6975   001D20  EF9C  F00E         	goto	l5988
  6976   001D24                     u6400:
  6977   001D24                     
  6978                           ; BSR set to: 0
  6979   001D24  0E00               	movlw	0
  6980   001D26  6F60               	movwf	?___fladd& (0+255),b
  6981   001D28  0E00               	movlw	0
  6982   001D2A  6F61               	movwf	(?___fladd+1)& (0+255),b
  6983   001D2C  0E00               	movlw	0
  6984   001D2E  6F62               	movwf	(?___fladd+2)& (0+255),b
  6985   001D30  0E00               	movlw	0
  6986   001D32  6F63               	movwf	(?___fladd+3)& (0+255),b
  6987   001D34  EFEB  F00F         	goto	l1133
  6988   001D38                     l5988:
  6989                           
  6990                           ; BSR set to: 0
  6991   001D38  5164               	movf	___fladd@a& (0+255),w,b
  6992   001D3A  2760               	addwf	___fladd@b& (0+255),f,b
  6993   001D3C  5165               	movf	(___fladd@a+1)& (0+255),w,b
  6994   001D3E  2361               	addwfc	(___fladd@b+1)& (0+255),f,b
  6995   001D40  5166               	movf	(___fladd@a+2)& (0+255),w,b
  6996   001D42  2362               	addwfc	(___fladd@b+2)& (0+255),f,b
  6997   001D44  5167               	movf	(___fladd@a+3)& (0+255),w,b
  6998   001D46  2363               	addwfc	(___fladd@b+3)& (0+255),f,b
  6999   001D48                     
  7000                           ; BSR set to: 0
  7001   001D48  A163               	btfss	(___fladd@b+3)& (0+255),0,b
  7002   001D4A  EFA9  F00E         	goto	u6411
  7003   001D4E  EFAB  F00E         	goto	u6410
  7004   001D52                     u6411:
  7005   001D52  EF57  F00F         	goto	l6042
  7006   001D56                     u6410:
  7007   001D56                     
  7008                           ; BSR set to: 0
  7009   001D56  A16B               	btfss	___fladd@grs& (0+255),0,b
  7010   001D58  EFB0  F00E         	goto	u6421
  7011   001D5C  EFB2  F00E         	goto	u6420
  7012   001D60                     u6421:
  7013   001D60  EFB8  F00E         	goto	l5996
  7014   001D64                     u6420:
  7015   001D64                     
  7016                           ; BSR set to: 0
  7017   001D64  90D8               	bcf	status,0,c
  7018   001D66  316B               	rrcf	___fladd@grs& (0+255),w,b
  7019   001D68  0901               	iorlw	1
  7020   001D6A  6F6B               	movwf	___fladd@grs& (0+255),b
  7021   001D6C  EFBA  F00E         	goto	l5998
  7022   001D70                     l5996:
  7023                           
  7024                           ; BSR set to: 0
  7025   001D70  90D8               	bcf	status,0,c
  7026   001D72  336B               	rrcf	___fladd@grs& (0+255),f,b
  7027   001D74                     l5998:
  7028                           
  7029                           ; BSR set to: 0
  7030   001D74  A160               	btfss	___fladd@b& (0+255),0,b
  7031   001D76  EFBF  F00E         	goto	u6431
  7032   001D7A  EFC1  F00E         	goto	u6430
  7033   001D7E                     u6431:
  7034   001D7E  EFC2  F00E         	goto	l6002
  7035   001D82                     u6430:
  7036   001D82                     
  7037                           ; BSR set to: 0
  7038   001D82  8F6B               	bsf	___fladd@grs& (0+255),7,b
  7039   001D84                     l6002:
  7040                           
  7041                           ; BSR set to: 0
  7042   001D84  3563               	rlcf	(___fladd@b+3)& (0+255),w,b
  7043   001D86  3363               	rrcf	(___fladd@b+3)& (0+255),f,b
  7044   001D88  3362               	rrcf	(___fladd@b+2)& (0+255),f,b
  7045   001D8A  3361               	rrcf	(___fladd@b+1)& (0+255),f,b
  7046   001D8C  3360               	rrcf	___fladd@b& (0+255),f,b
  7047   001D8E                     
  7048                           ; BSR set to: 0
  7049   001D8E  2B6A               	incf	___fladd@bexp& (0+255),f,b
  7050   001D90  EF57  F00F         	goto	l6042
  7051   001D94                     l6006:
  7052                           
  7053                           ; BSR set to: 0
  7054   001D94  5164               	movf	___fladd@a& (0+255),w,b
  7055   001D96  5D60               	subwf	___fladd@b& (0+255),w,b
  7056   001D98  5165               	movf	(___fladd@a+1)& (0+255),w,b
  7057   001D9A  5961               	subwfb	(___fladd@b+1)& (0+255),w,b
  7058   001D9C  5166               	movf	(___fladd@a+2)& (0+255),w,b
  7059   001D9E  5962               	subwfb	(___fladd@b+2)& (0+255),w,b
  7060   001DA0  5163               	movf	(___fladd@b+3)& (0+255),w,b
  7061   001DA2  0A80               	xorlw	128
  7062   001DA4  6E1F               	movwf	??___fladd^0,c
  7063   001DA6  5167               	movf	(___fladd@a+3)& (0+255),w,b
  7064   001DA8  0A80               	xorlw	128
  7065   001DAA  581F               	subwfb	??___fladd^0,w,c
  7066   001DAC  B0D8               	btfsc	status,0,c
  7067   001DAE  EFDB  F00E         	goto	u6441
  7068   001DB2  EFDD  F00E         	goto	u6440
  7069   001DB6                     u6441:
  7070   001DB6  EF08  F00F         	goto	l6016
  7071   001DBA                     u6440:
  7072   001DBA                     
  7073                           ; BSR set to: 0
  7074   001DBA  5160               	movf	___fladd@b& (0+255),w,b
  7075   001DBC  5D64               	subwf	___fladd@a& (0+255),w,b
  7076   001DBE  6E1F               	movwf	??___fladd^0,c
  7077   001DC0  5161               	movf	(___fladd@b+1)& (0+255),w,b
  7078   001DC2  5965               	subwfb	(___fladd@a+1)& (0+255),w,b
  7079   001DC4  6E20               	movwf	(??___fladd+1)^0,c
  7080   001DC6  5162               	movf	(___fladd@b+2)& (0+255),w,b
  7081   001DC8  5966               	subwfb	(___fladd@a+2)& (0+255),w,b
  7082   001DCA  6E21               	movwf	(??___fladd+2)^0,c
  7083   001DCC  5163               	movf	(___fladd@b+3)& (0+255),w,b
  7084   001DCE  5967               	subwfb	(___fladd@a+3)& (0+255),w,b
  7085   001DD0  6E22               	movwf	(??___fladd+3)^0,c
  7086   001DD2  0EFF               	movlw	255
  7087   001DD4  241F               	addwf	??___fladd^0,w,c
  7088   001DD6  6F60               	movwf	___fladd@b& (0+255),b
  7089   001DD8  0EFF               	movlw	255
  7090   001DDA  2020               	addwfc	(??___fladd+1)^0,w,c
  7091   001DDC  6F61               	movwf	(___fladd@b+1)& (0+255),b
  7092   001DDE  0EFF               	movlw	255
  7093   001DE0  2021               	addwfc	(??___fladd+2)^0,w,c
  7094   001DE2  6F62               	movwf	(___fladd@b+2)& (0+255),b
  7095   001DE4  0EFF               	movlw	255
  7096   001DE6  2022               	addwfc	(??___fladd+3)^0,w,c
  7097   001DE8  6F63               	movwf	(___fladd@b+3)& (0+255),b
  7098   001DEA  0E80               	movlw	128
  7099   001DEC  1B68               	xorwf	___fladd@signs& (0+255),f,b
  7100   001DEE                     
  7101                           ; BSR set to: 0
  7102   001DEE  6D6B               	negf	___fladd@grs& (0+255),b
  7103   001DF0                     
  7104                           ; BSR set to: 0
  7105   001DF0  516B               	movf	___fladd@grs& (0+255),w,b
  7106   001DF2  A4D8               	btfss	status,2,c
  7107   001DF4  EFFE  F00E         	goto	u6451
  7108   001DF8  EF00  F00F         	goto	u6450
  7109   001DFC                     u6451:
  7110   001DFC  EF10  F00F         	goto	l1141
  7111   001E00                     u6450:
  7112   001E00                     
  7113                           ; BSR set to: 0
  7114   001E00  0E01               	movlw	1
  7115   001E02  2760               	addwf	___fladd@b& (0+255),f,b
  7116   001E04  0E00               	movlw	0
  7117   001E06  2361               	addwfc	(___fladd@b+1)& (0+255),f,b
  7118   001E08  2362               	addwfc	(___fladd@b+2)& (0+255),f,b
  7119   001E0A  2363               	addwfc	(___fladd@b+3)& (0+255),f,b
  7120   001E0C  EF10  F00F         	goto	l1141
  7121   001E10                     l6016:
  7122                           
  7123                           ; BSR set to: 0
  7124   001E10  5164               	movf	___fladd@a& (0+255),w,b
  7125   001E12  5F60               	subwf	___fladd@b& (0+255),f,b
  7126   001E14  5165               	movf	(___fladd@a+1)& (0+255),w,b
  7127   001E16  5B61               	subwfb	(___fladd@b+1)& (0+255),f,b
  7128   001E18  5166               	movf	(___fladd@a+2)& (0+255),w,b
  7129   001E1A  5B62               	subwfb	(___fladd@b+2)& (0+255),f,b
  7130   001E1C  5167               	movf	(___fladd@a+3)& (0+255),w,b
  7131   001E1E  5B63               	subwfb	(___fladd@b+3)& (0+255),f,b
  7132   001E20                     l1141:
  7133                           
  7134                           ; BSR set to: 0
  7135   001E20  5160               	movf	___fladd@b& (0+255),w,b
  7136   001E22  1161               	iorwf	(___fladd@b+1)& (0+255),w,b
  7137   001E24  1162               	iorwf	(___fladd@b+2)& (0+255),w,b
  7138   001E26  1163               	iorwf	(___fladd@b+3)& (0+255),w,b
  7139   001E28  A4D8               	btfss	status,2,c
  7140   001E2A  EF19  F00F         	goto	u6461
  7141   001E2E  EF1B  F00F         	goto	u6460
  7142   001E32                     u6461:
  7143   001E32  EF50  F00F         	goto	l6040
  7144   001E36                     u6460:
  7145   001E36                     
  7146                           ; BSR set to: 0
  7147   001E36  516B               	movf	___fladd@grs& (0+255),w,b
  7148   001E38  A4D8               	btfss	status,2,c
  7149   001E3A  EF21  F00F         	goto	u6471
  7150   001E3E  EF23  F00F         	goto	u6470
  7151   001E42                     u6471:
  7152   001E42  EF50  F00F         	goto	l6040
  7153   001E46                     u6470:
  7154   001E46                     
  7155                           ; BSR set to: 0
  7156   001E46  0E00               	movlw	0
  7157   001E48  6F60               	movwf	?___fladd& (0+255),b
  7158   001E4A  0E00               	movlw	0
  7159   001E4C  6F61               	movwf	(?___fladd+1)& (0+255),b
  7160   001E4E  0E00               	movlw	0
  7161   001E50  6F62               	movwf	(?___fladd+2)& (0+255),b
  7162   001E52  0E00               	movlw	0
  7163   001E54  6F63               	movwf	(?___fladd+3)& (0+255),b
  7164   001E56  EFEB  F00F         	goto	l1133
  7165   001E5A                     l6024:
  7166                           
  7167                           ; BSR set to: 0
  7168   001E5A  90D8               	bcf	status,0,c
  7169   001E5C  3760               	rlcf	___fladd@b& (0+255),f,b
  7170   001E5E  3761               	rlcf	(___fladd@b+1)& (0+255),f,b
  7171   001E60  3762               	rlcf	(___fladd@b+2)& (0+255),f,b
  7172   001E62  3763               	rlcf	(___fladd@b+3)& (0+255),f,b
  7173   001E64                     
  7174                           ; BSR set to: 0
  7175   001E64  AF6B               	btfss	___fladd@grs& (0+255),7,b
  7176   001E66  EF37  F00F         	goto	u6481
  7177   001E6A  EF39  F00F         	goto	u6480
  7178   001E6E                     u6481:
  7179   001E6E  EF3A  F00F         	goto	l6030
  7180   001E72                     u6480:
  7181   001E72                     
  7182                           ; BSR set to: 0
  7183   001E72  8160               	bsf	___fladd@b& (0+255),0,b
  7184   001E74                     l6030:
  7185                           
  7186                           ; BSR set to: 0
  7187   001E74  A16B               	btfss	___fladd@grs& (0+255),0,b
  7188   001E76  EF3F  F00F         	goto	u6491
  7189   001E7A  EF41  F00F         	goto	u6490
  7190   001E7E                     u6491:
  7191   001E7E  EF45  F00F         	goto	l6034
  7192   001E82                     u6490:
  7193   001E82                     
  7194                           ; BSR set to: 0
  7195   001E82  80D8               	bsf	status,0,c
  7196   001E84  376B               	rlcf	___fladd@grs& (0+255),f,b
  7197   001E86  EF47  F00F         	goto	l6036
  7198   001E8A                     l6034:
  7199                           
  7200                           ; BSR set to: 0
  7201   001E8A  90D8               	bcf	status,0,c
  7202   001E8C  376B               	rlcf	___fladd@grs& (0+255),f,b
  7203   001E8E                     l6036:
  7204                           
  7205                           ; BSR set to: 0
  7206   001E8E  516A               	movf	___fladd@bexp& (0+255),w,b
  7207   001E90  B4D8               	btfsc	status,2,c
  7208   001E92  EF4D  F00F         	goto	u6501
  7209   001E96  EF4F  F00F         	goto	u6500
  7210   001E9A                     u6501:
  7211   001E9A  EF50  F00F         	goto	l6040
  7212   001E9E                     u6500:
  7213   001E9E                     
  7214                           ; BSR set to: 0
  7215   001E9E  076A               	decf	___fladd@bexp& (0+255),f,b
  7216   001EA0                     l6040:
  7217                           
  7218                           ; BSR set to: 0
  7219   001EA0  AF62               	btfss	(___fladd@b+2)& (0+255),7,b
  7220   001EA2  EF55  F00F         	goto	u6511
  7221   001EA6  EF57  F00F         	goto	u6510
  7222   001EAA                     u6511:
  7223   001EAA  EF2D  F00F         	goto	l6024
  7224   001EAE                     u6510:
  7225   001EAE                     l6042:
  7226                           
  7227                           ; BSR set to: 0
  7228   001EAE  0E00               	movlw	0
  7229   001EB0  6F69               	movwf	___fladd@aexp& (0+255),b
  7230   001EB2                     
  7231                           ; BSR set to: 0
  7232   001EB2  AF6B               	btfss	___fladd@grs& (0+255),7,b
  7233   001EB4  EF5E  F00F         	goto	u6521
  7234   001EB8  EF60  F00F         	goto	u6520
  7235   001EBC                     u6521:
  7236   001EBC  EF78  F00F         	goto	l1150
  7237   001EC0                     u6520:
  7238   001EC0                     
  7239                           ; BSR set to: 0
  7240   001EC0  C06B  F01F         	movff	___fladd@grs,??___fladd
  7241   001EC4  0E7F               	movlw	127
  7242   001EC6  161F               	andwf	??___fladd^0,f,c
  7243   001EC8  B4D8               	btfsc	status,2,c
  7244   001ECA  EF69  F00F         	goto	u6531
  7245   001ECE  EF6B  F00F         	goto	u6530
  7246   001ED2                     u6531:
  7247   001ED2  EF6F  F00F         	goto	l1151
  7248   001ED6                     u6530:
  7249   001ED6                     l6048:
  7250                           
  7251                           ; BSR set to: 0
  7252   001ED6  0E01               	movlw	1
  7253   001ED8  6F69               	movwf	___fladd@aexp& (0+255),b
  7254   001EDA  EF78  F00F         	goto	l1150
  7255   001EDE                     l1151:
  7256                           
  7257                           ; BSR set to: 0
  7258   001EDE  A160               	btfss	___fladd@b& (0+255),0,b
  7259   001EE0  EF74  F00F         	goto	u6541
  7260   001EE4  EF76  F00F         	goto	u6540
  7261   001EE8                     u6541:
  7262   001EE8  EF78  F00F         	goto	l1150
  7263   001EEC                     u6540:
  7264   001EEC  EF6B  F00F         	goto	l6048
  7265   001EF0                     l1150:
  7266                           
  7267                           ; BSR set to: 0
  7268   001EF0  5169               	movf	___fladd@aexp& (0+255),w,b
  7269   001EF2  B4D8               	btfsc	status,2,c
  7270   001EF4  EF7E  F00F         	goto	u6551
  7271   001EF8  EF80  F00F         	goto	u6550
  7272   001EFC                     u6551:
  7273   001EFC  EFAB  F00F         	goto	l6060
  7274   001F00                     u6550:
  7275   001F00                     
  7276                           ; BSR set to: 0
  7277   001F00  0E01               	movlw	1
  7278   001F02  2760               	addwf	___fladd@b& (0+255),f,b
  7279   001F04  0E00               	movlw	0
  7280   001F06  2361               	addwfc	(___fladd@b+1)& (0+255),f,b
  7281   001F08  2362               	addwfc	(___fladd@b+2)& (0+255),f,b
  7282   001F0A  2363               	addwfc	(___fladd@b+3)& (0+255),f,b
  7283   001F0C                     
  7284                           ; BSR set to: 0
  7285   001F0C  A163               	btfss	(___fladd@b+3)& (0+255),0,b
  7286   001F0E  EF8B  F00F         	goto	u6561
  7287   001F12  EF8D  F00F         	goto	u6560
  7288   001F16                     u6561:
  7289   001F16  EFAB  F00F         	goto	l6060
  7290   001F1A                     u6560:
  7291   001F1A                     
  7292                           ; BSR set to: 0
  7293   001F1A  C060  F01F         	movff	___fladd@b,??___fladd
  7294   001F1E  C061  F020         	movff	___fladd@b+1,??___fladd+1
  7295   001F22  C062  F021         	movff	___fladd@b+2,??___fladd+2
  7296   001F26  C063  F022         	movff	___fladd@b+3,??___fladd+3
  7297   001F2A  3422               	rlcf	(??___fladd+3)^0,w,c
  7298   001F2C  3222               	rrcf	(??___fladd+3)^0,f,c
  7299   001F2E  3221               	rrcf	(??___fladd+2)^0,f,c
  7300   001F30  3220               	rrcf	(??___fladd+1)^0,f,c
  7301   001F32  321F               	rrcf	??___fladd^0,f,c
  7302   001F34  C01F  F060         	movff	??___fladd,___fladd@b
  7303   001F38  C020  F061         	movff	??___fladd+1,___fladd@b+1
  7304   001F3C  C021  F062         	movff	??___fladd+2,___fladd@b+2
  7305   001F40  C022  F063         	movff	??___fladd+3,___fladd@b+3
  7306   001F44  296A               	incf	___fladd@bexp& (0+255),w,b
  7307   001F46  B4D8               	btfsc	status,2,c
  7308   001F48  EFA8  F00F         	goto	u6571
  7309   001F4C  EFAA  F00F         	goto	u6570
  7310   001F50                     u6571:
  7311   001F50  EFAB  F00F         	goto	l6060
  7312   001F54                     u6570:
  7313   001F54                     
  7314                           ; BSR set to: 0
  7315   001F54  2B6A               	incf	___fladd@bexp& (0+255),f,b
  7316   001F56                     l6060:
  7317                           
  7318                           ; BSR set to: 0
  7319   001F56  296A               	incf	___fladd@bexp& (0+255),w,b
  7320   001F58  B4D8               	btfsc	status,2,c
  7321   001F5A  EFB1  F00F         	goto	u6581
  7322   001F5E  EFB3  F00F         	goto	u6580
  7323   001F62                     u6581:
  7324   001F62  EFBB  F00F         	goto	l6064
  7325   001F66                     u6580:
  7326   001F66                     
  7327                           ; BSR set to: 0
  7328   001F66  516A               	movf	___fladd@bexp& (0+255),w,b
  7329   001F68  A4D8               	btfss	status,2,c
  7330   001F6A  EFB9  F00F         	goto	u6591
  7331   001F6E  EFBB  F00F         	goto	u6590
  7332   001F72                     u6591:
  7333   001F72  EFCD  F00F         	goto	l6068
  7334   001F76                     u6590:
  7335   001F76                     l6064:
  7336                           
  7337                           ; BSR set to: 0
  7338   001F76  0E00               	movlw	0
  7339   001F78  6F60               	movwf	___fladd@b& (0+255),b
  7340   001F7A  0E00               	movlw	0
  7341   001F7C  6F61               	movwf	(___fladd@b+1)& (0+255),b
  7342   001F7E  0E00               	movlw	0
  7343   001F80  6F62               	movwf	(___fladd@b+2)& (0+255),b
  7344   001F82  0E00               	movlw	0
  7345   001F84  6F63               	movwf	(___fladd@b+3)& (0+255),b
  7346   001F86  516A               	movf	___fladd@bexp& (0+255),w,b
  7347   001F88  A4D8               	btfss	status,2,c
  7348   001F8A  EFC9  F00F         	goto	u6601
  7349   001F8E  EFCB  F00F         	goto	u6600
  7350   001F92                     u6601:
  7351   001F92  EFCD  F00F         	goto	l6068
  7352   001F96                     u6600:
  7353   001F96                     
  7354                           ; BSR set to: 0
  7355   001F96  0E00               	movlw	0
  7356   001F98  6F68               	movwf	___fladd@signs& (0+255),b
  7357   001F9A                     l6068:
  7358                           
  7359                           ; BSR set to: 0
  7360   001F9A  A16A               	btfss	___fladd@bexp& (0+255),0,b
  7361   001F9C  EFD2  F00F         	goto	u6611
  7362   001FA0  EFD4  F00F         	goto	u6610
  7363   001FA4                     u6611:
  7364   001FA4  EFD7  F00F         	goto	l6072
  7365   001FA8                     u6610:
  7366   001FA8                     
  7367                           ; BSR set to: 0
  7368   001FA8  8F62               	bsf	(___fladd@b+2)& (0+255),7,b
  7369   001FAA  EFD8  F00F         	goto	l6074
  7370   001FAE                     l6072:
  7371                           
  7372                           ; BSR set to: 0
  7373   001FAE  9F62               	bcf	(___fladd@b+2)& (0+255),7,b
  7374   001FB0                     l6074:
  7375                           
  7376                           ; BSR set to: 0
  7377   001FB0  90D8               	bcf	status,0,c
  7378   001FB2  316A               	rrcf	___fladd@bexp& (0+255),w,b
  7379   001FB4  6F63               	movwf	(___fladd@b+3)& (0+255),b
  7380   001FB6                     
  7381                           ; BSR set to: 0
  7382   001FB6  AF68               	btfss	___fladd@signs& (0+255),7,b
  7383   001FB8  EFE0  F00F         	goto	u6621
  7384   001FBC  EFE2  F00F         	goto	u6620
  7385   001FC0                     u6621:
  7386   001FC0  EFE3  F00F         	goto	l6080
  7387   001FC4                     u6620:
  7388   001FC4                     
  7389                           ; BSR set to: 0
  7390   001FC4  8F63               	bsf	(___fladd@b+3)& (0+255),7,b
  7391   001FC6                     l6080:
  7392                           
  7393                           ; BSR set to: 0
  7394   001FC6  C060  F060         	movff	___fladd@b,?___fladd
  7395   001FCA  C061  F061         	movff	___fladd@b+1,?___fladd+1
  7396   001FCE  C062  F062         	movff	___fladd@b+2,?___fladd+2
  7397   001FD2  C063  F063         	movff	___fladd@b+3,?___fladd+3
  7398   001FD6                     l1133:
  7399                           
  7400                           ; BSR set to: 0
  7401   001FD6  0012               	return		;funcret
  7402   001FD8                     __end_of___fladd:
  7403                           	callstack 0
  7404                           
  7405 ;; *************** function ___flneg *****************
  7406 ;; Defined at:
  7407 ;;		line 15 in file "C:\Program Files\Microchip\xc8\v2.41\pic\sources\c99\common\flneg.c"
  7408 ;; Parameters:    Size  Location     Type
  7409 ;;  f1              4   30[COMRAM] unsigned char 
  7410 ;; Auto vars:     Size  Location     Type
  7411 ;;		None
  7412 ;; Return value:  Size  Location     Type
  7413 ;;                  4   30[COMRAM] unsigned char 
  7414 ;; Registers used:
  7415 ;;		wreg, status,2, status,0
  7416 ;; Tracked objects:
  7417 ;;		On entry : 0/0
  7418 ;;		On exit  : 0/0
  7419 ;;		Unchanged: 0/0
  7420 ;; Data sizes:     COMRAM   BANK0   BANK1   BANK2   BANK3   BANK4   BANK5   BANK6   BANK7
  7421 ;;      Params:         4       0       0       0       0       0       0       0       0
  7422 ;;      Locals:         0       0       0       0       0       0       0       0       0
  7423 ;;      Temps:          0       0       0       0       0       0       0       0       0
  7424 ;;      Totals:         4       0       0       0       0       0       0       0       0
  7425 ;;Total ram usage:        4 bytes
  7426 ;; Hardware stack levels used: 1
  7427 ;; Hardware stack levels required when called: 4
  7428 ;; This function calls:
  7429 ;;		Nothing
  7430 ;; This function is called by:
  7431 ;;		_efgtoa
  7432 ;; This function uses a non-reentrant model
  7433 ;;
  7434                           
  7435                           	psect	text18
  7436   00473E                     __ptext18:
  7437                           	callstack 0
  7438   00473E                     ___flneg:
  7439                           	callstack 22
  7440   00473E  501F               	movf	___flneg@f1^0,w,c
  7441   004740  1020               	iorwf	(___flneg@f1+1)^0,w,c
  7442   004742  1021               	iorwf	(___flneg@f1+2)^0,w,c
  7443   004744  1022               	iorwf	(___flneg@f1+3)^0,w,c
  7444   004746  B4D8               	btfsc	status,2,c
  7445   004748  EFA8  F023         	goto	u4181
  7446   00474C  EFAA  F023         	goto	u4180
  7447   004750                     u4181:
  7448   004750  EFB2  F023         	goto	l4368
  7449   004754                     u4180:
  7450   004754  0E00               	movlw	0
  7451   004756  1A1F               	xorwf	___flneg@f1^0,f,c
  7452   004758  0E00               	movlw	0
  7453   00475A  1A20               	xorwf	(___flneg@f1+1)^0,f,c
  7454   00475C  0E00               	movlw	0
  7455   00475E  1A21               	xorwf	(___flneg@f1+2)^0,f,c
  7456   004760  0E80               	movlw	128
  7457   004762  1A22               	xorwf	(___flneg@f1+3)^0,f,c
  7458   004764                     l4368:
  7459   004764  C01F  F01F         	movff	___flneg@f1,?___flneg
  7460   004768  C020  F020         	movff	___flneg@f1+1,?___flneg+1
  7461   00476C  C021  F021         	movff	___flneg@f1+2,?___flneg+2
  7462   004770  C022  F022         	movff	___flneg@f1+3,?___flneg+3
  7463   004774  0012               	return		;funcret
  7464   004776                     __end_of___flneg:
  7465                           	callstack 0
  7466                           
  7467 ;; *************** function ___flmul *****************
  7468 ;; Defined at:
  7469 ;;		line 8 in file "C:\Program Files\Microchip\xc8\v2.41\pic\sources\c99\common\sprcmul.c"
  7470 ;; Parameters:    Size  Location     Type
  7471 ;;  b               4   10[BANK0 ] unsigned char 
  7472 ;;  a               4   14[BANK0 ] unsigned char 
  7473 ;; Auto vars:     Size  Location     Type
  7474 ;;  prod            4   29[BANK0 ] struct .
  7475 ;;  grs             4   24[BANK0 ] unsigned long 
  7476 ;;  temp            2   33[BANK0 ] struct .
  7477 ;;  bexp            1   28[BANK0 ] unsigned char 
  7478 ;;  aexp            1   23[BANK0 ] unsigned char 
  7479 ;;  sign            1   22[BANK0 ] unsigned char 
  7480 ;; Return value:  Size  Location     Type
  7481 ;;                  4   10[BANK0 ] unsigned char 
  7482 ;; Registers used:
  7483 ;;		wreg, status,2, status,0, prodl, prodh
  7484 ;; Tracked objects:
  7485 ;;		On entry : 0/0
  7486 ;;		On exit  : 0/0
  7487 ;;		Unchanged: 0/0
  7488 ;; Data sizes:     COMRAM   BANK0   BANK1   BANK2   BANK3   BANK4   BANK5   BANK6   BANK7
  7489 ;;      Params:         0       8       0       0       0       0       0       0       0
  7490 ;;      Locals:         0      13       0       0       0       0       0       0       0
  7491 ;;      Temps:          0       4       0       0       0       0       0       0       0
  7492 ;;      Totals:         0      25       0       0       0       0       0       0       0
  7493 ;;Total ram usage:       25 bytes
  7494 ;; Hardware stack levels used: 1
  7495 ;; Hardware stack levels required when called: 4
  7496 ;; This function calls:
  7497 ;;		Nothing
  7498 ;; This function is called by:
  7499 ;;		_main
  7500 ;;		_efgtoa
  7501 ;; This function uses a non-reentrant model
  7502 ;;
  7503                           
  7504                           	psect	text19
  7505   002436                     __ptext19:
  7506                           	callstack 0
  7507   002436                     ___flmul:
  7508                           	callstack 22
  7509   002436  0100               	movlb	0	; () banked
  7510   002438  516D               	movf	(___flmul@b+3)& (0+255),w,b
  7511   00243A  0B80               	andlw	128
  7512   00243C  6F76               	movwf	___flmul@sign& (0+255),b
  7513   00243E  516D               	movf	(___flmul@b+3)& (0+255),w,b
  7514   002440  256D               	addwf	(___flmul@b+3)& (0+255),w,b
  7515   002442  6F7C               	movwf	___flmul@bexp& (0+255),b
  7516   002444                     
  7517                           ; BSR set to: 0
  7518   002444  AF6C               	btfss	(___flmul@b+2)& (0+255),7,b
  7519   002446  EF27  F012         	goto	u6871
  7520   00244A  EF29  F012         	goto	u6870
  7521   00244E                     u6871:
  7522   00244E  EF2A  F012         	goto	l6242
  7523   002452                     u6870:
  7524   002452                     
  7525                           ; BSR set to: 0
  7526   002452  817C               	bsf	___flmul@bexp& (0+255),0,b
  7527   002454                     l6242:
  7528                           
  7529                           ; BSR set to: 0
  7530   002454  517C               	movf	___flmul@bexp& (0+255),w,b
  7531   002456  B4D8               	btfsc	status,2,c
  7532   002458  EF30  F012         	goto	u6881
  7533   00245C  EF32  F012         	goto	u6880
  7534   002460                     u6881:
  7535   002460  EF45  F012         	goto	l6250
  7536   002464                     u6880:
  7537   002464                     
  7538                           ; BSR set to: 0
  7539   002464  297C               	incf	___flmul@bexp& (0+255),w,b
  7540   002466  A4D8               	btfss	status,2,c
  7541   002468  EF38  F012         	goto	u6891
  7542   00246C  EF3A  F012         	goto	u6890
  7543   002470                     u6891:
  7544   002470  EF42  F012         	goto	l6248
  7545   002474                     u6890:
  7546   002474                     
  7547                           ; BSR set to: 0
  7548   002474  0E00               	movlw	0
  7549   002476  6F6A               	movwf	___flmul@b& (0+255),b
  7550   002478  0E00               	movlw	0
  7551   00247A  6F6B               	movwf	(___flmul@b+1)& (0+255),b
  7552   00247C  0E00               	movlw	0
  7553   00247E  6F6C               	movwf	(___flmul@b+2)& (0+255),b
  7554   002480  0E00               	movlw	0
  7555   002482  6F6D               	movwf	(___flmul@b+3)& (0+255),b
  7556   002484                     l6248:
  7557                           
  7558                           ; BSR set to: 0
  7559   002484  8F6C               	bsf	(___flmul@b+2)& (0+255),7,b
  7560   002486  EF4D  F012         	goto	l6252
  7561   00248A                     l6250:
  7562                           
  7563                           ; BSR set to: 0
  7564   00248A  0E00               	movlw	0
  7565   00248C  6F6A               	movwf	___flmul@b& (0+255),b
  7566   00248E  0E00               	movlw	0
  7567   002490  6F6B               	movwf	(___flmul@b+1)& (0+255),b
  7568   002492  0E00               	movlw	0
  7569   002494  6F6C               	movwf	(___flmul@b+2)& (0+255),b
  7570   002496  0E00               	movlw	0
  7571   002498  6F6D               	movwf	(___flmul@b+3)& (0+255),b
  7572   00249A                     l6252:
  7573                           
  7574                           ; BSR set to: 0
  7575   00249A  5171               	movf	(___flmul@a+3)& (0+255),w,b
  7576   00249C  0B80               	andlw	128
  7577   00249E  1B76               	xorwf	___flmul@sign& (0+255),f,b
  7578   0024A0                     
  7579                           ; BSR set to: 0
  7580   0024A0  5171               	movf	(___flmul@a+3)& (0+255),w,b
  7581   0024A2  2571               	addwf	(___flmul@a+3)& (0+255),w,b
  7582   0024A4  6F77               	movwf	___flmul@aexp& (0+255),b
  7583   0024A6                     
  7584                           ; BSR set to: 0
  7585   0024A6  AF70               	btfss	(___flmul@a+2)& (0+255),7,b
  7586   0024A8  EF58  F012         	goto	u6901
  7587   0024AC  EF5A  F012         	goto	u6900
  7588   0024B0                     u6901:
  7589   0024B0  EF5B  F012         	goto	l6260
  7590   0024B4                     u6900:
  7591   0024B4                     
  7592                           ; BSR set to: 0
  7593   0024B4  8177               	bsf	___flmul@aexp& (0+255),0,b
  7594   0024B6                     l6260:
  7595                           
  7596                           ; BSR set to: 0
  7597   0024B6  5177               	movf	___flmul@aexp& (0+255),w,b
  7598   0024B8  B4D8               	btfsc	status,2,c
  7599   0024BA  EF61  F012         	goto	u6911
  7600   0024BE  EF63  F012         	goto	u6910
  7601   0024C2                     u6911:
  7602   0024C2  EF76  F012         	goto	l6268
  7603   0024C6                     u6910:
  7604   0024C6                     
  7605                           ; BSR set to: 0
  7606   0024C6  2977               	incf	___flmul@aexp& (0+255),w,b
  7607   0024C8  A4D8               	btfss	status,2,c
  7608   0024CA  EF69  F012         	goto	u6921
  7609   0024CE  EF6B  F012         	goto	u6920
  7610   0024D2                     u6921:
  7611   0024D2  EF73  F012         	goto	l6266
  7612   0024D6                     u6920:
  7613   0024D6                     
  7614                           ; BSR set to: 0
  7615   0024D6  0E00               	movlw	0
  7616   0024D8  6F6E               	movwf	___flmul@a& (0+255),b
  7617   0024DA  0E00               	movlw	0
  7618   0024DC  6F6F               	movwf	(___flmul@a+1)& (0+255),b
  7619   0024DE  0E00               	movlw	0
  7620   0024E0  6F70               	movwf	(___flmul@a+2)& (0+255),b
  7621   0024E2  0E00               	movlw	0
  7622   0024E4  6F71               	movwf	(___flmul@a+3)& (0+255),b
  7623   0024E6                     l6266:
  7624                           
  7625                           ; BSR set to: 0
  7626   0024E6  8F70               	bsf	(___flmul@a+2)& (0+255),7,b
  7627   0024E8  EF7E  F012         	goto	l1210
  7628   0024EC                     l6268:
  7629                           
  7630                           ; BSR set to: 0
  7631   0024EC  0E00               	movlw	0
  7632   0024EE  6F6E               	movwf	___flmul@a& (0+255),b
  7633   0024F0  0E00               	movlw	0
  7634   0024F2  6F6F               	movwf	(___flmul@a+1)& (0+255),b
  7635   0024F4  0E00               	movlw	0
  7636   0024F6  6F70               	movwf	(___flmul@a+2)& (0+255),b
  7637   0024F8  0E00               	movlw	0
  7638   0024FA  6F71               	movwf	(___flmul@a+3)& (0+255),b
  7639   0024FC                     l1210:
  7640                           
  7641                           ; BSR set to: 0
  7642   0024FC  5177               	movf	___flmul@aexp& (0+255),w,b
  7643   0024FE  B4D8               	btfsc	status,2,c
  7644   002500  EF84  F012         	goto	u6931
  7645   002504  EF86  F012         	goto	u6930
  7646   002508                     u6931:
  7647   002508  EF8E  F012         	goto	l6272
  7648   00250C                     u6930:
  7649   00250C                     
  7650                           ; BSR set to: 0
  7651   00250C  517C               	movf	___flmul@bexp& (0+255),w,b
  7652   00250E  A4D8               	btfss	status,2,c
  7653   002510  EF8C  F012         	goto	u6941
  7654   002514  EF8E  F012         	goto	u6940
  7655   002518                     u6941:
  7656   002518  EF98  F012         	goto	l6276
  7657   00251C                     u6940:
  7658   00251C                     l6272:
  7659                           
  7660                           ; BSR set to: 0
  7661   00251C  0E00               	movlw	0
  7662   00251E  6F6A               	movwf	?___flmul& (0+255),b
  7663   002520  0E00               	movlw	0
  7664   002522  6F6B               	movwf	(?___flmul+1)& (0+255),b
  7665   002524  0E00               	movlw	0
  7666   002526  6F6C               	movwf	(?___flmul+2)& (0+255),b
  7667   002528  0E00               	movlw	0
  7668   00252A  6F6D               	movwf	(?___flmul+3)& (0+255),b
  7669   00252C  EF30  F014         	goto	l1214
  7670   002530                     l6276:
  7671                           
  7672                           ; BSR set to: 0
  7673   002530  5170               	movf	(___flmul@a+2)& (0+255),w,b
  7674   002532  036A               	mulwf	___flmul@b& (0+255),b
  7675   002534  CFF3 F081          	movff	prodl,___flmul@temp
  7676   002538  CFF4 F082          	movff	prodh,___flmul@temp+1
  7677   00253C                     
  7678                           ; BSR set to: 0
  7679   00253C  5181               	movf	___flmul@temp& (0+255),w,b
  7680   00253E  6F78               	movwf	___flmul@grs& (0+255),b
  7681   002540  6B79               	clrf	(___flmul@grs+1)& (0+255),b
  7682   002542  6B7A               	clrf	(___flmul@grs+2)& (0+255),b
  7683   002544  6B7B               	clrf	(___flmul@grs+3)& (0+255),b
  7684   002546                     
  7685                           ; BSR set to: 0
  7686   002546  5182               	movf	(___flmul@temp+1)& (0+255),w,b
  7687   002548  6F7D               	movwf	___flmul@prod& (0+255),b
  7688   00254A  6B7E               	clrf	(___flmul@prod+1)& (0+255),b
  7689   00254C  6B7F               	clrf	(___flmul@prod+2)& (0+255),b
  7690   00254E  6B80               	clrf	(___flmul@prod+3)& (0+255),b
  7691   002550  516F               	movf	(___flmul@a+1)& (0+255),w,b
  7692   002552  036B               	mulwf	(___flmul@b+1)& (0+255),b
  7693   002554  CFF3 F081          	movff	prodl,___flmul@temp
  7694   002558  CFF4 F082          	movff	prodh,___flmul@temp+1
  7695   00255C                     
  7696                           ; BSR set to: 0
  7697   00255C  5181               	movf	___flmul@temp& (0+255),w,b
  7698   00255E  2778               	addwf	___flmul@grs& (0+255),f,b
  7699   002560  0E00               	movlw	0
  7700   002562  2379               	addwfc	(___flmul@grs+1)& (0+255),f,b
  7701   002564  237A               	addwfc	(___flmul@grs+2)& (0+255),f,b
  7702   002566  237B               	addwfc	(___flmul@grs+3)& (0+255),f,b
  7703   002568                     
  7704                           ; BSR set to: 0
  7705   002568  5182               	movf	(___flmul@temp+1)& (0+255),w,b
  7706   00256A  277D               	addwf	___flmul@prod& (0+255),f,b
  7707   00256C  0E00               	movlw	0
  7708   00256E  237E               	addwfc	(___flmul@prod+1)& (0+255),f,b
  7709   002570  237F               	addwfc	(___flmul@prod+2)& (0+255),f,b
  7710   002572  2380               	addwfc	(___flmul@prod+3)& (0+255),f,b
  7711   002574  516E               	movf	___flmul@a& (0+255),w,b
  7712   002576  036C               	mulwf	(___flmul@b+2)& (0+255),b
  7713   002578  CFF3 F081          	movff	prodl,___flmul@temp
  7714   00257C  CFF4 F082          	movff	prodh,___flmul@temp+1
  7715   002580                     
  7716                           ; BSR set to: 0
  7717   002580  5181               	movf	___flmul@temp& (0+255),w,b
  7718   002582  2778               	addwf	___flmul@grs& (0+255),f,b
  7719   002584  0E00               	movlw	0
  7720   002586  2379               	addwfc	(___flmul@grs+1)& (0+255),f,b
  7721   002588  237A               	addwfc	(___flmul@grs+2)& (0+255),f,b
  7722   00258A  237B               	addwfc	(___flmul@grs+3)& (0+255),f,b
  7723   00258C                     
  7724                           ; BSR set to: 0
  7725   00258C  5182               	movf	(___flmul@temp+1)& (0+255),w,b
  7726   00258E  277D               	addwf	___flmul@prod& (0+255),f,b
  7727   002590  0E00               	movlw	0
  7728   002592  237E               	addwfc	(___flmul@prod+1)& (0+255),f,b
  7729   002594  237F               	addwfc	(___flmul@prod+2)& (0+255),f,b
  7730   002596  2380               	addwfc	(___flmul@prod+3)& (0+255),f,b
  7731   002598                     
  7732                           ; BSR set to: 0
  7733   002598  C07A  F07B         	movff	___flmul@grs+2,___flmul@grs+3
  7734   00259C  C079  F07A         	movff	___flmul@grs+1,___flmul@grs+2
  7735   0025A0  C078  F079         	movff	___flmul@grs,___flmul@grs+1
  7736   0025A4  6B78               	clrf	___flmul@grs& (0+255),b
  7737   0025A6                     
  7738                           ; BSR set to: 0
  7739   0025A6  516E               	movf	___flmul@a& (0+255),w,b
  7740   0025A8  036B               	mulwf	(___flmul@b+1)& (0+255),b
  7741   0025AA  CFF3 F081          	movff	prodl,___flmul@temp
  7742   0025AE  CFF4 F082          	movff	prodh,___flmul@temp+1
  7743   0025B2                     
  7744                           ; BSR set to: 0
  7745   0025B2  5181               	movf	___flmul@temp& (0+255),w,b
  7746   0025B4  2778               	addwf	___flmul@grs& (0+255),f,b
  7747   0025B6  5182               	movf	(___flmul@temp+1)& (0+255),w,b
  7748   0025B8  2379               	addwfc	(___flmul@grs+1)& (0+255),f,b
  7749   0025BA  0E00               	movlw	0
  7750   0025BC  237A               	addwfc	(___flmul@grs+2)& (0+255),f,b
  7751   0025BE  0E00               	movlw	0
  7752   0025C0  237B               	addwfc	(___flmul@grs+3)& (0+255),f,b
  7753   0025C2                     
  7754                           ; BSR set to: 0
  7755   0025C2  516F               	movf	(___flmul@a+1)& (0+255),w,b
  7756   0025C4  036A               	mulwf	___flmul@b& (0+255),b
  7757   0025C6  CFF3 F081          	movff	prodl,___flmul@temp
  7758   0025CA  CFF4 F082          	movff	prodh,___flmul@temp+1
  7759   0025CE                     
  7760                           ; BSR set to: 0
  7761   0025CE  5181               	movf	___flmul@temp& (0+255),w,b
  7762   0025D0  2778               	addwf	___flmul@grs& (0+255),f,b
  7763   0025D2  5182               	movf	(___flmul@temp+1)& (0+255),w,b
  7764   0025D4  2379               	addwfc	(___flmul@grs+1)& (0+255),f,b
  7765   0025D6  0E00               	movlw	0
  7766   0025D8  237A               	addwfc	(___flmul@grs+2)& (0+255),f,b
  7767   0025DA  0E00               	movlw	0
  7768   0025DC  237B               	addwfc	(___flmul@grs+3)& (0+255),f,b
  7769   0025DE                     
  7770                           ; BSR set to: 0
  7771   0025DE  C07A  F07B         	movff	___flmul@grs+2,___flmul@grs+3
  7772   0025E2  C079  F07A         	movff	___flmul@grs+1,___flmul@grs+2
  7773   0025E6  C078  F079         	movff	___flmul@grs,___flmul@grs+1
  7774   0025EA  6B78               	clrf	___flmul@grs& (0+255),b
  7775   0025EC  516E               	movf	___flmul@a& (0+255),w,b
  7776   0025EE  036A               	mulwf	___flmul@b& (0+255),b
  7777   0025F0  CFF3 F081          	movff	prodl,___flmul@temp
  7778   0025F4  CFF4 F082          	movff	prodh,___flmul@temp+1
  7779   0025F8                     
  7780                           ; BSR set to: 0
  7781   0025F8  5181               	movf	___flmul@temp& (0+255),w,b
  7782   0025FA  2778               	addwf	___flmul@grs& (0+255),f,b
  7783   0025FC  5182               	movf	(___flmul@temp+1)& (0+255),w,b
  7784   0025FE  2379               	addwfc	(___flmul@grs+1)& (0+255),f,b
  7785   002600  0E00               	movlw	0
  7786   002602  237A               	addwfc	(___flmul@grs+2)& (0+255),f,b
  7787   002604  0E00               	movlw	0
  7788   002606  237B               	addwfc	(___flmul@grs+3)& (0+255),f,b
  7789   002608                     
  7790                           ; BSR set to: 0
  7791   002608  5170               	movf	(___flmul@a+2)& (0+255),w,b
  7792   00260A  036B               	mulwf	(___flmul@b+1)& (0+255),b
  7793   00260C  CFF3 F081          	movff	prodl,___flmul@temp
  7794   002610  CFF4 F082          	movff	prodh,___flmul@temp+1
  7795   002614  5181               	movf	___flmul@temp& (0+255),w,b
  7796   002616  277D               	addwf	___flmul@prod& (0+255),f,b
  7797   002618  5182               	movf	(___flmul@temp+1)& (0+255),w,b
  7798   00261A  237E               	addwfc	(___flmul@prod+1)& (0+255),f,b
  7799   00261C  0E00               	movlw	0
  7800   00261E  237F               	addwfc	(___flmul@prod+2)& (0+255),f,b
  7801   002620  0E00               	movlw	0
  7802   002622  2380               	addwfc	(___flmul@prod+3)& (0+255),f,b
  7803   002624                     
  7804                           ; BSR set to: 0
  7805   002624  516F               	movf	(___flmul@a+1)& (0+255),w,b
  7806   002626  036C               	mulwf	(___flmul@b+2)& (0+255),b
  7807   002628  CFF3 F081          	movff	prodl,___flmul@temp
  7808   00262C  CFF4 F082          	movff	prodh,___flmul@temp+1
  7809   002630                     
  7810                           ; BSR set to: 0
  7811   002630  5181               	movf	___flmul@temp& (0+255),w,b
  7812   002632  277D               	addwf	___flmul@prod& (0+255),f,b
  7813   002634  5182               	movf	(___flmul@temp+1)& (0+255),w,b
  7814   002636  237E               	addwfc	(___flmul@prod+1)& (0+255),f,b
  7815   002638  0E00               	movlw	0
  7816   00263A  237F               	addwfc	(___flmul@prod+2)& (0+255),f,b
  7817   00263C  0E00               	movlw	0
  7818   00263E  2380               	addwfc	(___flmul@prod+3)& (0+255),f,b
  7819   002640  5170               	movf	(___flmul@a+2)& (0+255),w,b
  7820   002642  036C               	mulwf	(___flmul@b+2)& (0+255),b
  7821   002644  CFF3 F081          	movff	prodl,___flmul@temp
  7822   002648  CFF4 F082          	movff	prodh,___flmul@temp+1
  7823   00264C                     
  7824                           ; BSR set to: 0
  7825   00264C  5181               	movf	___flmul@temp& (0+255),w,b
  7826   00264E  6F72               	movwf	??___flmul& (0+255),b
  7827   002650  5182               	movf	(___flmul@temp+1)& (0+255),w,b
  7828   002652  6F73               	movwf	(??___flmul+1)& (0+255),b
  7829   002654  6B74               	clrf	(??___flmul+2)& (0+255),b
  7830   002656  6B75               	clrf	(??___flmul+3)& (0+255),b
  7831   002658  C074  F075         	movff	??___flmul+2,??___flmul+3
  7832   00265C  C073  F074         	movff	??___flmul+1,??___flmul+2
  7833   002660  C072  F073         	movff	??___flmul,??___flmul+1
  7834   002664  6B72               	clrf	??___flmul& (0+255),b
  7835   002666  5172               	movf	??___flmul& (0+255),w,b
  7836   002668  277D               	addwf	___flmul@prod& (0+255),f,b
  7837   00266A  5173               	movf	(??___flmul+1)& (0+255),w,b
  7838   00266C  237E               	addwfc	(___flmul@prod+1)& (0+255),f,b
  7839   00266E  5174               	movf	(??___flmul+2)& (0+255),w,b
  7840   002670  237F               	addwfc	(___flmul@prod+2)& (0+255),f,b
  7841   002672  5175               	movf	(??___flmul+3)& (0+255),w,b
  7842   002674  2380               	addwfc	(___flmul@prod+3)& (0+255),f,b
  7843   002676                     
  7844                           ; BSR set to: 0
  7845   002676  C078  F072         	movff	___flmul@grs,??___flmul
  7846   00267A  C079  F073         	movff	___flmul@grs+1,??___flmul+1
  7847   00267E  C07A  F074         	movff	___flmul@grs+2,??___flmul+2
  7848   002682  C07B  F075         	movff	___flmul@grs+3,??___flmul+3
  7849   002686  0E19               	movlw	25
  7850   002688  EF4B  F013         	goto	u6950
  7851   00268C                     u6955:
  7852   00268C  90D8               	bcf	status,0,c
  7853   00268E  3375               	rrcf	(??___flmul+3)& (0+255),f,b
  7854   002690  3374               	rrcf	(??___flmul+2)& (0+255),f,b
  7855   002692  3373               	rrcf	(??___flmul+1)& (0+255),f,b
  7856   002694  3372               	rrcf	??___flmul& (0+255),f,b
  7857   002696                     u6950:
  7858   002696  2EE8               	decfsz	wreg,f,c
  7859   002698  EF46  F013         	goto	u6955
  7860   00269C  5172               	movf	??___flmul& (0+255),w,b
  7861   00269E  277D               	addwf	___flmul@prod& (0+255),f,b
  7862   0026A0  5173               	movf	(??___flmul+1)& (0+255),w,b
  7863   0026A2  237E               	addwfc	(___flmul@prod+1)& (0+255),f,b
  7864   0026A4  5174               	movf	(??___flmul+2)& (0+255),w,b
  7865   0026A6  237F               	addwfc	(___flmul@prod+2)& (0+255),f,b
  7866   0026A8  5175               	movf	(??___flmul+3)& (0+255),w,b
  7867   0026AA  2380               	addwfc	(___flmul@prod+3)& (0+255),f,b
  7868   0026AC                     
  7869                           ; BSR set to: 0
  7870   0026AC  C07A  F07B         	movff	___flmul@grs+2,___flmul@grs+3
  7871   0026B0  C079  F07A         	movff	___flmul@grs+1,___flmul@grs+2
  7872   0026B4  C078  F079         	movff	___flmul@grs,___flmul@grs+1
  7873   0026B8  6B78               	clrf	___flmul@grs& (0+255),b
  7874   0026BA                     
  7875                           ; BSR set to: 0
  7876   0026BA  5177               	movf	___flmul@aexp& (0+255),w,b
  7877   0026BC  C07C  F072         	movff	___flmul@bexp,??___flmul
  7878   0026C0  6B73               	clrf	(??___flmul+1)& (0+255),b
  7879   0026C2  2772               	addwf	??___flmul& (0+255),f,b
  7880   0026C4  0E00               	movlw	0
  7881   0026C6  2373               	addwfc	(??___flmul+1)& (0+255),f,b
  7882   0026C8  0E82               	movlw	130
  7883   0026CA  2572               	addwf	??___flmul& (0+255),w,b
  7884   0026CC  6F81               	movwf	___flmul@temp& (0+255),b
  7885   0026CE  0EFF               	movlw	255
  7886   0026D0  2173               	addwfc	(??___flmul+1)& (0+255),w,b
  7887   0026D2  6F82               	movwf	(___flmul@temp+1)& (0+255),b
  7888   0026D4  EF81  F013         	goto	l6324
  7889   0026D8                     l6318:
  7890                           
  7891                           ; BSR set to: 0
  7892   0026D8  90D8               	bcf	status,0,c
  7893   0026DA  377D               	rlcf	___flmul@prod& (0+255),f,b
  7894   0026DC  377E               	rlcf	(___flmul@prod+1)& (0+255),f,b
  7895   0026DE  377F               	rlcf	(___flmul@prod+2)& (0+255),f,b
  7896   0026E0  3780               	rlcf	(___flmul@prod+3)& (0+255),f,b
  7897   0026E2                     
  7898                           ; BSR set to: 0
  7899   0026E2  AF7B               	btfss	(___flmul@grs+3)& (0+255),7,b
  7900   0026E4  EF76  F013         	goto	u6961
  7901   0026E8  EF78  F013         	goto	u6960
  7902   0026EC                     u6961:
  7903   0026EC  EF79  F013         	goto	l1217
  7904   0026F0                     u6960:
  7905   0026F0                     
  7906                           ; BSR set to: 0
  7907   0026F0  817D               	bsf	___flmul@prod& (0+255),0,b
  7908   0026F2                     l1217:
  7909                           
  7910                           ; BSR set to: 0
  7911   0026F2  90D8               	bcf	status,0,c
  7912   0026F4  3778               	rlcf	___flmul@grs& (0+255),f,b
  7913   0026F6  3779               	rlcf	(___flmul@grs+1)& (0+255),f,b
  7914   0026F8  377A               	rlcf	(___flmul@grs+2)& (0+255),f,b
  7915   0026FA  377B               	rlcf	(___flmul@grs+3)& (0+255),f,b
  7916   0026FC  0781               	decf	___flmul@temp& (0+255),f,b
  7917   0026FE  A0D8               	btfss	status,0,c
  7918   002700  0782               	decf	(___flmul@temp+1)& (0+255),f,b
  7919   002702                     l6324:
  7920                           
  7921                           ; BSR set to: 0
  7922   002702  AF7F               	btfss	(___flmul@prod+2)& (0+255),7,b
  7923   002704  EF86  F013         	goto	u6971
  7924   002708  EF88  F013         	goto	u6970
  7925   00270C                     u6971:
  7926   00270C  EF6C  F013         	goto	l6318
  7927   002710                     u6970:
  7928   002710                     
  7929                           ; BSR set to: 0
  7930   002710  0E00               	movlw	0
  7931   002712  6F77               	movwf	___flmul@aexp& (0+255),b
  7932   002714                     
  7933                           ; BSR set to: 0
  7934   002714  AF7B               	btfss	(___flmul@grs+3)& (0+255),7,b
  7935   002716  EF8F  F013         	goto	u6981
  7936   00271A  EF91  F013         	goto	u6980
  7937   00271E                     u6981:
  7938   00271E  EFB5  F013         	goto	l1219
  7939   002722                     u6980:
  7940   002722                     
  7941                           ; BSR set to: 0
  7942   002722  0EFF               	movlw	255
  7943   002724  1578               	andwf	___flmul@grs& (0+255),w,b
  7944   002726  6F72               	movwf	??___flmul& (0+255),b
  7945   002728  0EFF               	movlw	255
  7946   00272A  1579               	andwf	(___flmul@grs+1)& (0+255),w,b
  7947   00272C  6F73               	movwf	(??___flmul+1)& (0+255),b
  7948   00272E  0EFF               	movlw	255
  7949   002730  157A               	andwf	(___flmul@grs+2)& (0+255),w,b
  7950   002732  6F74               	movwf	(??___flmul+2)& (0+255),b
  7951   002734  0E7F               	movlw	127
  7952   002736  157B               	andwf	(___flmul@grs+3)& (0+255),w,b
  7953   002738  6F75               	movwf	(??___flmul+3)& (0+255),b
  7954   00273A  5172               	movf	??___flmul& (0+255),w,b
  7955   00273C  1173               	iorwf	(??___flmul+1)& (0+255),w,b
  7956   00273E  1174               	iorwf	(??___flmul+2)& (0+255),w,b
  7957   002740  1175               	iorwf	(??___flmul+3)& (0+255),w,b
  7958   002742  B4D8               	btfsc	status,2,c
  7959   002744  EFA6  F013         	goto	u6991
  7960   002748  EFA8  F013         	goto	u6990
  7961   00274C                     u6991:
  7962   00274C  EFAC  F013         	goto	l1220
  7963   002750                     u6990:
  7964   002750                     l6332:
  7965                           
  7966                           ; BSR set to: 0
  7967   002750  0E01               	movlw	1
  7968   002752  6F77               	movwf	___flmul@aexp& (0+255),b
  7969   002754  EFB5  F013         	goto	l1219
  7970   002758                     l1220:
  7971                           
  7972                           ; BSR set to: 0
  7973   002758  A17D               	btfss	___flmul@prod& (0+255),0,b
  7974   00275A  EFB1  F013         	goto	u7001
  7975   00275E  EFB3  F013         	goto	u7000
  7976   002762                     u7001:
  7977   002762  EFB5  F013         	goto	l1219
  7978   002766                     u7000:
  7979   002766  EFA8  F013         	goto	l6332
  7980   00276A                     l1219:
  7981                           
  7982                           ; BSR set to: 0
  7983   00276A  5177               	movf	___flmul@aexp& (0+255),w,b
  7984   00276C  B4D8               	btfsc	status,2,c
  7985   00276E  EFBB  F013         	goto	u7011
  7986   002772  EFBD  F013         	goto	u7010
  7987   002776                     u7011:
  7988   002776  EFE1  F013         	goto	l6344
  7989   00277A                     u7010:
  7990   00277A                     
  7991                           ; BSR set to: 0
  7992   00277A  0E01               	movlw	1
  7993   00277C  277D               	addwf	___flmul@prod& (0+255),f,b
  7994   00277E  0E00               	movlw	0
  7995   002780  237E               	addwfc	(___flmul@prod+1)& (0+255),f,b
  7996   002782  237F               	addwfc	(___flmul@prod+2)& (0+255),f,b
  7997   002784  2380               	addwfc	(___flmul@prod+3)& (0+255),f,b
  7998   002786                     
  7999                           ; BSR set to: 0
  8000   002786  A180               	btfss	(___flmul@prod+3)& (0+255),0,b
  8001   002788  EFC8  F013         	goto	u7021
  8002   00278C  EFCA  F013         	goto	u7020
  8003   002790                     u7021:
  8004   002790  EFE1  F013         	goto	l6344
  8005   002794                     u7020:
  8006   002794                     
  8007                           ; BSR set to: 0
  8008   002794  C07D  F072         	movff	___flmul@prod,??___flmul
  8009   002798  C07E  F073         	movff	___flmul@prod+1,??___flmul+1
  8010   00279C  C07F  F074         	movff	___flmul@prod+2,??___flmul+2
  8011   0027A0  C080  F075         	movff	___flmul@prod+3,??___flmul+3
  8012   0027A4  3575               	rlcf	(??___flmul+3)& (0+255),w,b
  8013   0027A6  3375               	rrcf	(??___flmul+3)& (0+255),f,b
  8014   0027A8  3374               	rrcf	(??___flmul+2)& (0+255),f,b
  8015   0027AA  3373               	rrcf	(??___flmul+1)& (0+255),f,b
  8016   0027AC  3372               	rrcf	??___flmul& (0+255),f,b
  8017   0027AE  C072  F07D         	movff	??___flmul,___flmul@prod
  8018   0027B2  C073  F07E         	movff	??___flmul+1,___flmul@prod+1
  8019   0027B6  C074  F07F         	movff	??___flmul+2,___flmul@prod+2
  8020   0027BA  C075  F080         	movff	??___flmul+3,___flmul@prod+3
  8021   0027BE                     
  8022                           ; BSR set to: 0
  8023   0027BE  4B81               	infsnz	___flmul@temp& (0+255),f,b
  8024   0027C0  2B82               	incf	(___flmul@temp+1)& (0+255),f,b
  8025   0027C2                     l6344:
  8026                           
  8027                           ; BSR set to: 0
  8028   0027C2  BF82               	btfsc	(___flmul@temp+1)& (0+255),7,b
  8029   0027C4  EFEC  F013         	goto	u7031
  8030   0027C8  5182               	movf	(___flmul@temp+1)& (0+255),w,b
  8031   0027CA  E108               	bnz	u7030
  8032   0027CC  2981               	incf	___flmul@temp& (0+255),w,b
  8033   0027CE  A0D8               	btfss	status,0,c
  8034   0027D0  EFEC  F013         	goto	u7031
  8035   0027D4  EFEE  F013         	goto	u7030
  8036   0027D8                     u7031:
  8037   0027D8  EFF8  F013         	goto	l6348
  8038   0027DC                     u7030:
  8039   0027DC                     
  8040                           ; BSR set to: 0
  8041   0027DC  0E00               	movlw	0
  8042   0027DE  6F7D               	movwf	___flmul@prod& (0+255),b
  8043   0027E0  0E00               	movlw	0
  8044   0027E2  6F7E               	movwf	(___flmul@prod+1)& (0+255),b
  8045   0027E4  0E80               	movlw	128
  8046   0027E6  6F7F               	movwf	(___flmul@prod+2)& (0+255),b
  8047   0027E8  0E7F               	movlw	127
  8048   0027EA  6F80               	movwf	(___flmul@prod+3)& (0+255),b
  8049   0027EC  EF26  F014         	goto	l6360
  8050   0027F0                     l6348:
  8051                           
  8052                           ; BSR set to: 0
  8053   0027F0  BF82               	btfsc	(___flmul@temp+1)& (0+255),7,b
  8054   0027F2  EF05  F014         	goto	u7040
  8055   0027F6  5182               	movf	(___flmul@temp+1)& (0+255),w,b
  8056   0027F8  E106               	bnz	u7041
  8057   0027FA  0581               	decf	___flmul@temp& (0+255),w,b
  8058   0027FC  B0D8               	btfsc	status,0,c
  8059   0027FE  EF03  F014         	goto	u7041
  8060   002802  EF05  F014         	goto	u7040
  8061   002806                     u7041:
  8062   002806  EF11  F014         	goto	l1227
  8063   00280A                     u7040:
  8064   00280A                     
  8065                           ; BSR set to: 0
  8066   00280A  0E00               	movlw	0
  8067   00280C  6F7D               	movwf	___flmul@prod& (0+255),b
  8068   00280E  0E00               	movlw	0
  8069   002810  6F7E               	movwf	(___flmul@prod+1)& (0+255),b
  8070   002812  0E00               	movlw	0
  8071   002814  6F7F               	movwf	(___flmul@prod+2)& (0+255),b
  8072   002816  0E00               	movlw	0
  8073   002818  6F80               	movwf	(___flmul@prod+3)& (0+255),b
  8074   00281A  0E00               	movlw	0
  8075   00281C  6F76               	movwf	___flmul@sign& (0+255),b
  8076   00281E  EF26  F014         	goto	l6360
  8077   002822                     l1227:
  8078                           
  8079                           ; BSR set to: 0
  8080   002822  C081  F07C         	movff	___flmul@temp,___flmul@bexp
  8081   002826                     
  8082                           ; BSR set to: 0
  8083   002826  0EFF               	movlw	255
  8084   002828  177D               	andwf	___flmul@prod& (0+255),f,b
  8085   00282A  0EFF               	movlw	255
  8086   00282C  177E               	andwf	(___flmul@prod+1)& (0+255),f,b
  8087   00282E  0E7F               	movlw	127
  8088   002830  177F               	andwf	(___flmul@prod+2)& (0+255),f,b
  8089   002832  0E00               	movlw	0
  8090   002834  1780               	andwf	(___flmul@prod+3)& (0+255),f,b
  8091   002836                     
  8092                           ; BSR set to: 0
  8093   002836  A17C               	btfss	___flmul@bexp& (0+255),0,b
  8094   002838  EF20  F014         	goto	u7051
  8095   00283C  EF22  F014         	goto	u7050
  8096   002840                     u7051:
  8097   002840  EF23  F014         	goto	l6358
  8098   002844                     u7050:
  8099   002844                     
  8100                           ; BSR set to: 0
  8101   002844  8F7F               	bsf	(___flmul@prod+2)& (0+255),7,b
  8102   002846                     l6358:
  8103                           
  8104                           ; BSR set to: 0
  8105   002846  90D8               	bcf	status,0,c
  8106   002848  317C               	rrcf	___flmul@bexp& (0+255),w,b
  8107   00284A  6F80               	movwf	(___flmul@prod+3)& (0+255),b
  8108   00284C                     l6360:
  8109                           
  8110                           ; BSR set to: 0
  8111   00284C  5176               	movf	___flmul@sign& (0+255),w,b
  8112   00284E  1380               	iorwf	(___flmul@prod+3)& (0+255),f,b
  8113   002850                     
  8114                           ; BSR set to: 0
  8115   002850  C07D  F06A         	movff	___flmul@prod,?___flmul
  8116   002854  C07E  F06B         	movff	___flmul@prod+1,?___flmul+1
  8117   002858  C07F  F06C         	movff	___flmul@prod+2,?___flmul+2
  8118   00285C  C080  F06D         	movff	___flmul@prod+3,?___flmul+3
  8119   002860                     l1214:
  8120                           
  8121                           ; BSR set to: 0
  8122   002860  0012               	return		;funcret
  8123   002862                     __end_of___flmul:
  8124                           	callstack 0
  8125                           
  8126 ;; *************** function ___flge *****************
  8127 ;; Defined at:
  8128 ;;		line 4 in file "C:\Program Files\Microchip\xc8\v2.41\pic\sources\c99\common\flge.c"
  8129 ;; Parameters:    Size  Location     Type
  8130 ;;  ff1             4   35[BANK0 ] unsigned char 
  8131 ;;  ff2             4   39[BANK0 ] unsigned char 
  8132 ;; Auto vars:     Size  Location     Type
  8133 ;;		None
  8134 ;; Return value:  Size  Location     Type
  8135 ;;		None               void
  8136 ;; Registers used:
  8137 ;;		wreg, status,2, status,0
  8138 ;; Tracked objects:
  8139 ;;		On entry : 0/0
  8140 ;;		On exit  : 0/0
  8141 ;;		Unchanged: 0/0
  8142 ;; Data sizes:     COMRAM   BANK0   BANK1   BANK2   BANK3   BANK4   BANK5   BANK6   BANK7
  8143 ;;      Params:         0       8       0       0       0       0       0       0       0
  8144 ;;      Locals:         0       0       0       0       0       0       0       0       0
  8145 ;;      Temps:          0       4       0       0       0       0       0       0       0
  8146 ;;      Totals:         0      12       0       0       0       0       0       0       0
  8147 ;;Total ram usage:       12 bytes
  8148 ;; Hardware stack levels used: 1
  8149 ;; Hardware stack levels required when called: 4
  8150 ;; This function calls:
  8151 ;;		Nothing
  8152 ;; This function is called by:
  8153 ;;		_efgtoa
  8154 ;; This function uses a non-reentrant model
  8155 ;;
  8156                           
  8157                           	psect	text20
  8158   003800                     __ptext20:
  8159                           	callstack 0
  8160   003800                     ___flge:
  8161                           	callstack 22
  8162   003800  0E00               	movlw	0
  8163   003802  0100               	movlb	0	; () banked
  8164   003804  1583               	andwf	___flge@ff1& (0+255),w,b
  8165   003806  6F8B               	movwf	??___flge& (0+255),b
  8166   003808  0E00               	movlw	0
  8167   00380A  1584               	andwf	(___flge@ff1+1)& (0+255),w,b
  8168   00380C  6F8C               	movwf	(??___flge+1)& (0+255),b
  8169   00380E  0E80               	movlw	128
  8170   003810  1585               	andwf	(___flge@ff1+2)& (0+255),w,b
  8171   003812  6F8D               	movwf	(??___flge+2)& (0+255),b
  8172   003814  0E7F               	movlw	127
  8173   003816  1586               	andwf	(___flge@ff1+3)& (0+255),w,b
  8174   003818  6F8E               	movwf	(??___flge+3)& (0+255),b
  8175   00381A  518B               	movf	??___flge& (0+255),w,b
  8176   00381C  118C               	iorwf	(??___flge+1)& (0+255),w,b
  8177   00381E  118D               	iorwf	(??___flge+2)& (0+255),w,b
  8178   003820  118E               	iorwf	(??___flge+3)& (0+255),w,b
  8179   003822  A4D8               	btfss	status,2,c
  8180   003824  EF16  F01C         	goto	u7211
  8181   003828  EF18  F01C         	goto	u7210
  8182   00382C                     u7211:
  8183   00382C  EF20  F01C         	goto	l6472
  8184   003830                     u7210:
  8185   003830                     
  8186                           ; BSR set to: 0
  8187   003830  0E00               	movlw	0
  8188   003832  6F83               	movwf	___flge@ff1& (0+255),b
  8189   003834  0E00               	movlw	0
  8190   003836  6F84               	movwf	(___flge@ff1+1)& (0+255),b
  8191   003838  0E00               	movlw	0
  8192   00383A  6F85               	movwf	(___flge@ff1+2)& (0+255),b
  8193   00383C  0E00               	movlw	0
  8194   00383E  6F86               	movwf	(___flge@ff1+3)& (0+255),b
  8195   003840                     l6472:
  8196                           
  8197                           ; BSR set to: 0
  8198   003840  0E00               	movlw	0
  8199   003842  1587               	andwf	___flge@ff2& (0+255),w,b
  8200   003844  6F8B               	movwf	??___flge& (0+255),b
  8201   003846  0E00               	movlw	0
  8202   003848  1588               	andwf	(___flge@ff2+1)& (0+255),w,b
  8203   00384A  6F8C               	movwf	(??___flge+1)& (0+255),b
  8204   00384C  0E80               	movlw	128
  8205   00384E  1589               	andwf	(___flge@ff2+2)& (0+255),w,b
  8206   003850  6F8D               	movwf	(??___flge+2)& (0+255),b
  8207   003852  0E7F               	movlw	127
  8208   003854  158A               	andwf	(___flge@ff2+3)& (0+255),w,b
  8209   003856  6F8E               	movwf	(??___flge+3)& (0+255),b
  8210   003858  518B               	movf	??___flge& (0+255),w,b
  8211   00385A  118C               	iorwf	(??___flge+1)& (0+255),w,b
  8212   00385C  118D               	iorwf	(??___flge+2)& (0+255),w,b
  8213   00385E  118E               	iorwf	(??___flge+3)& (0+255),w,b
  8214   003860  A4D8               	btfss	status,2,c
  8215   003862  EF35  F01C         	goto	u7221
  8216   003866  EF37  F01C         	goto	u7220
  8217   00386A                     u7221:
  8218   00386A  EF3F  F01C         	goto	l6476
  8219   00386E                     u7220:
  8220   00386E                     
  8221                           ; BSR set to: 0
  8222   00386E  0E00               	movlw	0
  8223   003870  6F87               	movwf	___flge@ff2& (0+255),b
  8224   003872  0E00               	movlw	0
  8225   003874  6F88               	movwf	(___flge@ff2+1)& (0+255),b
  8226   003876  0E00               	movlw	0
  8227   003878  6F89               	movwf	(___flge@ff2+2)& (0+255),b
  8228   00387A  0E00               	movlw	0
  8229   00387C  6F8A               	movwf	(___flge@ff2+3)& (0+255),b
  8230   00387E                     l6476:
  8231                           
  8232                           ; BSR set to: 0
  8233   00387E  AF86               	btfss	(___flge@ff1+3)& (0+255),7,b
  8234   003880  EF44  F01C         	goto	u7231
  8235   003884  EF46  F01C         	goto	u7230
  8236   003888                     u7231:
  8237   003888  EF4F  F01C         	goto	l6480
  8238   00388C                     u7230:
  8239   00388C                     
  8240                           ; BSR set to: 0
  8241   00388C  6D83               	negf	___flge@ff1& (0+255),b
  8242   00388E  1F84               	comf	(___flge@ff1+1)& (0+255),f,b
  8243   003890  B0D8               	btfsc	status,0,c
  8244   003892  2B84               	incf	(___flge@ff1+1)& (0+255),f,b
  8245   003894  1F85               	comf	(___flge@ff1+2)& (0+255),f,b
  8246   003896  B0D8               	btfsc	status,0,c
  8247   003898  2B85               	incf	(___flge@ff1+2)& (0+255),f,b
  8248   00389A  0E80               	movlw	128
  8249   00389C  5786               	subfwb	(___flge@ff1+3)& (0+255),f,b
  8250   00389E                     l6480:
  8251                           
  8252                           ; BSR set to: 0
  8253   00389E  AF8A               	btfss	(___flge@ff2+3)& (0+255),7,b
  8254   0038A0  EF54  F01C         	goto	u7241
  8255   0038A4  EF56  F01C         	goto	u7240
  8256   0038A8                     u7241:
  8257   0038A8  EF5F  F01C         	goto	l861
  8258   0038AC                     u7240:
  8259   0038AC                     
  8260                           ; BSR set to: 0
  8261   0038AC  6D87               	negf	___flge@ff2& (0+255),b
  8262   0038AE  1F88               	comf	(___flge@ff2+1)& (0+255),f,b
  8263   0038B0  B0D8               	btfsc	status,0,c
  8264   0038B2  2B88               	incf	(___flge@ff2+1)& (0+255),f,b
  8265   0038B4  1F89               	comf	(___flge@ff2+2)& (0+255),f,b
  8266   0038B6  B0D8               	btfsc	status,0,c
  8267   0038B8  2B89               	incf	(___flge@ff2+2)& (0+255),f,b
  8268   0038BA  0E80               	movlw	128
  8269   0038BC  578A               	subfwb	(___flge@ff2+3)& (0+255),f,b
  8270   0038BE                     l861:
  8271                           
  8272                           ; BSR set to: 0
  8273   0038BE  0E00               	movlw	0
  8274   0038C0  1B83               	xorwf	___flge@ff1& (0+255),f,b
  8275   0038C2  0E00               	movlw	0
  8276   0038C4  1B84               	xorwf	(___flge@ff1+1)& (0+255),f,b
  8277   0038C6  0E00               	movlw	0
  8278   0038C8  1B85               	xorwf	(___flge@ff1+2)& (0+255),f,b
  8279   0038CA  0E80               	movlw	128
  8280   0038CC  1B86               	xorwf	(___flge@ff1+3)& (0+255),f,b
  8281   0038CE  0E00               	movlw	0
  8282   0038D0  1B87               	xorwf	___flge@ff2& (0+255),f,b
  8283   0038D2  0E00               	movlw	0
  8284   0038D4  1B88               	xorwf	(___flge@ff2+1)& (0+255),f,b
  8285   0038D6  0E00               	movlw	0
  8286   0038D8  1B89               	xorwf	(___flge@ff2+2)& (0+255),f,b
  8287   0038DA  0E80               	movlw	128
  8288   0038DC  1B8A               	xorwf	(___flge@ff2+3)& (0+255),f,b
  8289   0038DE  5187               	movf	___flge@ff2& (0+255),w,b
  8290   0038E0  5D83               	subwf	___flge@ff1& (0+255),w,b
  8291   0038E2  5188               	movf	(___flge@ff2+1)& (0+255),w,b
  8292   0038E4  5984               	subwfb	(___flge@ff1+1)& (0+255),w,b
  8293   0038E6  5189               	movf	(___flge@ff2+2)& (0+255),w,b
  8294   0038E8  5985               	subwfb	(___flge@ff1+2)& (0+255),w,b
  8295   0038EA  518A               	movf	(___flge@ff2+3)& (0+255),w,b
  8296   0038EC  5986               	subwfb	(___flge@ff1+3)& (0+255),w,b
  8297   0038EE  B0D8               	btfsc	status,0,c
  8298   0038F0  EF7C  F01C         	goto	u7251
  8299   0038F4  EF7E  F01C         	goto	u7250
  8300   0038F8                     u7251:
  8301   0038F8  EF81  F01C         	goto	l6486
  8302   0038FC                     u7250:
  8303   0038FC                     
  8304                           ; BSR set to: 0
  8305   0038FC  90D8               	bcf	status,0,c
  8306   0038FE  EF82  F01C         	goto	l866
  8307   003902                     l6486:
  8308                           
  8309                           ; BSR set to: 0
  8310   003902  80D8               	bsf	status,0,c
  8311   003904                     l866:
  8312                           
  8313                           ; BSR set to: 0
  8314   003904  0012               	return		;funcret
  8315   003906                     __end_of___flge:
  8316                           	callstack 0
  8317                           
  8318 ;; *************** function ___fleq *****************
  8319 ;; Defined at:
  8320 ;;		line 4 in file "C:\Program Files\Microchip\xc8\v2.41\pic\sources\c99\common\fleq.c"
  8321 ;; Parameters:    Size  Location     Type
  8322 ;;  ff1             4    0[BANK0 ] unsigned char 
  8323 ;;  ff2             4    4[BANK0 ] unsigned char 
  8324 ;; Auto vars:     Size  Location     Type
  8325 ;;		None
  8326 ;; Return value:  Size  Location     Type
  8327 ;;		None               void
  8328 ;; Registers used:
  8329 ;;		wreg, status,2, status,0
  8330 ;; Tracked objects:
  8331 ;;		On entry : 0/0
  8332 ;;		On exit  : 0/0
  8333 ;;		Unchanged: 0/0
  8334 ;; Data sizes:     COMRAM   BANK0   BANK1   BANK2   BANK3   BANK4   BANK5   BANK6   BANK7
  8335 ;;      Params:         0       8       0       0       0       0       0       0       0
  8336 ;;      Locals:         0       0       0       0       0       0       0       0       0
  8337 ;;      Temps:          4       0       0       0       0       0       0       0       0
  8338 ;;      Totals:         4       8       0       0       0       0       0       0       0
  8339 ;;Total ram usage:       12 bytes
  8340 ;; Hardware stack levels used: 1
  8341 ;; Hardware stack levels required when called: 4
  8342 ;; This function calls:
  8343 ;;		Nothing
  8344 ;; This function is called by:
  8345 ;;		_efgtoa
  8346 ;; This function uses a non-reentrant model
  8347 ;;
  8348                           
  8349                           	psect	text21
  8350   00405E                     __ptext21:
  8351                           	callstack 0
  8352   00405E                     ___fleq:
  8353                           	callstack 22
  8354   00405E  0E00               	movlw	0
  8355   004060  0100               	movlb	0	; () banked
  8356   004062  1560               	andwf	___fleq@ff1& (0+255),w,b
  8357   004064  6E1F               	movwf	??___fleq^0,c
  8358   004066  0E00               	movlw	0
  8359   004068  1561               	andwf	(___fleq@ff1+1)& (0+255),w,b
  8360   00406A  6E20               	movwf	(??___fleq+1)^0,c
  8361   00406C  0E80               	movlw	128
  8362   00406E  1562               	andwf	(___fleq@ff1+2)& (0+255),w,b
  8363   004070  6E21               	movwf	(??___fleq+2)^0,c
  8364   004072  0E7F               	movlw	127
  8365   004074  1563               	andwf	(___fleq@ff1+3)& (0+255),w,b
  8366   004076  6E22               	movwf	(??___fleq+3)^0,c
  8367   004078  501F               	movf	??___fleq^0,w,c
  8368   00407A  1020               	iorwf	(??___fleq+1)^0,w,c
  8369   00407C  1021               	iorwf	(??___fleq+2)^0,w,c
  8370   00407E  1022               	iorwf	(??___fleq+3)^0,w,c
  8371   004080  A4D8               	btfss	status,2,c
  8372   004082  EF45  F020         	goto	u7181
  8373   004086  EF47  F020         	goto	u7180
  8374   00408A                     u7181:
  8375   00408A  EF4F  F020         	goto	l6456
  8376   00408E                     u7180:
  8377   00408E                     
  8378                           ; BSR set to: 0
  8379   00408E  0E00               	movlw	0
  8380   004090  6F60               	movwf	___fleq@ff1& (0+255),b
  8381   004092  0E00               	movlw	0
  8382   004094  6F61               	movwf	(___fleq@ff1+1)& (0+255),b
  8383   004096  0E00               	movlw	0
  8384   004098  6F62               	movwf	(___fleq@ff1+2)& (0+255),b
  8385   00409A  0E00               	movlw	0
  8386   00409C  6F63               	movwf	(___fleq@ff1+3)& (0+255),b
  8387   00409E                     l6456:
  8388                           
  8389                           ; BSR set to: 0
  8390   00409E  0E00               	movlw	0
  8391   0040A0  1564               	andwf	___fleq@ff2& (0+255),w,b
  8392   0040A2  6E1F               	movwf	??___fleq^0,c
  8393   0040A4  0E00               	movlw	0
  8394   0040A6  1565               	andwf	(___fleq@ff2+1)& (0+255),w,b
  8395   0040A8  6E20               	movwf	(??___fleq+1)^0,c
  8396   0040AA  0E80               	movlw	128
  8397   0040AC  1566               	andwf	(___fleq@ff2+2)& (0+255),w,b
  8398   0040AE  6E21               	movwf	(??___fleq+2)^0,c
  8399   0040B0  0E7F               	movlw	127
  8400   0040B2  1567               	andwf	(___fleq@ff2+3)& (0+255),w,b
  8401   0040B4  6E22               	movwf	(??___fleq+3)^0,c
  8402   0040B6  501F               	movf	??___fleq^0,w,c
  8403   0040B8  1020               	iorwf	(??___fleq+1)^0,w,c
  8404   0040BA  1021               	iorwf	(??___fleq+2)^0,w,c
  8405   0040BC  1022               	iorwf	(??___fleq+3)^0,w,c
  8406   0040BE  A4D8               	btfss	status,2,c
  8407   0040C0  EF64  F020         	goto	u7191
  8408   0040C4  EF66  F020         	goto	u7190
  8409   0040C8                     u7191:
  8410   0040C8  EF6E  F020         	goto	l6460
  8411   0040CC                     u7190:
  8412   0040CC                     
  8413                           ; BSR set to: 0
  8414   0040CC  0E00               	movlw	0
  8415   0040CE  6F64               	movwf	___fleq@ff2& (0+255),b
  8416   0040D0  0E00               	movlw	0
  8417   0040D2  6F65               	movwf	(___fleq@ff2+1)& (0+255),b
  8418   0040D4  0E00               	movlw	0
  8419   0040D6  6F66               	movwf	(___fleq@ff2+2)& (0+255),b
  8420   0040D8  0E00               	movlw	0
  8421   0040DA  6F67               	movwf	(___fleq@ff2+3)& (0+255),b
  8422   0040DC                     l6460:
  8423                           
  8424                           ; BSR set to: 0
  8425   0040DC  5164               	movf	___fleq@ff2& (0+255),w,b
  8426   0040DE  1960               	xorwf	___fleq@ff1& (0+255),w,b
  8427   0040E0  E10F               	bnz	u7200
  8428   0040E2  5165               	movf	(___fleq@ff2+1)& (0+255),w,b
  8429   0040E4  1961               	xorwf	(___fleq@ff1+1)& (0+255),w,b
  8430   0040E6  E10C               	bnz	u7200
  8431   0040E8  5166               	movf	(___fleq@ff2+2)& (0+255),w,b
  8432   0040EA  1962               	xorwf	(___fleq@ff1+2)& (0+255),w,b
  8433   0040EC  E109               	bnz	u7200
  8434   0040EE  5167               	movf	(___fleq@ff2+3)& (0+255),w,b
  8435   0040F0  1963               	xorwf	(___fleq@ff1+3)& (0+255),w,b
  8436   0040F2  B4D8               	btfsc	status,2,c
  8437   0040F4  EF7E  F020         	goto	u7201
  8438   0040F8  EF80  F020         	goto	u7200
  8439   0040FC                     u7201:
  8440   0040FC  EF83  F020         	goto	l6464
  8441   004100                     u7200:
  8442   004100                     
  8443                           ; BSR set to: 0
  8444   004100  90D8               	bcf	status,0,c
  8445   004102  EF84  F020         	goto	l855
  8446   004106                     l6464:
  8447                           
  8448                           ; BSR set to: 0
  8449   004106  80D8               	bsf	status,0,c
  8450   004108                     l855:
  8451                           
  8452                           ; BSR set to: 0
  8453   004108  0012               	return		;funcret
  8454   00410A                     __end_of___fleq:
  8455                           	callstack 0
  8456                           
  8457 ;; *************** function ___fldiv *****************
  8458 ;; Defined at:
  8459 ;;		line 11 in file "C:\Program Files\Microchip\xc8\v2.41\pic\sources\c99\common\sprcdiv.c"
  8460 ;; Parameters:    Size  Location     Type
  8461 ;;  b               4   35[BANK0 ] unsigned char 
  8462 ;;  a               4   39[BANK0 ] unsigned char 
  8463 ;; Auto vars:     Size  Location     Type
  8464 ;;  grs             4   54[BANK0 ] unsigned long 
  8465 ;;  rem             4   47[BANK0 ] unsigned long 
  8466 ;;  new_exp         2   52[BANK0 ] short 
  8467 ;;  aexp            1   59[BANK0 ] unsigned char 
  8468 ;;  bexp            1   58[BANK0 ] unsigned char 
  8469 ;;  sign            1   51[BANK0 ] unsigned char 
  8470 ;; Return value:  Size  Location     Type
  8471 ;;                  4   35[BANK0 ] unsigned char 
  8472 ;; Registers used:
  8473 ;;		wreg, status,2, status,0
  8474 ;; Tracked objects:
  8475 ;;		On entry : 0/0
  8476 ;;		On exit  : 0/0
  8477 ;;		Unchanged: 0/0
  8478 ;; Data sizes:     COMRAM   BANK0   BANK1   BANK2   BANK3   BANK4   BANK5   BANK6   BANK7
  8479 ;;      Params:         0       8       0       0       0       0       0       0       0
  8480 ;;      Locals:         0      13       0       0       0       0       0       0       0
  8481 ;;      Temps:          0       4       0       0       0       0       0       0       0
  8482 ;;      Totals:         0      25       0       0       0       0       0       0       0
  8483 ;;Total ram usage:       25 bytes
  8484 ;; Hardware stack levels used: 1
  8485 ;; Hardware stack levels required when called: 4
  8486 ;; This function calls:
  8487 ;;		Nothing
  8488 ;; This function is called by:
  8489 ;;		_main
  8490 ;;		_efgtoa
  8491 ;; This function uses a non-reentrant model
  8492 ;;
  8493                           
  8494                           	psect	text22
  8495   002C8C                     __ptext22:
  8496                           	callstack 0
  8497   002C8C                     ___fldiv:
  8498                           	callstack 22
  8499   002C8C  0100               	movlb	0	; () banked
  8500   002C8E  5186               	movf	(___fldiv@b+3)& (0+255),w,b
  8501   002C90  0B80               	andlw	128
  8502   002C92  6F93               	movwf	___fldiv@sign& (0+255),b
  8503   002C94  5186               	movf	(___fldiv@b+3)& (0+255),w,b
  8504   002C96  2586               	addwf	(___fldiv@b+3)& (0+255),w,b
  8505   002C98  6F9A               	movwf	___fldiv@bexp& (0+255),b
  8506   002C9A                     
  8507                           ; BSR set to: 0
  8508   002C9A  AF85               	btfss	(___fldiv@b+2)& (0+255),7,b
  8509   002C9C  EF52  F016         	goto	u6641
  8510   002CA0  EF54  F016         	goto	u6640
  8511   002CA4                     u6641:
  8512   002CA4  EF55  F016         	goto	l6104
  8513   002CA8                     u6640:
  8514   002CA8                     
  8515                           ; BSR set to: 0
  8516   002CA8  819A               	bsf	___fldiv@bexp& (0+255),0,b
  8517   002CAA                     l6104:
  8518                           
  8519                           ; BSR set to: 0
  8520   002CAA  519A               	movf	___fldiv@bexp& (0+255),w,b
  8521   002CAC  B4D8               	btfsc	status,2,c
  8522   002CAE  EF5B  F016         	goto	u6651
  8523   002CB2  EF5D  F016         	goto	u6650
  8524   002CB6                     u6651:
  8525   002CB6  EF72  F016         	goto	l6114
  8526   002CBA                     u6650:
  8527   002CBA                     
  8528                           ; BSR set to: 0
  8529   002CBA  299A               	incf	___fldiv@bexp& (0+255),w,b
  8530   002CBC  A4D8               	btfss	status,2,c
  8531   002CBE  EF63  F016         	goto	u6661
  8532   002CC2  EF65  F016         	goto	u6660
  8533   002CC6                     u6661:
  8534   002CC6  EF6D  F016         	goto	l6110
  8535   002CCA                     u6660:
  8536   002CCA                     
  8537                           ; BSR set to: 0
  8538   002CCA  0E00               	movlw	0
  8539   002CCC  6F83               	movwf	___fldiv@b& (0+255),b
  8540   002CCE  0E00               	movlw	0
  8541   002CD0  6F84               	movwf	(___fldiv@b+1)& (0+255),b
  8542   002CD2  0E00               	movlw	0
  8543   002CD4  6F85               	movwf	(___fldiv@b+2)& (0+255),b
  8544   002CD6  0E00               	movlw	0
  8545   002CD8  6F86               	movwf	(___fldiv@b+3)& (0+255),b
  8546   002CDA                     l6110:
  8547                           
  8548                           ; BSR set to: 0
  8549   002CDA  8F85               	bsf	(___fldiv@b+2)& (0+255),7,b
  8550   002CDC                     
  8551                           ; BSR set to: 0
  8552   002CDC  0E00               	movlw	0
  8553   002CDE  6F86               	movwf	(___fldiv@b+3)& (0+255),b
  8554   002CE0  EF7A  F016         	goto	l6116
  8555   002CE4                     l6114:
  8556                           
  8557                           ; BSR set to: 0
  8558   002CE4  0E00               	movlw	0
  8559   002CE6  6F83               	movwf	___fldiv@b& (0+255),b
  8560   002CE8  0E00               	movlw	0
  8561   002CEA  6F84               	movwf	(___fldiv@b+1)& (0+255),b
  8562   002CEC  0E00               	movlw	0
  8563   002CEE  6F85               	movwf	(___fldiv@b+2)& (0+255),b
  8564   002CF0  0E00               	movlw	0
  8565   002CF2  6F86               	movwf	(___fldiv@b+3)& (0+255),b
  8566   002CF4                     l6116:
  8567                           
  8568                           ; BSR set to: 0
  8569   002CF4  518A               	movf	(___fldiv@a+3)& (0+255),w,b
  8570   002CF6  0B80               	andlw	128
  8571   002CF8  1B93               	xorwf	___fldiv@sign& (0+255),f,b
  8572   002CFA                     
  8573                           ; BSR set to: 0
  8574   002CFA  518A               	movf	(___fldiv@a+3)& (0+255),w,b
  8575   002CFC  258A               	addwf	(___fldiv@a+3)& (0+255),w,b
  8576   002CFE  6F9B               	movwf	___fldiv@aexp& (0+255),b
  8577   002D00                     
  8578                           ; BSR set to: 0
  8579   002D00  AF89               	btfss	(___fldiv@a+2)& (0+255),7,b
  8580   002D02  EF85  F016         	goto	u6671
  8581   002D06  EF87  F016         	goto	u6670
  8582   002D0A                     u6671:
  8583   002D0A  EF88  F016         	goto	l6124
  8584   002D0E                     u6670:
  8585   002D0E                     
  8586                           ; BSR set to: 0
  8587   002D0E  819B               	bsf	___fldiv@aexp& (0+255),0,b
  8588   002D10                     l6124:
  8589                           
  8590                           ; BSR set to: 0
  8591   002D10  519B               	movf	___fldiv@aexp& (0+255),w,b
  8592   002D12  B4D8               	btfsc	status,2,c
  8593   002D14  EF8E  F016         	goto	u6681
  8594   002D18  EF90  F016         	goto	u6680
  8595   002D1C                     u6681:
  8596   002D1C  EFA5  F016         	goto	l6134
  8597   002D20                     u6680:
  8598   002D20                     
  8599                           ; BSR set to: 0
  8600   002D20  299B               	incf	___fldiv@aexp& (0+255),w,b
  8601   002D22  A4D8               	btfss	status,2,c
  8602   002D24  EF96  F016         	goto	u6691
  8603   002D28  EF98  F016         	goto	u6690
  8604   002D2C                     u6691:
  8605   002D2C  EFA0  F016         	goto	l6130
  8606   002D30                     u6690:
  8607   002D30                     
  8608                           ; BSR set to: 0
  8609   002D30  0E00               	movlw	0
  8610   002D32  6F87               	movwf	___fldiv@a& (0+255),b
  8611   002D34  0E00               	movlw	0
  8612   002D36  6F88               	movwf	(___fldiv@a+1)& (0+255),b
  8613   002D38  0E00               	movlw	0
  8614   002D3A  6F89               	movwf	(___fldiv@a+2)& (0+255),b
  8615   002D3C  0E00               	movlw	0
  8616   002D3E  6F8A               	movwf	(___fldiv@a+3)& (0+255),b
  8617   002D40                     l6130:
  8618                           
  8619                           ; BSR set to: 0
  8620   002D40  8F89               	bsf	(___fldiv@a+2)& (0+255),7,b
  8621   002D42                     
  8622                           ; BSR set to: 0
  8623   002D42  0E00               	movlw	0
  8624   002D44  6F8A               	movwf	(___fldiv@a+3)& (0+255),b
  8625   002D46  EFAD  F016         	goto	l6136
  8626   002D4A                     l6134:
  8627                           
  8628                           ; BSR set to: 0
  8629   002D4A  0E00               	movlw	0
  8630   002D4C  6F87               	movwf	___fldiv@a& (0+255),b
  8631   002D4E  0E00               	movlw	0
  8632   002D50  6F88               	movwf	(___fldiv@a+1)& (0+255),b
  8633   002D52  0E00               	movlw	0
  8634   002D54  6F89               	movwf	(___fldiv@a+2)& (0+255),b
  8635   002D56  0E00               	movlw	0
  8636   002D58  6F8A               	movwf	(___fldiv@a+3)& (0+255),b
  8637   002D5A                     l6136:
  8638                           
  8639                           ; BSR set to: 0
  8640   002D5A  5187               	movf	___fldiv@a& (0+255),w,b
  8641   002D5C  1188               	iorwf	(___fldiv@a+1)& (0+255),w,b
  8642   002D5E  1189               	iorwf	(___fldiv@a+2)& (0+255),w,b
  8643   002D60  118A               	iorwf	(___fldiv@a+3)& (0+255),w,b
  8644   002D62  A4D8               	btfss	status,2,c
  8645   002D64  EFB6  F016         	goto	u6701
  8646   002D68  EFB8  F016         	goto	u6700
  8647   002D6C                     u6701:
  8648   002D6C  EFD0  F016         	goto	l6148
  8649   002D70                     u6700:
  8650   002D70                     
  8651                           ; BSR set to: 0
  8652   002D70  0E00               	movlw	0
  8653   002D72  6F83               	movwf	___fldiv@b& (0+255),b
  8654   002D74  0E00               	movlw	0
  8655   002D76  6F84               	movwf	(___fldiv@b+1)& (0+255),b
  8656   002D78  0E00               	movlw	0
  8657   002D7A  6F85               	movwf	(___fldiv@b+2)& (0+255),b
  8658   002D7C  0E00               	movlw	0
  8659   002D7E  6F86               	movwf	(___fldiv@b+3)& (0+255),b
  8660   002D80                     
  8661                           ; BSR set to: 0
  8662   002D80  0E80               	movlw	128
  8663   002D82  1385               	iorwf	(___fldiv@b+2)& (0+255),f,b
  8664   002D84  0E7F               	movlw	127
  8665   002D86  1386               	iorwf	(___fldiv@b+3)& (0+255),f,b
  8666   002D88                     l6142:
  8667                           
  8668                           ; BSR set to: 0
  8669   002D88  5193               	movf	___fldiv@sign& (0+255),w,b
  8670   002D8A  1386               	iorwf	(___fldiv@b+3)& (0+255),f,b
  8671   002D8C                     
  8672                           ; BSR set to: 0
  8673   002D8C  C083  F083         	movff	___fldiv@b,?___fldiv
  8674   002D90  C084  F084         	movff	___fldiv@b+1,?___fldiv+1
  8675   002D94  C085  F085         	movff	___fldiv@b+2,?___fldiv+2
  8676   002D98  C086  F086         	movff	___fldiv@b+3,?___fldiv+3
  8677   002D9C  EF13  F018         	goto	l1178
  8678   002DA0                     l6148:
  8679                           
  8680                           ; BSR set to: 0
  8681   002DA0  519A               	movf	___fldiv@bexp& (0+255),w,b
  8682   002DA2  A4D8               	btfss	status,2,c
  8683   002DA4  EFD6  F016         	goto	u6711
  8684   002DA8  EFD8  F016         	goto	u6710
  8685   002DAC                     u6711:
  8686   002DAC  EFE2  F016         	goto	l6156
  8687   002DB0                     u6710:
  8688   002DB0                     
  8689                           ; BSR set to: 0
  8690   002DB0  0E00               	movlw	0
  8691   002DB2  6F83               	movwf	?___fldiv& (0+255),b
  8692   002DB4  0E00               	movlw	0
  8693   002DB6  6F84               	movwf	(?___fldiv+1)& (0+255),b
  8694   002DB8  0E00               	movlw	0
  8695   002DBA  6F85               	movwf	(?___fldiv+2)& (0+255),b
  8696   002DBC  0E00               	movlw	0
  8697   002DBE  6F86               	movwf	(?___fldiv+3)& (0+255),b
  8698   002DC0  EF13  F018         	goto	l1178
  8699   002DC4                     l6156:
  8700                           
  8701                           ; BSR set to: 0
  8702   002DC4  519B               	movf	___fldiv@aexp& (0+255),w,b
  8703   002DC6  C09A  F08B         	movff	___fldiv@bexp,??___fldiv
  8704   002DCA  6B8C               	clrf	(??___fldiv+1)& (0+255),b
  8705   002DCC  5F8B               	subwf	??___fldiv& (0+255),f,b
  8706   002DCE  0E00               	movlw	0
  8707   002DD0  5B8C               	subwfb	(??___fldiv+1)& (0+255),f,b
  8708   002DD2  0E7F               	movlw	127
  8709   002DD4  258B               	addwf	??___fldiv& (0+255),w,b
  8710   002DD6  6F94               	movwf	___fldiv@new_exp& (0+255),b
  8711   002DD8  0E00               	movlw	0
  8712   002DDA  218C               	addwfc	(??___fldiv+1)& (0+255),w,b
  8713   002DDC  6F95               	movwf	(___fldiv@new_exp+1)& (0+255),b
  8714   002DDE                     
  8715                           ; BSR set to: 0
  8716   002DDE  C083  F08F         	movff	___fldiv@b,___fldiv@rem
  8717   002DE2  C084  F090         	movff	___fldiv@b+1,___fldiv@rem+1
  8718   002DE6  C085  F091         	movff	___fldiv@b+2,___fldiv@rem+2
  8719   002DEA  C086  F092         	movff	___fldiv@b+3,___fldiv@rem+3
  8720   002DEE                     
  8721                           ; BSR set to: 0
  8722   002DEE  0E00               	movlw	0
  8723   002DF0  6F83               	movwf	___fldiv@b& (0+255),b
  8724   002DF2  0E00               	movlw	0
  8725   002DF4  6F84               	movwf	(___fldiv@b+1)& (0+255),b
  8726   002DF6  0E00               	movlw	0
  8727   002DF8  6F85               	movwf	(___fldiv@b+2)& (0+255),b
  8728   002DFA  0E00               	movlw	0
  8729   002DFC  6F86               	movwf	(___fldiv@b+3)& (0+255),b
  8730   002DFE                     
  8731                           ; BSR set to: 0
  8732   002DFE  0E00               	movlw	0
  8733   002E00  6F96               	movwf	___fldiv@grs& (0+255),b
  8734   002E02  0E00               	movlw	0
  8735   002E04  6F97               	movwf	(___fldiv@grs+1)& (0+255),b
  8736   002E06  0E00               	movlw	0
  8737   002E08  6F98               	movwf	(___fldiv@grs+2)& (0+255),b
  8738   002E0A  0E00               	movlw	0
  8739   002E0C  6F99               	movwf	(___fldiv@grs+3)& (0+255),b
  8740   002E0E                     
  8741                           ; BSR set to: 0
  8742   002E0E  0E00               	movlw	0
  8743   002E10  6F9B               	movwf	___fldiv@aexp& (0+255),b
  8744   002E12  EF43  F017         	goto	l1180
  8745   002E16                     l6166:
  8746                           
  8747                           ; BSR set to: 0
  8748   002E16  519B               	movf	___fldiv@aexp& (0+255),w,b
  8749   002E18  B4D8               	btfsc	status,2,c
  8750   002E1A  EF11  F017         	goto	u6721
  8751   002E1E  EF13  F017         	goto	u6720
  8752   002E22                     u6721:
  8753   002E22  EF2A  F017         	goto	l6174
  8754   002E26                     u6720:
  8755   002E26                     
  8756                           ; BSR set to: 0
  8757   002E26  90D8               	bcf	status,0,c
  8758   002E28  378F               	rlcf	___fldiv@rem& (0+255),f,b
  8759   002E2A  3790               	rlcf	(___fldiv@rem+1)& (0+255),f,b
  8760   002E2C  3791               	rlcf	(___fldiv@rem+2)& (0+255),f,b
  8761   002E2E  3792               	rlcf	(___fldiv@rem+3)& (0+255),f,b
  8762   002E30  90D8               	bcf	status,0,c
  8763   002E32  3783               	rlcf	___fldiv@b& (0+255),f,b
  8764   002E34  3784               	rlcf	(___fldiv@b+1)& (0+255),f,b
  8765   002E36  3785               	rlcf	(___fldiv@b+2)& (0+255),f,b
  8766   002E38  3786               	rlcf	(___fldiv@b+3)& (0+255),f,b
  8767   002E3A                     
  8768                           ; BSR set to: 0
  8769   002E3A  AF99               	btfss	(___fldiv@grs+3)& (0+255),7,b
  8770   002E3C  EF22  F017         	goto	u6731
  8771   002E40  EF24  F017         	goto	u6730
  8772   002E44                     u6731:
  8773   002E44  EF25  F017         	goto	l1183
  8774   002E48                     u6730:
  8775   002E48                     
  8776                           ; BSR set to: 0
  8777   002E48  8183               	bsf	___fldiv@b& (0+255),0,b
  8778   002E4A                     l1183:
  8779                           
  8780                           ; BSR set to: 0
  8781   002E4A  90D8               	bcf	status,0,c
  8782   002E4C  3796               	rlcf	___fldiv@grs& (0+255),f,b
  8783   002E4E  3797               	rlcf	(___fldiv@grs+1)& (0+255),f,b
  8784   002E50  3798               	rlcf	(___fldiv@grs+2)& (0+255),f,b
  8785   002E52  3799               	rlcf	(___fldiv@grs+3)& (0+255),f,b
  8786   002E54                     l6174:
  8787                           
  8788                           ; BSR set to: 0
  8789   002E54  5187               	movf	___fldiv@a& (0+255),w,b
  8790   002E56  5D8F               	subwf	___fldiv@rem& (0+255),w,b
  8791   002E58  5188               	movf	(___fldiv@a+1)& (0+255),w,b
  8792   002E5A  5990               	subwfb	(___fldiv@rem+1)& (0+255),w,b
  8793   002E5C  5189               	movf	(___fldiv@a+2)& (0+255),w,b
  8794   002E5E  5991               	subwfb	(___fldiv@rem+2)& (0+255),w,b
  8795   002E60  518A               	movf	(___fldiv@a+3)& (0+255),w,b
  8796   002E62  5992               	subwfb	(___fldiv@rem+3)& (0+255),w,b
  8797   002E64  A0D8               	btfss	status,0,c
  8798   002E66  EF37  F017         	goto	u6741
  8799   002E6A  EF39  F017         	goto	u6740
  8800   002E6E                     u6741:
  8801   002E6E  EF42  F017         	goto	l6180
  8802   002E72                     u6740:
  8803   002E72                     
  8804                           ; BSR set to: 0
  8805   002E72  8D99               	bsf	(___fldiv@grs+3)& (0+255),6,b
  8806   002E74                     
  8807                           ; BSR set to: 0
  8808   002E74  5187               	movf	___fldiv@a& (0+255),w,b
  8809   002E76  5F8F               	subwf	___fldiv@rem& (0+255),f,b
  8810   002E78  5188               	movf	(___fldiv@a+1)& (0+255),w,b
  8811   002E7A  5B90               	subwfb	(___fldiv@rem+1)& (0+255),f,b
  8812   002E7C  5189               	movf	(___fldiv@a+2)& (0+255),w,b
  8813   002E7E  5B91               	subwfb	(___fldiv@rem+2)& (0+255),f,b
  8814   002E80  518A               	movf	(___fldiv@a+3)& (0+255),w,b
  8815   002E82  5B92               	subwfb	(___fldiv@rem+3)& (0+255),f,b
  8816   002E84                     l6180:
  8817                           
  8818                           ; BSR set to: 0
  8819   002E84  2B9B               	incf	___fldiv@aexp& (0+255),f,b
  8820   002E86                     l1180:
  8821                           
  8822                           ; BSR set to: 0
  8823   002E86  0E19               	movlw	25
  8824   002E88  659B               	cpfsgt	___fldiv@aexp& (0+255),b
  8825   002E8A  EF49  F017         	goto	u6751
  8826   002E8E  EF4B  F017         	goto	u6750
  8827   002E92                     u6751:
  8828   002E92  EF0B  F017         	goto	l6166
  8829   002E96                     u6750:
  8830   002E96                     
  8831                           ; BSR set to: 0
  8832   002E96  518F               	movf	___fldiv@rem& (0+255),w,b
  8833   002E98  1190               	iorwf	(___fldiv@rem+1)& (0+255),w,b
  8834   002E9A  1191               	iorwf	(___fldiv@rem+2)& (0+255),w,b
  8835   002E9C  1192               	iorwf	(___fldiv@rem+3)& (0+255),w,b
  8836   002E9E  B4D8               	btfsc	status,2,c
  8837   002EA0  EF54  F017         	goto	u6761
  8838   002EA4  EF56  F017         	goto	u6760
  8839   002EA8                     u6761:
  8840   002EA8  EF6E  F017         	goto	l6192
  8841   002EAC                     u6760:
  8842   002EAC                     
  8843                           ; BSR set to: 0
  8844   002EAC  8196               	bsf	___fldiv@grs& (0+255),0,b
  8845   002EAE  EF6E  F017         	goto	l6192
  8846   002EB2                     l6186:
  8847                           
  8848                           ; BSR set to: 0
  8849   002EB2  90D8               	bcf	status,0,c
  8850   002EB4  3783               	rlcf	___fldiv@b& (0+255),f,b
  8851   002EB6  3784               	rlcf	(___fldiv@b+1)& (0+255),f,b
  8852   002EB8  3785               	rlcf	(___fldiv@b+2)& (0+255),f,b
  8853   002EBA  3786               	rlcf	(___fldiv@b+3)& (0+255),f,b
  8854   002EBC                     
  8855                           ; BSR set to: 0
  8856   002EBC  AF99               	btfss	(___fldiv@grs+3)& (0+255),7,b
  8857   002EBE  EF63  F017         	goto	u6771
  8858   002EC2  EF65  F017         	goto	u6770
  8859   002EC6                     u6771:
  8860   002EC6  EF66  F017         	goto	l1189
  8861   002ECA                     u6770:
  8862   002ECA                     
  8863                           ; BSR set to: 0
  8864   002ECA  8183               	bsf	___fldiv@b& (0+255),0,b
  8865   002ECC                     l1189:
  8866                           
  8867                           ; BSR set to: 0
  8868   002ECC  90D8               	bcf	status,0,c
  8869   002ECE  3796               	rlcf	___fldiv@grs& (0+255),f,b
  8870   002ED0  3797               	rlcf	(___fldiv@grs+1)& (0+255),f,b
  8871   002ED2  3798               	rlcf	(___fldiv@grs+2)& (0+255),f,b
  8872   002ED4  3799               	rlcf	(___fldiv@grs+3)& (0+255),f,b
  8873   002ED6  0794               	decf	___fldiv@new_exp& (0+255),f,b
  8874   002ED8  A0D8               	btfss	status,0,c
  8875   002EDA  0795               	decf	(___fldiv@new_exp+1)& (0+255),f,b
  8876   002EDC                     l6192:
  8877                           
  8878                           ; BSR set to: 0
  8879   002EDC  AF85               	btfss	(___fldiv@b+2)& (0+255),7,b
  8880   002EDE  EF73  F017         	goto	u6781
  8881   002EE2  EF75  F017         	goto	u6780
  8882   002EE6                     u6781:
  8883   002EE6  EF59  F017         	goto	l6186
  8884   002EEA                     u6780:
  8885   002EEA                     
  8886                           ; BSR set to: 0
  8887   002EEA  0E00               	movlw	0
  8888   002EEC  6F9B               	movwf	___fldiv@aexp& (0+255),b
  8889   002EEE                     
  8890                           ; BSR set to: 0
  8891   002EEE  AF99               	btfss	(___fldiv@grs+3)& (0+255),7,b
  8892   002EF0  EF7C  F017         	goto	u6791
  8893   002EF4  EF7E  F017         	goto	u6790
  8894   002EF8                     u6791:
  8895   002EF8  EFA2  F017         	goto	l1191
  8896   002EFC                     u6790:
  8897   002EFC                     
  8898                           ; BSR set to: 0
  8899   002EFC  0EFF               	movlw	255
  8900   002EFE  1596               	andwf	___fldiv@grs& (0+255),w,b
  8901   002F00  6F8B               	movwf	??___fldiv& (0+255),b
  8902   002F02  0EFF               	movlw	255
  8903   002F04  1597               	andwf	(___fldiv@grs+1)& (0+255),w,b
  8904   002F06  6F8C               	movwf	(??___fldiv+1)& (0+255),b
  8905   002F08  0EFF               	movlw	255
  8906   002F0A  1598               	andwf	(___fldiv@grs+2)& (0+255),w,b
  8907   002F0C  6F8D               	movwf	(??___fldiv+2)& (0+255),b
  8908   002F0E  0E7F               	movlw	127
  8909   002F10  1599               	andwf	(___fldiv@grs+3)& (0+255),w,b
  8910   002F12  6F8E               	movwf	(??___fldiv+3)& (0+255),b
  8911   002F14  518B               	movf	??___fldiv& (0+255),w,b
  8912   002F16  118C               	iorwf	(??___fldiv+1)& (0+255),w,b
  8913   002F18  118D               	iorwf	(??___fldiv+2)& (0+255),w,b
  8914   002F1A  118E               	iorwf	(??___fldiv+3)& (0+255),w,b
  8915   002F1C  B4D8               	btfsc	status,2,c
  8916   002F1E  EF93  F017         	goto	u6801
  8917   002F22  EF95  F017         	goto	u6800
  8918   002F26                     u6801:
  8919   002F26  EF99  F017         	goto	l1192
  8920   002F2A                     u6800:
  8921   002F2A                     l6200:
  8922                           
  8923                           ; BSR set to: 0
  8924   002F2A  0E01               	movlw	1
  8925   002F2C  6F9B               	movwf	___fldiv@aexp& (0+255),b
  8926   002F2E  EFA2  F017         	goto	l1191
  8927   002F32                     l1192:
  8928                           
  8929                           ; BSR set to: 0
  8930   002F32  A183               	btfss	___fldiv@b& (0+255),0,b
  8931   002F34  EF9E  F017         	goto	u6811
  8932   002F38  EFA0  F017         	goto	u6810
  8933   002F3C                     u6811:
  8934   002F3C  EFA2  F017         	goto	l1191
  8935   002F40                     u6810:
  8936   002F40  EF95  F017         	goto	l6200
  8937   002F44                     l1191:
  8938                           
  8939                           ; BSR set to: 0
  8940   002F44  519B               	movf	___fldiv@aexp& (0+255),w,b
  8941   002F46  B4D8               	btfsc	status,2,c
  8942   002F48  EFA8  F017         	goto	u6821
  8943   002F4C  EFAA  F017         	goto	u6820
  8944   002F50                     u6821:
  8945   002F50  EFCE  F017         	goto	l6212
  8946   002F54                     u6820:
  8947   002F54                     
  8948                           ; BSR set to: 0
  8949   002F54  0E01               	movlw	1
  8950   002F56  2783               	addwf	___fldiv@b& (0+255),f,b
  8951   002F58  0E00               	movlw	0
  8952   002F5A  2384               	addwfc	(___fldiv@b+1)& (0+255),f,b
  8953   002F5C  2385               	addwfc	(___fldiv@b+2)& (0+255),f,b
  8954   002F5E  2386               	addwfc	(___fldiv@b+3)& (0+255),f,b
  8955   002F60                     
  8956                           ; BSR set to: 0
  8957   002F60  A186               	btfss	(___fldiv@b+3)& (0+255),0,b
  8958   002F62  EFB5  F017         	goto	u6831
  8959   002F66  EFB7  F017         	goto	u6830
  8960   002F6A                     u6831:
  8961   002F6A  EFCE  F017         	goto	l6212
  8962   002F6E                     u6830:
  8963   002F6E                     
  8964                           ; BSR set to: 0
  8965   002F6E  C083  F08B         	movff	___fldiv@b,??___fldiv
  8966   002F72  C084  F08C         	movff	___fldiv@b+1,??___fldiv+1
  8967   002F76  C085  F08D         	movff	___fldiv@b+2,??___fldiv+2
  8968   002F7A  C086  F08E         	movff	___fldiv@b+3,??___fldiv+3
  8969   002F7E  358E               	rlcf	(??___fldiv+3)& (0+255),w,b
  8970   002F80  338E               	rrcf	(??___fldiv+3)& (0+255),f,b
  8971   002F82  338D               	rrcf	(??___fldiv+2)& (0+255),f,b
  8972   002F84  338C               	rrcf	(??___fldiv+1)& (0+255),f,b
  8973   002F86  338B               	rrcf	??___fldiv& (0+255),f,b
  8974   002F88  C08B  F083         	movff	??___fldiv,___fldiv@b
  8975   002F8C  C08C  F084         	movff	??___fldiv+1,___fldiv@b+1
  8976   002F90  C08D  F085         	movff	??___fldiv+2,___fldiv@b+2
  8977   002F94  C08E  F086         	movff	??___fldiv+3,___fldiv@b+3
  8978   002F98                     
  8979                           ; BSR set to: 0
  8980   002F98  4B94               	infsnz	___fldiv@new_exp& (0+255),f,b
  8981   002F9A  2B95               	incf	(___fldiv@new_exp+1)& (0+255),f,b
  8982   002F9C                     l6212:
  8983                           
  8984                           ; BSR set to: 0
  8985   002F9C  BF95               	btfsc	(___fldiv@new_exp+1)& (0+255),7,b
  8986   002F9E  EFD9  F017         	goto	u6841
  8987   002FA2  5195               	movf	(___fldiv@new_exp+1)& (0+255),w,b
  8988   002FA4  E108               	bnz	u6840
  8989   002FA6  2994               	incf	___fldiv@new_exp& (0+255),w,b
  8990   002FA8  A0D8               	btfss	status,0,c
  8991   002FAA  EFD9  F017         	goto	u6841
  8992   002FAE  EFDB  F017         	goto	u6840
  8993   002FB2                     u6841:
  8994   002FB2  EFE6  F017         	goto	l6216
  8995   002FB6                     u6840:
  8996   002FB6                     
  8997                           ; BSR set to: 0
  8998   002FB6  0E00               	movlw	0
  8999   002FB8  6F95               	movwf	(___fldiv@new_exp+1)& (0+255),b
  9000   002FBA  6994               	setf	___fldiv@new_exp& (0+255),b
  9001   002FBC  0E00               	movlw	0
  9002   002FBE  6F83               	movwf	___fldiv@b& (0+255),b
  9003   002FC0  0E00               	movlw	0
  9004   002FC2  6F84               	movwf	(___fldiv@b+1)& (0+255),b
  9005   002FC4  0E00               	movlw	0
  9006   002FC6  6F85               	movwf	(___fldiv@b+2)& (0+255),b
  9007   002FC8  0E00               	movlw	0
  9008   002FCA  6F86               	movwf	(___fldiv@b+3)& (0+255),b
  9009   002FCC                     l6216:
  9010                           
  9011                           ; BSR set to: 0
  9012   002FCC  BF95               	btfsc	(___fldiv@new_exp+1)& (0+255),7,b
  9013   002FCE  EFF3  F017         	goto	u6850
  9014   002FD2  5195               	movf	(___fldiv@new_exp+1)& (0+255),w,b
  9015   002FD4  E106               	bnz	u6851
  9016   002FD6  0594               	decf	___fldiv@new_exp& (0+255),w,b
  9017   002FD8  B0D8               	btfsc	status,0,c
  9018   002FDA  EFF1  F017         	goto	u6851
  9019   002FDE  EFF3  F017         	goto	u6850
  9020   002FE2                     u6851:
  9021   002FE2  EF01  F018         	goto	l6220
  9022   002FE6                     u6850:
  9023   002FE6                     
  9024                           ; BSR set to: 0
  9025   002FE6  0E00               	movlw	0
  9026   002FE8  6F95               	movwf	(___fldiv@new_exp+1)& (0+255),b
  9027   002FEA  0E00               	movlw	0
  9028   002FEC  6F94               	movwf	___fldiv@new_exp& (0+255),b
  9029   002FEE  0E00               	movlw	0
  9030   002FF0  6F83               	movwf	___fldiv@b& (0+255),b
  9031   002FF2  0E00               	movlw	0
  9032   002FF4  6F84               	movwf	(___fldiv@b+1)& (0+255),b
  9033   002FF6  0E00               	movlw	0
  9034   002FF8  6F85               	movwf	(___fldiv@b+2)& (0+255),b
  9035   002FFA  0E00               	movlw	0
  9036   002FFC  6F86               	movwf	(___fldiv@b+3)& (0+255),b
  9037   002FFE  0E00               	movlw	0
  9038   003000  6F93               	movwf	___fldiv@sign& (0+255),b
  9039   003002                     l6220:
  9040                           
  9041                           ; BSR set to: 0
  9042   003002  C094  F09A         	movff	___fldiv@new_exp,___fldiv@bexp
  9043   003006                     
  9044                           ; BSR set to: 0
  9045   003006  A19A               	btfss	___fldiv@bexp& (0+255),0,b
  9046   003008  EF08  F018         	goto	u6861
  9047   00300C  EF0A  F018         	goto	u6860
  9048   003010                     u6861:
  9049   003010  EF0D  F018         	goto	l6226
  9050   003014                     u6860:
  9051   003014                     
  9052                           ; BSR set to: 0
  9053   003014  8F85               	bsf	(___fldiv@b+2)& (0+255),7,b
  9054   003016  EF0E  F018         	goto	l6228
  9055   00301A                     l6226:
  9056                           
  9057                           ; BSR set to: 0
  9058   00301A  9F85               	bcf	(___fldiv@b+2)& (0+255),7,b
  9059   00301C                     l6228:
  9060                           
  9061                           ; BSR set to: 0
  9062   00301C  90D8               	bcf	status,0,c
  9063   00301E  319A               	rrcf	___fldiv@bexp& (0+255),w,b
  9064   003020  6F86               	movwf	(___fldiv@b+3)& (0+255),b
  9065   003022  EFC4  F016         	goto	l6142
  9066   003026                     l1178:
  9067                           
  9068                           ; BSR set to: 0
  9069   003026  0012               	return		;funcret
  9070   003028                     __end_of___fldiv:
  9071                           	callstack 0
  9072                           
  9073 ;; *************** function _dtoa *****************
  9074 ;; Defined at:
  9075 ;;		line 470 in file "C:\Program Files\Microchip\xc8\v2.41\pic\sources\c99\common\doprnt.c"
  9076 ;; Parameters:    Size  Location     Type
  9077 ;;  fp              2   22[BANK0 ] PTR struct _IO_FILE
  9078 ;;		 -> sprintf@f(12), 
  9079 ;;  d               2   24[BANK0 ] int 
  9080 ;; Auto vars:     Size  Location     Type
  9081 ;;  i               2   33[BANK0 ] int 
  9082 ;;  w               2   30[BANK0 ] int 
  9083 ;;  p               2   28[BANK0 ] int 
  9084 ;;  s               1   32[BANK0 ] unsigned char 
  9085 ;; Return value:  Size  Location     Type
  9086 ;;                  1    wreg      void 
  9087 ;; Registers used:
  9088 ;;		wreg, fsr1l, fsr1h, fsr2l, fsr2h, status,2, status,0, cstack
  9089 ;; Tracked objects:
  9090 ;;		On entry : 0/0
  9091 ;;		On exit  : 0/0
  9092 ;;		Unchanged: 0/0
  9093 ;; Data sizes:     COMRAM   BANK0   BANK1   BANK2   BANK3   BANK4   BANK5   BANK6   BANK7
  9094 ;;      Params:         0       4       0       0       0       0       0       0       0
  9095 ;;      Locals:         0       9       0       0       0       0       0       0       0
  9096 ;;      Temps:          0       0       0       0       0       0       0       0       0
  9097 ;;      Totals:         0      13       0       0       0       0       0       0       0
  9098 ;;Total ram usage:       13 bytes
  9099 ;; Hardware stack levels used: 1
  9100 ;; Hardware stack levels required when called: 8
  9101 ;; This function calls:
  9102 ;;		___awdiv
  9103 ;;		___awmod
  9104 ;;		_abs
  9105 ;;		_pad
  9106 ;; This function is called by:
  9107 ;;		_vfpfcnvrt
  9108 ;; This function uses a non-reentrant model
  9109 ;;
  9110                           
  9111                           	psect	text23
  9112   00323E                     __ptext23:
  9113                           	callstack 0
  9114   00323E                     _dtoa:
  9115                           	callstack 19
  9116   00323E                     
  9117                           ;C:\Program Files\Microchip\xc8\v2.41\pic\sources\c99\common\doprnt.c: 470: static void 
      +                          dtoa(FILE *fp, vfpf_sint_t d);C:\Program Files\Microchip\xc8\v2.41\pic\sources\c99\commo
      +                          n\doprnt.c: 471: {;C:\Program Files\Microchip\xc8\v2.41\pic\sources\c99\common\doprnt.c:
      +                           472:  char s;;C:\Program Files\Microchip\xc8\v2.41\pic\sources\c99\common\doprnt.c: 473
      +                          :     int i, p, w;;C:\Program Files\Microchip\xc8\v2.41\pic\sources\c99\common\doprnt.c:
      +                           476:     s = d < 0 ? 1 : 0;
  9118   00323E  0100               	movlb	0	; () banked
  9119   003240  BF79               	btfsc	(dtoa@d+1)& (0+255),7,b
  9120   003242  EF25  F019         	goto	u7441
  9121   003246  EF28  F019         	goto	u7440
  9122   00324A                     u7441:
  9123   00324A  0E01               	movlw	1
  9124   00324C  EF29  F019         	goto	u7450
  9125   003250                     u7440:
  9126   003250  0E00               	movlw	0
  9127   003252                     u7450:
  9128   003252  6F80               	movwf	dtoa@s& (0+255),b
  9129   003254                     
  9130                           ; BSR set to: 0
  9131                           ;C:\Program Files\Microchip\xc8\v2.41\pic\sources\c99\common\doprnt.c: 477:     if (s) {
  9132   003254  5180               	movf	dtoa@s& (0+255),w,b
  9133   003256  B4D8               	btfsc	status,2,c
  9134   003258  EF30  F019         	goto	u7461
  9135   00325C  EF32  F019         	goto	u7460
  9136   003260                     u7461:
  9137   003260  EF36  F019         	goto	l6582
  9138   003264                     u7460:
  9139   003264                     
  9140                           ; BSR set to: 0
  9141                           ;C:\Program Files\Microchip\xc8\v2.41\pic\sources\c99\common\doprnt.c: 478:         d = 
      +                          -d;
  9142   003264  6D78               	negf	dtoa@d& (0+255),b
  9143   003266  1F79               	comf	(dtoa@d+1)& (0+255),f,b
  9144   003268  B0D8               	btfsc	status,0,c
  9145   00326A  2B79               	incf	(dtoa@d+1)& (0+255),f,b
  9146   00326C                     l6582:
  9147                           
  9148                           ; BSR set to: 0
  9149                           ;C:\Program Files\Microchip\xc8\v2.41\pic\sources\c99\common\doprnt.c: 483:     if (!(pr
      +                          ec < 0)) {
  9150   00326C  BE27               	btfsc	(_prec+1)^0,7,c
  9151   00326E  EF3B  F019         	goto	u7471
  9152   003272  EF3D  F019         	goto	u7470
  9153   003276                     u7471:
  9154   003276  EF3E  F019         	goto	l6586
  9155   00327A                     u7470:
  9156   00327A                     
  9157                           ; BSR set to: 0
  9158                           ;C:\Program Files\Microchip\xc8\v2.41\pic\sources\c99\common\doprnt.c: 484:         flag
      +                          s &= ~(1 << 1);
  9159   00327A  9236               	bcf	_flags^0,1,c
  9160   00327C                     l6586:
  9161                           
  9162                           ; BSR set to: 0
  9163                           ;C:\Program Files\Microchip\xc8\v2.41\pic\sources\c99\common\doprnt.c: 487:     p = (0 <
      +                          = prec) ? prec : 1;
  9164   00327C  BE27               	btfsc	(_prec+1)^0,7,c
  9165   00327E  EF45  F019         	goto	u7480
  9166   003282  EF43  F019         	goto	u7481
  9167   003286                     u7481:
  9168   003286  EF4B  F019         	goto	l1318
  9169   00328A                     u7480:
  9170   00328A                     
  9171                           ; BSR set to: 0
  9172   00328A  0E00               	movlw	0
  9173   00328C  6F7D               	movwf	(dtoa@p+1)& (0+255),b
  9174   00328E  0E01               	movlw	1
  9175   003290  6F7C               	movwf	dtoa@p& (0+255),b
  9176   003292  EF4F  F019         	goto	l1320
  9177   003296                     l1318:
  9178                           
  9179                           ; BSR set to: 0
  9180   003296  C026  F07C         	movff	_prec,dtoa@p
  9181   00329A  C027  F07D         	movff	_prec+1,dtoa@p+1
  9182   00329E                     l1320:
  9183                           
  9184                           ; BSR set to: 0
  9185                           ;C:\Program Files\Microchip\xc8\v2.41\pic\sources\c99\common\doprnt.c: 488:     w = widt
      +                          h;
  9186   00329E  C024  F07E         	movff	_width,dtoa@w
  9187   0032A2  C025  F07F         	movff	_width+1,dtoa@w+1
  9188   0032A6                     
  9189                           ; BSR set to: 0
  9190                           ;C:\Program Files\Microchip\xc8\v2.41\pic\sources\c99\common\doprnt.c: 489:     if (s
  9191   0032A6  5180               	movf	dtoa@s& (0+255),w,b
  9192   0032A8  B4D8               	btfsc	status,2,c
  9193   0032AA  EF59  F019         	goto	u7491
  9194   0032AE  EF5B  F019         	goto	u7490
  9195   0032B2                     u7491:
  9196   0032B2  EF72  F019         	goto	l1321
  9197   0032B6                     u7490:
  9198   0032B6                     
  9199                           ; BSR set to: 0
  9200                           ;C:\Program Files\Microchip\xc8\v2.41\pic\sources\c99\common\doprnt.c: 493:     ) {;C:\P
      +                          rogram Files\Microchip\xc8\v2.41\pic\sources\c99\common\doprnt.c: 494:         --w;
  9201   0032B6  077E               	decf	dtoa@w& (0+255),f,b
  9202   0032B8  A0D8               	btfss	status,0,c
  9203   0032BA  077F               	decf	(dtoa@w+1)& (0+255),f,b
  9204   0032BC                     
  9205                           ; BSR set to: 0
  9206                           ;C:\Program Files\Microchip\xc8\v2.41\pic\sources\c99\common\doprnt.c: 495:   s = s ? '-
      +                          ' : '+';
  9207   0032BC  5180               	movf	dtoa@s& (0+255),w,b
  9208   0032BE  A4D8               	btfss	status,2,c
  9209   0032C0  EF64  F019         	goto	u7501
  9210   0032C4  EF66  F019         	goto	u7500
  9211   0032C8                     u7501:
  9212   0032C8  EF6C  F019         	goto	l6598
  9213   0032CC                     u7500:
  9214   0032CC                     
  9215                           ; BSR set to: 0
  9216   0032CC  0E00               	movlw	0
  9217   0032CE  6F7B               	movwf	(_dtoa$2512+1)& (0+255),b
  9218   0032D0  0E2B               	movlw	43
  9219   0032D2  6F7A               	movwf	_dtoa$2512& (0+255),b
  9220   0032D4  EF70  F019         	goto	l6600
  9221   0032D8                     l6598:
  9222                           
  9223                           ; BSR set to: 0
  9224   0032D8  0E00               	movlw	0
  9225   0032DA  6F7B               	movwf	(_dtoa$2512+1)& (0+255),b
  9226   0032DC  0E2D               	movlw	45
  9227   0032DE  6F7A               	movwf	_dtoa$2512& (0+255),b
  9228   0032E0                     l6600:
  9229                           
  9230                           ; BSR set to: 0
  9231   0032E0  C07A  F080         	movff	_dtoa$2512,dtoa@s
  9232   0032E4                     l1321:
  9233                           
  9234                           ; BSR set to: 0
  9235                           ;C:\Program Files\Microchip\xc8\v2.41\pic\sources\c99\common\doprnt.c: 505:     i = size
      +                          of(dbuf) - 1;
  9236   0032E4  0E00               	movlw	0
  9237   0032E6  6F82               	movwf	(dtoa@i+1)& (0+255),b
  9238   0032E8  0E4F               	movlw	79
  9239   0032EA  6F81               	movwf	dtoa@i& (0+255),b
  9240   0032EC                     
  9241                           ; BSR set to: 0
  9242                           ;C:\Program Files\Microchip\xc8\v2.41\pic\sources\c99\common\doprnt.c: 506:     dbuf[i] 
      +                          = '\0';
  9243   0032EC  0E00               	movlw	0
  9244   0032EE  0101               	movlb	1	; () banked
  9245   0032F0  6FC7               	movwf	(_dbuf+79)& (0+255),b
  9246                           
  9247                           ;C:\Program Files\Microchip\xc8\v2.41\pic\sources\c99\common\doprnt.c: 507:     while (!
      +                          (i < 1) && (d || (0 < p)
  9248   0032F2  EFAC  F019         	goto	l6614
  9249   0032F6                     l6604:
  9250                           
  9251                           ; BSR set to: 0
  9252                           ;C:\Program Files\Microchip\xc8\v2.41\pic\sources\c99\common\doprnt.c: 511:     )) {;C:\
      +                          Program Files\Microchip\xc8\v2.41\pic\sources\c99\common\doprnt.c: 512:         --i;
  9253   0032F6  0781               	decf	dtoa@i& (0+255),f,b
  9254   0032F8  A0D8               	btfss	status,0,c
  9255   0032FA  0782               	decf	(dtoa@i+1)& (0+255),f,b
  9256   0032FC                     
  9257                           ; BSR set to: 0
  9258                           ;C:\Program Files\Microchip\xc8\v2.41\pic\sources\c99\common\doprnt.c: 513:         dbuf
      +                          [i] = (char)((int)'0' + abs(d % 10));
  9259   0032FC  0E78               	movlw	low _dbuf
  9260   0032FE  2581               	addwf	dtoa@i& (0+255),w,b
  9261   003300  6ED9               	movwf	fsr2l,c
  9262   003302  0E01               	movlw	high _dbuf
  9263   003304  2182               	addwfc	(dtoa@i+1)& (0+255),w,b
  9264   003306  6EDA               	movwf	fsr2h,c
  9265   003308  C078  F01F         	movff	dtoa@d,___awmod@dividend
  9266   00330C  C079  F020         	movff	dtoa@d+1,___awmod@dividend+1
  9267   003310  0E00               	movlw	0
  9268   003312  6E22               	movwf	(___awmod@divisor+1)^0,c
  9269   003314  0E0A               	movlw	10
  9270   003316  6E21               	movwf	___awmod@divisor^0,c
  9271   003318  EC7F  F01F         	call	___awmod	;wreg free
  9272   00331C  C01F  F062         	movff	?___awmod,abs@a
  9273   003320  C020  F063         	movff	?___awmod+1,abs@a+1
  9274   003324  EC61  F023         	call	_abs	;wreg free
  9275   003328  0100               	movlb	0	; () banked
  9276   00332A  5162               	movf	?_abs& (0+255),w,b
  9277   00332C  0F30               	addlw	48
  9278   00332E  6EDF               	movwf	indf2,c
  9279   003330                     
  9280                           ; BSR set to: 0
  9281                           ;C:\Program Files\Microchip\xc8\v2.41\pic\sources\c99\common\doprnt.c: 514:         --p;
  9282   003330  077C               	decf	dtoa@p& (0+255),f,b
  9283   003332  A0D8               	btfss	status,0,c
  9284   003334  077D               	decf	(dtoa@p+1)& (0+255),f,b
  9285   003336                     
  9286                           ; BSR set to: 0
  9287                           ;C:\Program Files\Microchip\xc8\v2.41\pic\sources\c99\common\doprnt.c: 515:         --w;
  9288   003336  077E               	decf	dtoa@w& (0+255),f,b
  9289   003338  A0D8               	btfss	status,0,c
  9290   00333A  077F               	decf	(dtoa@w+1)& (0+255),f,b
  9291   00333C                     
  9292                           ; BSR set to: 0
  9293                           ;C:\Program Files\Microchip\xc8\v2.41\pic\sources\c99\common\doprnt.c: 516:         d = 
      +                          d / 10;
  9294   00333C  C078  F01F         	movff	dtoa@d,___awdiv@dividend
  9295   003340  C079  F020         	movff	dtoa@d+1,___awdiv@dividend+1
  9296   003344  0E00               	movlw	0
  9297   003346  6E22               	movwf	(___awdiv@divisor+1)^0,c
  9298   003348  0E0A               	movlw	10
  9299   00334A  6E21               	movwf	___awdiv@divisor^0,c
  9300   00334C  ECC2  F01E         	call	___awdiv	;wreg free
  9301   003350  C01F  F078         	movff	?___awdiv,dtoa@d
  9302   003354  C020  F079         	movff	?___awdiv+1,dtoa@d+1
  9303   003358                     l6614:
  9304                           
  9305                           ;C:\Program Files\Microchip\xc8\v2.41\pic\sources\c99\common\doprnt.c: 507:     while (!
      +                          (i < 1) && (d || (0 < p)
  9306   003358  0100               	movlb	0	; () banked
  9307   00335A  BF82               	btfsc	(dtoa@i+1)& (0+255),7,b
  9308   00335C  EFB8  F019         	goto	u7511
  9309   003360  5182               	movf	(dtoa@i+1)& (0+255),w,b
  9310   003362  E108               	bnz	u7510
  9311   003364  0581               	decf	dtoa@i& (0+255),w,b
  9312   003366  A0D8               	btfss	status,0,c
  9313   003368  EFB8  F019         	goto	u7511
  9314   00336C  EFBA  F019         	goto	u7510
  9315   003370                     u7511:
  9316   003370  EFE4  F019         	goto	l6624
  9317   003374                     u7510:
  9318   003374                     
  9319                           ; BSR set to: 0
  9320   003374  5178               	movf	dtoa@d& (0+255),w,b
  9321   003376  1179               	iorwf	(dtoa@d+1)& (0+255),w,b
  9322   003378  A4D8               	btfss	status,2,c
  9323   00337A  EFC1  F019         	goto	u7521
  9324   00337E  EFC3  F019         	goto	u7520
  9325   003382                     u7521:
  9326   003382  EF7B  F019         	goto	l6604
  9327   003386                     u7520:
  9328   003386                     
  9329                           ; BSR set to: 0
  9330   003386  BF7D               	btfsc	(dtoa@p+1)& (0+255),7,b
  9331   003388  EFD0  F019         	goto	u7530
  9332   00338C  517D               	movf	(dtoa@p+1)& (0+255),w,b
  9333   00338E  E106               	bnz	u7531
  9334   003390  057C               	decf	dtoa@p& (0+255),w,b
  9335   003392  B0D8               	btfsc	status,0,c
  9336   003394  EFCE  F019         	goto	u7531
  9337   003398  EFD0  F019         	goto	u7530
  9338   00339C                     u7531:
  9339   00339C  EF7B  F019         	goto	l6604
  9340   0033A0                     u7530:
  9341   0033A0                     
  9342                           ; BSR set to: 0
  9343   0033A0  BF7F               	btfsc	(dtoa@w+1)& (0+255),7,b
  9344   0033A2  EFDB  F019         	goto	u7541
  9345   0033A6  517F               	movf	(dtoa@w+1)& (0+255),w,b
  9346   0033A8  E108               	bnz	u7540
  9347   0033AA  057E               	decf	dtoa@w& (0+255),w,b
  9348   0033AC  A0D8               	btfss	status,0,c
  9349   0033AE  EFDB  F019         	goto	u7541
  9350   0033B2  EFDD  F019         	goto	u7540
  9351   0033B6                     u7541:
  9352   0033B6  EFE4  F019         	goto	l6624
  9353   0033BA                     u7540:
  9354   0033BA                     
  9355                           ; BSR set to: 0
  9356   0033BA  B236               	btfsc	_flags^0,1,c
  9357   0033BC  EFE2  F019         	goto	u7551
  9358   0033C0  EFE4  F019         	goto	u7550
  9359   0033C4                     u7551:
  9360   0033C4  EF7B  F019         	goto	l6604
  9361   0033C8                     u7550:
  9362   0033C8                     l6624:
  9363                           
  9364                           ; BSR set to: 0
  9365                           ;C:\Program Files\Microchip\xc8\v2.41\pic\sources\c99\common\doprnt.c: 520:     if (s !=
      +                           0) {
  9366   0033C8  5180               	movf	dtoa@s& (0+255),w,b
  9367   0033CA  B4D8               	btfsc	status,2,c
  9368   0033CC  EFEA  F019         	goto	u7561
  9369   0033D0  EFEC  F019         	goto	u7560
  9370   0033D4                     u7561:
  9371   0033D4  EFF7  F019         	goto	l6630
  9372   0033D8                     u7560:
  9373   0033D8                     
  9374                           ; BSR set to: 0
  9375                           ;C:\Program Files\Microchip\xc8\v2.41\pic\sources\c99\common\doprnt.c: 521:         --i;
  9376   0033D8  0781               	decf	dtoa@i& (0+255),f,b
  9377   0033DA  A0D8               	btfss	status,0,c
  9378   0033DC  0782               	decf	(dtoa@i+1)& (0+255),f,b
  9379   0033DE                     
  9380                           ; BSR set to: 0
  9381                           ;C:\Program Files\Microchip\xc8\v2.41\pic\sources\c99\common\doprnt.c: 522:         dbuf
      +                          [i] = s;
  9382   0033DE  0E78               	movlw	low _dbuf
  9383   0033E0  2581               	addwf	dtoa@i& (0+255),w,b
  9384   0033E2  6ED9               	movwf	fsr2l,c
  9385   0033E4  0E01               	movlw	high _dbuf
  9386   0033E6  2182               	addwfc	(dtoa@i+1)& (0+255),w,b
  9387   0033E8  6EDA               	movwf	fsr2h,c
  9388   0033EA  C080  FFDF         	movff	dtoa@s,indf2
  9389   0033EE                     l6630:
  9390                           
  9391                           ; BSR set to: 0
  9392                           ;C:\Program Files\Microchip\xc8\v2.41\pic\sources\c99\common\doprnt.c: 526:     return (
      +                          void) pad(fp, &dbuf[i], w);
  9393   0033EE  C076  F06C         	movff	dtoa@fp,pad@fp
  9394   0033F2  C077  F06D         	movff	dtoa@fp+1,pad@fp+1
  9395   0033F6  0E78               	movlw	low _dbuf
  9396   0033F8  2581               	addwf	dtoa@i& (0+255),w,b
  9397   0033FA  6F6E               	movwf	pad@buf& (0+255),b
  9398   0033FC  0E01               	movlw	high _dbuf
  9399   0033FE  2182               	addwfc	(dtoa@i+1)& (0+255),w,b
  9400   003400  6F6F               	movwf	(pad@buf+1)& (0+255),b
  9401   003402  C07E  F070         	movff	dtoa@w,pad@p
  9402   003406  C07F  F071         	movff	dtoa@w+1,pad@p+1
  9403   00340A  ECD8  F01F         	call	_pad	;wreg free
  9404   00340E  0012               	return		;funcret
  9405   003410                     __end_of_dtoa:
  9406                           	callstack 0
  9407                           
  9408 ;; *************** function _pad *****************
  9409 ;; Defined at:
  9410 ;;		line 152 in file "C:\Program Files\Microchip\xc8\v2.41\pic\sources\c99\common\doprnt.c"
  9411 ;; Parameters:    Size  Location     Type
  9412 ;;  fp              2   12[BANK0 ] PTR struct _IO_FILE
  9413 ;;		 -> sprintf@f(12), 
  9414 ;;  buf             2   14[BANK0 ] PTR unsigned char 
  9415 ;;		 -> dbuf(80), 
  9416 ;;  p               2   16[BANK0 ] int 
  9417 ;; Auto vars:     Size  Location     Type
  9418 ;;  w               2   20[BANK0 ] int 
  9419 ;;  i               2   18[BANK0 ] int 
  9420 ;; Return value:  Size  Location     Type
  9421 ;;                  1    wreg      void 
  9422 ;; Registers used:
  9423 ;;		wreg, fsr1l, fsr1h, fsr2l, fsr2h, status,2, status,0, cstack
  9424 ;; Tracked objects:
  9425 ;;		On entry : 0/0
  9426 ;;		On exit  : 0/0
  9427 ;;		Unchanged: 0/0
  9428 ;; Data sizes:     COMRAM   BANK0   BANK1   BANK2   BANK3   BANK4   BANK5   BANK6   BANK7
  9429 ;;      Params:         0       6       0       0       0       0       0       0       0
  9430 ;;      Locals:         0       4       0       0       0       0       0       0       0
  9431 ;;      Temps:          1       0       0       0       0       0       0       0       0
  9432 ;;      Totals:         1      10       0       0       0       0       0       0       0
  9433 ;;Total ram usage:       11 bytes
  9434 ;; Hardware stack levels used: 1
  9435 ;; Hardware stack levels required when called: 7
  9436 ;; This function calls:
  9437 ;;		_fputc
  9438 ;;		_fputs
  9439 ;; This function is called by:
  9440 ;;		_dtoa
  9441 ;;		_efgtoa
  9442 ;;		_utoa
  9443 ;; This function uses a non-reentrant model
  9444 ;;
  9445                           
  9446                           	psect	text24
  9447   003FB0                     __ptext24:
  9448                           	callstack 0
  9449   003FB0                     _pad:
  9450                           	callstack 19
  9451   003FB0                     
  9452                           ;C:\Program Files\Microchip\xc8\v2.41\pic\sources\c99\common\doprnt.c: 152: static void 
      +                          pad(FILE *fp, char *buf, int p);C:\Program Files\Microchip\xc8\v2.41\pic\sources\c99\com
      +                          mon\doprnt.c: 153: {;C:\Program Files\Microchip\xc8\v2.41\pic\sources\c99\common\doprnt.
      +                          c: 154:     int i, w;;C:\Program Files\Microchip\xc8\v2.41\pic\sources\c99\common\doprnt
      +                          .c: 158:     if (flags & (1 << 0)) {
  9453   003FB0  A036               	btfss	_flags^0,0,c
  9454   003FB2  EFDD  F01F         	goto	u7291
  9455   003FB6  EFDF  F01F         	goto	u7290
  9456   003FBA                     u7291:
  9457   003FBA  EFE9  F01F         	goto	l6516
  9458   003FBE                     u7290:
  9459   003FBE                     
  9460                           ;C:\Program Files\Microchip\xc8\v2.41\pic\sources\c99\common\doprnt.c: 159:         fput
      +                          s((const char *)buf, fp);
  9461   003FBE  C06E  F065         	movff	pad@buf,fputs@s
  9462   003FC2  C06F  F066         	movff	pad@buf+1,fputs@s+1
  9463   003FC6  C06C  F067         	movff	pad@fp,fputs@fp
  9464   003FCA  C06D  F068         	movff	pad@fp+1,fputs@fp+1
  9465   003FCE  EC1C  F023         	call	_fputs	;wreg free
  9466   003FD2                     l6516:
  9467                           
  9468                           ;C:\Program Files\Microchip\xc8\v2.41\pic\sources\c99\common\doprnt.c: 164:     w = (p <
      +                           0) ? 0 : p;
  9469   003FD2  0100               	movlb	0	; () banked
  9470   003FD4  BF71               	btfsc	(pad@p+1)& (0+255),7,b
  9471   003FD6  EFEF  F01F         	goto	u7301
  9472   003FDA  EFF1  F01F         	goto	u7300
  9473   003FDE                     u7301:
  9474   003FDE  EFF7  F01F         	goto	l6520
  9475   003FE2                     u7300:
  9476   003FE2                     
  9477                           ; BSR set to: 0
  9478   003FE2  C070  F074         	movff	pad@p,pad@w
  9479   003FE6  C071  F075         	movff	pad@p+1,pad@w+1
  9480   003FEA  EFFB  F01F         	goto	l1307
  9481   003FEE                     l6520:
  9482                           
  9483                           ; BSR set to: 0
  9484   003FEE  0E00               	movlw	0
  9485   003FF0  6F75               	movwf	(pad@w+1)& (0+255),b
  9486   003FF2  0E00               	movlw	0
  9487   003FF4  6F74               	movwf	pad@w& (0+255),b
  9488   003FF6                     l1307:
  9489                           
  9490                           ; BSR set to: 0
  9491                           ;C:\Program Files\Microchip\xc8\v2.41\pic\sources\c99\common\doprnt.c: 165:     i = 0;
  9492   003FF6  0E00               	movlw	0
  9493   003FF8  6F73               	movwf	(pad@i+1)& (0+255),b
  9494   003FFA  0E00               	movlw	0
  9495   003FFC  6F72               	movwf	pad@i& (0+255),b
  9496                           
  9497                           ;C:\Program Files\Microchip\xc8\v2.41\pic\sources\c99\common\doprnt.c: 166:     while (i
      +                           < w) {
  9498   003FFE  EF0E  F020         	goto	l6526
  9499   004002                     l6522:
  9500                           
  9501                           ; BSR set to: 0
  9502                           ;C:\Program Files\Microchip\xc8\v2.41\pic\sources\c99\common\doprnt.c: 167:         fput
      +                          c(' ', fp);
  9503   004002  0E00               	movlw	0
  9504   004004  6E20               	movwf	(fputc@c+1)^0,c
  9505   004006  0E20               	movlw	32
  9506   004008  6E1F               	movwf	fputc@c^0,c
  9507   00400A  C06C  F021         	movff	pad@fp,fputc@fp
  9508   00400E  C06D  F022         	movff	pad@fp+1,fputc@fp+1
  9509   004012  ECF6  F01D         	call	_fputc	;wreg free
  9510   004016                     
  9511                           ;C:\Program Files\Microchip\xc8\v2.41\pic\sources\c99\common\doprnt.c: 168:         ++i;
  9512   004016  0100               	movlb	0	; () banked
  9513   004018  4B72               	infsnz	pad@i& (0+255),f,b
  9514   00401A  2B73               	incf	(pad@i+1)& (0+255),f,b
  9515   00401C                     l6526:
  9516                           
  9517                           ; BSR set to: 0
  9518                           ;C:\Program Files\Microchip\xc8\v2.41\pic\sources\c99\common\doprnt.c: 166:     while (i
      +                           < w) {
  9519   00401C  5174               	movf	pad@w& (0+255),w,b
  9520   00401E  5D72               	subwf	pad@i& (0+255),w,b
  9521   004020  5173               	movf	(pad@i+1)& (0+255),w,b
  9522   004022  0A80               	xorlw	128
  9523   004024  6E23               	movwf	??_pad^0,c
  9524   004026  5175               	movf	(pad@w+1)& (0+255),w,b
  9525   004028  0A80               	xorlw	128
  9526   00402A  5823               	subwfb	??_pad^0,w,c
  9527   00402C  A0D8               	btfss	status,0,c
  9528   00402E  EF1B  F020         	goto	u7311
  9529   004032  EF1D  F020         	goto	u7310
  9530   004036                     u7311:
  9531   004036  EF01  F020         	goto	l6522
  9532   00403A                     u7310:
  9533   00403A                     
  9534                           ; BSR set to: 0
  9535                           ;C:\Program Files\Microchip\xc8\v2.41\pic\sources\c99\common\doprnt.c: 173:     if (!(fl
      +                          ags & (1 << 0))) {
  9536   00403A  B036               	btfsc	_flags^0,0,c
  9537   00403C  EF22  F020         	goto	u7321
  9538   004040  EF24  F020         	goto	u7320
  9539   004044                     u7321:
  9540   004044  EF2E  F020         	goto	l1312
  9541   004048                     u7320:
  9542   004048                     
  9543                           ; BSR set to: 0
  9544                           ;C:\Program Files\Microchip\xc8\v2.41\pic\sources\c99\common\doprnt.c: 175:         fput
      +                          s((const char *)buf, fp);
  9545   004048  C06E  F065         	movff	pad@buf,fputs@s
  9546   00404C  C06F  F066         	movff	pad@buf+1,fputs@s+1
  9547   004050  C06C  F067         	movff	pad@fp,fputs@fp
  9548   004054  C06D  F068         	movff	pad@fp+1,fputs@fp+1
  9549   004058  EC1C  F023         	call	_fputs	;wreg free
  9550   00405C                     l1312:
  9551   00405C  0012               	return		;funcret
  9552   00405E                     __end_of_pad:
  9553                           	callstack 0
  9554                           
  9555 ;; *************** function _fputs *****************
  9556 ;; Defined at:
  9557 ;;		line 8 in file "C:\Program Files\Microchip\xc8\v2.41\pic\sources\c99\common\nf_fputs.c"
  9558 ;; Parameters:    Size  Location     Type
  9559 ;;  s               2    5[BANK0 ] PTR const unsigned char 
  9560 ;;		 -> dbuf(80), 
  9561 ;;  fp              2    7[BANK0 ] PTR struct _IO_FILE
  9562 ;;		 -> sprintf@f(12), 
  9563 ;; Auto vars:     Size  Location     Type
  9564 ;;  i               2   10[BANK0 ] int 
  9565 ;;  c               1    9[BANK0 ] unsigned char 
  9566 ;; Return value:  Size  Location     Type
  9567 ;;                  2    5[BANK0 ] int 
  9568 ;; Registers used:
  9569 ;;		wreg, fsr1l, fsr1h, fsr2l, fsr2h, status,2, status,0, cstack
  9570 ;; Tracked objects:
  9571 ;;		On entry : 0/0
  9572 ;;		On exit  : 0/0
  9573 ;;		Unchanged: 0/0
  9574 ;; Data sizes:     COMRAM   BANK0   BANK1   BANK2   BANK3   BANK4   BANK5   BANK6   BANK7
  9575 ;;      Params:         0       4       0       0       0       0       0       0       0
  9576 ;;      Locals:         0       3       0       0       0       0       0       0       0
  9577 ;;      Temps:          0       0       0       0       0       0       0       0       0
  9578 ;;      Totals:         0       7       0       0       0       0       0       0       0
  9579 ;;Total ram usage:        7 bytes
  9580 ;; Hardware stack levels used: 1
  9581 ;; Hardware stack levels required when called: 6
  9582 ;; This function calls:
  9583 ;;		_fputc
  9584 ;; This function is called by:
  9585 ;;		_pad
  9586 ;; This function uses a non-reentrant model
  9587 ;;
  9588                           
  9589                           	psect	text25
  9590   004638                     __ptext25:
  9591                           	callstack 0
  9592   004638                     _fputs:
  9593                           	callstack 19
  9594   004638  0E00               	movlw	0
  9595   00463A  0100               	movlb	0	; () banked
  9596   00463C  6F6B               	movwf	(fputs@i+1)& (0+255),b
  9597   00463E  0E00               	movlw	0
  9598   004640  6F6A               	movwf	fputs@i& (0+255),b
  9599   004642  EF2F  F023         	goto	l6090
  9600   004646                     l6086:
  9601                           
  9602                           ; BSR set to: 0
  9603   004646  C069  F01F         	movff	fputs@c,fputc@c
  9604   00464A  6A20               	clrf	(fputc@c+1)^0,c
  9605   00464C  C067  F021         	movff	fputs@fp,fputc@fp
  9606   004650  C068  F022         	movff	fputs@fp+1,fputc@fp+1
  9607   004654  ECF6  F01D         	call	_fputc	;wreg free
  9608   004658  0100               	movlb	0	; () banked
  9609   00465A  4B6A               	infsnz	fputs@i& (0+255),f,b
  9610   00465C  2B6B               	incf	(fputs@i+1)& (0+255),f,b
  9611   00465E                     l6090:
  9612                           
  9613                           ; BSR set to: 0
  9614   00465E  516A               	movf	fputs@i& (0+255),w,b
  9615   004660  2565               	addwf	fputs@s& (0+255),w,b
  9616   004662  6ED9               	movwf	fsr2l,c
  9617   004664  516B               	movf	(fputs@i+1)& (0+255),w,b
  9618   004666  2166               	addwfc	(fputs@s+1)& (0+255),w,b
  9619   004668  6EDA               	movwf	fsr2h,c
  9620   00466A  50DF               	movf	indf2,w,c
  9621   00466C  6F69               	movwf	fputs@c& (0+255),b
  9622   00466E  5169               	movf	fputs@c& (0+255),w,b
  9623   004670  A4D8               	btfss	status,2,c
  9624   004672  EF3D  F023         	goto	u6631
  9625   004676  EF3F  F023         	goto	u6630
  9626   00467A                     u6631:
  9627   00467A  EF23  F023         	goto	l6086
  9628   00467E                     u6630:
  9629   00467E                     
  9630                           ; BSR set to: 0
  9631   00467E  0012               	return		;funcret
  9632   004680                     __end_of_fputs:
  9633                           	callstack 0
  9634                           
  9635 ;; *************** function _fputc *****************
  9636 ;; Defined at:
  9637 ;;		line 8 in file "C:\Program Files\Microchip\xc8\v2.41\pic\sources\c99\common\nf_fputc.c"
  9638 ;; Parameters:    Size  Location     Type
  9639 ;;  c               2   30[COMRAM] int 
  9640 ;;  fp              2   32[COMRAM] PTR struct _IO_FILE
  9641 ;;		 -> sprintf@f(12), 
  9642 ;; Auto vars:     Size  Location     Type
  9643 ;;		None
  9644 ;; Return value:  Size  Location     Type
  9645 ;;                  2   30[COMRAM] int 
  9646 ;; Registers used:
  9647 ;;		wreg, fsr1l, fsr1h, fsr2l, fsr2h, status,2, status,0, cstack
  9648 ;; Tracked objects:
  9649 ;;		On entry : 0/0
  9650 ;;		On exit  : 0/0
  9651 ;;		Unchanged: 0/0
  9652 ;; Data sizes:     COMRAM   BANK0   BANK1   BANK2   BANK3   BANK4   BANK5   BANK6   BANK7
  9653 ;;      Params:         4       0       0       0       0       0       0       0       0
  9654 ;;      Locals:         0       0       0       0       0       0       0       0       0
  9655 ;;      Temps:          0       5       0       0       0       0       0       0       0
  9656 ;;      Totals:         4       5       0       0       0       0       0       0       0
  9657 ;;Total ram usage:        9 bytes
  9658 ;; Hardware stack levels used: 1
  9659 ;; Hardware stack levels required when called: 5
  9660 ;; This function calls:
  9661 ;;		_putch
  9662 ;; This function is called by:
  9663 ;;		_pad
  9664 ;;		_vfpfcnvrt
  9665 ;;		_fputs
  9666 ;; This function uses a non-reentrant model
  9667 ;;
  9668                           
  9669                           	psect	text26
  9670   003BEC                     __ptext26:
  9671                           	callstack 0
  9672   003BEC                     _fputc:
  9673                           	callstack 19
  9674   003BEC  5021               	movf	fputc@fp^0,w,c
  9675   003BEE  1022               	iorwf	(fputc@fp+1)^0,w,c
  9676   003BF0  B4D8               	btfsc	status,2,c
  9677   003BF2  EFFD  F01D         	goto	u6201
  9678   003BF6  EFFF  F01D         	goto	u6200
  9679   003BFA                     u6201:
  9680   003BFA  EF08  F01E         	goto	l5872
  9681   003BFE                     u6200:
  9682   003BFE  5021               	movf	fputc@fp^0,w,c
  9683   003C00  1022               	iorwf	(fputc@fp+1)^0,w,c
  9684   003C02  A4D8               	btfss	status,2,c
  9685   003C04  EF06  F01E         	goto	u6211
  9686   003C08  EF08  F01E         	goto	u6210
  9687   003C0C                     u6211:
  9688   003C0C  EF0D  F01E         	goto	l5874
  9689   003C10                     u6210:
  9690   003C10                     l5872:
  9691   003C10  501F               	movf	fputc@c^0,w,c
  9692   003C12  EC70  F024         	call	_putch
  9693   003C16  EF5C  F01E         	goto	l1515
  9694   003C1A                     l5874:
  9695   003C1A  EE20 F00A          	lfsr	2,10
  9696   003C1E  5021               	movf	fputc@fp^0,w,c
  9697   003C20  26D9               	addwf	fsr2l,f,c
  9698   003C22  5022               	movf	(fputc@fp+1)^0,w,c
  9699   003C24  22DA               	addwfc	fsr2h,f,c
  9700   003C26  50DE               	movf	postinc2,w,c
  9701   003C28  10DE               	iorwf	postinc2,w,c
  9702   003C2A  B4D8               	btfsc	status,2,c
  9703   003C2C  EF1A  F01E         	goto	u6221
  9704   003C30  EF1C  F01E         	goto	u6220
  9705   003C34                     u6221:
  9706   003C34  EF38  F01E         	goto	l5878
  9707   003C38                     u6220:
  9708   003C38  EE20 F00A          	lfsr	2,10
  9709   003C3C  5021               	movf	fputc@fp^0,w,c
  9710   003C3E  26D9               	addwf	fsr2l,f,c
  9711   003C40  5022               	movf	(fputc@fp+1)^0,w,c
  9712   003C42  22DA               	addwfc	fsr2h,f,c
  9713   003C44  EE10 F003          	lfsr	1,3
  9714   003C48  5021               	movf	fputc@fp^0,w,c
  9715   003C4A  26E1               	addwf	fsr1l,f,c
  9716   003C4C  5022               	movf	(fputc@fp+1)^0,w,c
  9717   003C4E  22E2               	addwfc	fsr1h,f,c
  9718   003C50  50DE               	movf	postinc2,w,c
  9719   003C52  5CE6               	subwf	postinc1,w,c
  9720   003C54  50E6               	movf	postinc1,w,c
  9721   003C56  0A80               	xorlw	128
  9722   003C58  0100               	movlb	0	; () banked
  9723   003C5A  6F64               	movwf	(??_fputc+4)& (0+255),b
  9724   003C5C  50DE               	movf	postinc2,w,c
  9725   003C5E  0A80               	xorlw	128
  9726   003C60  5964               	subwfb	(??_fputc+4)& (0+255),w,b
  9727   003C62  B0D8               	btfsc	status,0,c
  9728   003C64  EF36  F01E         	goto	u6231
  9729   003C68  EF38  F01E         	goto	u6230
  9730   003C6C                     u6231:
  9731   003C6C  EF5C  F01E         	goto	l1515
  9732   003C70                     u6230:
  9733   003C70                     l5878:
  9734   003C70  EE20 F003          	lfsr	2,3
  9735   003C74  5021               	movf	fputc@fp^0,w,c
  9736   003C76  26D9               	addwf	fsr2l,f,c
  9737   003C78  5022               	movf	(fputc@fp+1)^0,w,c
  9738   003C7A  22DA               	addwfc	fsr2h,f,c
  9739   003C7C  CFDE F060          	movff	postinc2,??_fputc
  9740   003C80  CFDD F061          	movff	postdec2,??_fputc+1
  9741   003C84  C021  FFD9         	movff	fputc@fp,fsr2l
  9742   003C88  C022  FFDA         	movff	fputc@fp+1,fsr2h
  9743   003C8C  CFDE F062          	movff	postinc2,??_fputc+2
  9744   003C90  CFDD F063          	movff	postdec2,??_fputc+3
  9745   003C94  0100               	movlb	0	; () banked
  9746   003C96  5160               	movf	??_fputc& (0+255),w,b
  9747   003C98  2562               	addwf	(??_fputc+2)& (0+255),w,b
  9748   003C9A  6ED9               	movwf	fsr2l,c
  9749   003C9C  5161               	movf	(??_fputc+1)& (0+255),w,b
  9750   003C9E  2163               	addwfc	(??_fputc+3)& (0+255),w,b
  9751   003CA0  6EDA               	movwf	fsr2h,c
  9752   003CA2  C01F  FFDF         	movff	fputc@c,indf2
  9753   003CA6  EE20 F003          	lfsr	2,3
  9754   003CAA  5021               	movf	fputc@fp^0,w,c
  9755   003CAC  26D9               	addwf	fsr2l,f,c
  9756   003CAE  5022               	movf	(fputc@fp+1)^0,w,c
  9757   003CB0  22DA               	addwfc	fsr2h,f,c
  9758   003CB2  2ADE               	incf	postinc2,f,c
  9759   003CB4  0E00               	movlw	0
  9760   003CB6  22DD               	addwfc	postdec2,f,c
  9761   003CB8                     l1515:
  9762   003CB8  0012               	return		;funcret
  9763   003CBA                     __end_of_fputc:
  9764                           	callstack 0
  9765                           
  9766 ;; *************** function _putch *****************
  9767 ;; Defined at:
  9768 ;;		line 7 in file "C:\Program Files\Microchip\xc8\v2.41\pic\sources\c99\common\putch.c"
  9769 ;; Parameters:    Size  Location     Type
  9770 ;;  c               1    wreg     unsigned char 
  9771 ;; Auto vars:     Size  Location     Type
  9772 ;;  c               1    0[COMRAM] unsigned char 
  9773 ;; Return value:  Size  Location     Type
  9774 ;;                  1    wreg      void 
  9775 ;; Registers used:
  9776 ;;		wreg
  9777 ;; Tracked objects:
  9778 ;;		On entry : 0/0
  9779 ;;		On exit  : 0/0
  9780 ;;		Unchanged: 0/0
  9781 ;; Data sizes:     COMRAM   BANK0   BANK1   BANK2   BANK3   BANK4   BANK5   BANK6   BANK7
  9782 ;;      Params:         0       0       0       0       0       0       0       0       0
  9783 ;;      Locals:         0       0       0       0       0       0       0       0       0
  9784 ;;      Temps:          0       0       0       0       0       0       0       0       0
  9785 ;;      Totals:         0       0       0       0       0       0       0       0       0
  9786 ;;Total ram usage:        0 bytes
  9787 ;; Hardware stack levels used: 1
  9788 ;; Hardware stack levels required when called: 4
  9789 ;; This function calls:
  9790 ;;		Nothing
  9791 ;; This function is called by:
  9792 ;;		_fputc
  9793 ;; This function uses a non-reentrant model
  9794 ;;
  9795                           
  9796                           	psect	text27
  9797   0048E0                     __ptext27:
  9798                           	callstack 0
  9799   0048E0                     _putch:
  9800                           	callstack 19
  9801   0048E0  0012               	return		;funcret
  9802   0048E2                     __end_of_putch:
  9803                           	callstack 0
  9804                           
  9805 ;; *************** function _abs *****************
  9806 ;; Defined at:
  9807 ;;		line 1 in file "C:\Program Files\Microchip\xc8\v2.41\pic\sources\c99\common\abs.c"
  9808 ;; Parameters:    Size  Location     Type
  9809 ;;  a               2    2[BANK0 ] int 
  9810 ;; Auto vars:     Size  Location     Type
  9811 ;;		None
  9812 ;; Return value:  Size  Location     Type
  9813 ;;                  2    2[BANK0 ] int 
  9814 ;; Registers used:
  9815 ;;		wreg, status,2, status,0
  9816 ;; Tracked objects:
  9817 ;;		On entry : 0/0
  9818 ;;		On exit  : 0/0
  9819 ;;		Unchanged: 0/0
  9820 ;; Data sizes:     COMRAM   BANK0   BANK1   BANK2   BANK3   BANK4   BANK5   BANK6   BANK7
  9821 ;;      Params:         0       2       0       0       0       0       0       0       0
  9822 ;;      Locals:         0       0       0       0       0       0       0       0       0
  9823 ;;      Temps:          0       2       0       0       0       0       0       0       0
  9824 ;;      Totals:         0       4       0       0       0       0       0       0       0
  9825 ;;Total ram usage:        4 bytes
  9826 ;; Hardware stack levels used: 1
  9827 ;; Hardware stack levels required when called: 4
  9828 ;; This function calls:
  9829 ;;		Nothing
  9830 ;; This function is called by:
  9831 ;;		_dtoa
  9832 ;; This function uses a non-reentrant model
  9833 ;;
  9834                           
  9835                           	psect	text28
  9836   0046C2                     __ptext28:
  9837                           	callstack 0
  9838   0046C2                     _abs:
  9839                           	callstack 22
  9840   0046C2  0100               	movlb	0	; () banked
  9841   0046C4  BF63               	btfsc	(abs@a+1)& (0+255),7,b
  9842   0046C6  EF6F  F023         	goto	u7330
  9843   0046CA  5163               	movf	(abs@a+1)& (0+255),w,b
  9844   0046CC  E106               	bnz	u7331
  9845   0046CE  0562               	decf	abs@a& (0+255),w,b
  9846   0046D0  B0D8               	btfsc	status,0,c
  9847   0046D2  EF6D  F023         	goto	u7331
  9848   0046D6  EF6F  F023         	goto	u7330
  9849   0046DA                     u7331:
  9850   0046DA  EF7D  F023         	goto	l1474
  9851   0046DE                     u7330:
  9852   0046DE                     
  9853                           ; BSR set to: 0
  9854   0046DE  C062  F064         	movff	abs@a,??_abs
  9855   0046E2  C063  F065         	movff	abs@a+1,??_abs+1
  9856   0046E6  1F64               	comf	??_abs& (0+255),f,b
  9857   0046E8  1F65               	comf	(??_abs+1)& (0+255),f,b
  9858   0046EA  4B64               	infsnz	??_abs& (0+255),f,b
  9859   0046EC  2B65               	incf	(??_abs+1)& (0+255),f,b
  9860   0046EE  C064  F062         	movff	??_abs,?_abs
  9861   0046F2  C065  F063         	movff	??_abs+1,?_abs+1
  9862   0046F6  EF81  F023         	goto	l1477
  9863   0046FA                     l1474:
  9864                           
  9865                           ; BSR set to: 0
  9866   0046FA  C062  F062         	movff	abs@a,?_abs
  9867   0046FE  C063  F063         	movff	abs@a+1,?_abs+1
  9868   004702                     l1477:
  9869                           
  9870                           ; BSR set to: 0
  9871   004702  0012               	return		;funcret
  9872   004704                     __end_of_abs:
  9873                           	callstack 0
  9874                           
  9875 ;; *************** function ___awmod *****************
  9876 ;; Defined at:
  9877 ;;		line 7 in file "C:\Program Files\Microchip\xc8\v2.41\pic\sources\c99\common\awmod.c"
  9878 ;; Parameters:    Size  Location     Type
  9879 ;;  dividend        2   30[COMRAM] int 
  9880 ;;  divisor         2   32[COMRAM] int 
  9881 ;; Auto vars:     Size  Location     Type
  9882 ;;  sign            1    1[BANK0 ] unsigned char 
  9883 ;;  counter         1    0[BANK0 ] unsigned char 
  9884 ;; Return value:  Size  Location     Type
  9885 ;;                  2   30[COMRAM] int 
  9886 ;; Registers used:
  9887 ;;		wreg, status,2, status,0
  9888 ;; Tracked objects:
  9889 ;;		On entry : 0/0
  9890 ;;		On exit  : 0/0
  9891 ;;		Unchanged: 0/0
  9892 ;; Data sizes:     COMRAM   BANK0   BANK1   BANK2   BANK3   BANK4   BANK5   BANK6   BANK7
  9893 ;;      Params:         4       0       0       0       0       0       0       0       0
  9894 ;;      Locals:         0       2       0       0       0       0       0       0       0
  9895 ;;      Temps:          0       0       0       0       0       0       0       0       0
  9896 ;;      Totals:         4       2       0       0       0       0       0       0       0
  9897 ;;Total ram usage:        6 bytes
  9898 ;; Hardware stack levels used: 1
  9899 ;; Hardware stack levels required when called: 4
  9900 ;; This function calls:
  9901 ;;		Nothing
  9902 ;; This function is called by:
  9903 ;;		_dtoa
  9904 ;; This function uses a non-reentrant model
  9905 ;;
  9906                           
  9907                           	psect	text29
  9908   003EFE                     __ptext29:
  9909                           	callstack 0
  9910   003EFE                     ___awmod:
  9911                           	callstack 22
  9912   003EFE  0E00               	movlw	0
  9913   003F00  0100               	movlb	0	; () banked
  9914   003F02  6F61               	movwf	___awmod@sign& (0+255),b
  9915   003F04                     
  9916                           ; BSR set to: 0
  9917   003F04  BE20               	btfsc	(___awmod@dividend+1)^0,7,c
  9918   003F06  EF89  F01F         	goto	u7120
  9919   003F0A  EF87  F01F         	goto	u7121
  9920   003F0E                     u7121:
  9921   003F0E  EF8F  F01F         	goto	l6424
  9922   003F12                     u7120:
  9923   003F12                     
  9924                           ; BSR set to: 0
  9925   003F12  6C1F               	negf	___awmod@dividend^0,c
  9926   003F14  1E20               	comf	(___awmod@dividend+1)^0,f,c
  9927   003F16  B0D8               	btfsc	status,0,c
  9928   003F18  2A20               	incf	(___awmod@dividend+1)^0,f,c
  9929   003F1A                     
  9930                           ; BSR set to: 0
  9931   003F1A  0E01               	movlw	1
  9932   003F1C  6F61               	movwf	___awmod@sign& (0+255),b
  9933   003F1E                     l6424:
  9934                           
  9935                           ; BSR set to: 0
  9936   003F1E  BE22               	btfsc	(___awmod@divisor+1)^0,7,c
  9937   003F20  EF96  F01F         	goto	u7130
  9938   003F24  EF94  F01F         	goto	u7131
  9939   003F28                     u7131:
  9940   003F28  EF9A  F01F         	goto	l6428
  9941   003F2C                     u7130:
  9942   003F2C                     
  9943                           ; BSR set to: 0
  9944   003F2C  6C21               	negf	___awmod@divisor^0,c
  9945   003F2E  1E22               	comf	(___awmod@divisor+1)^0,f,c
  9946   003F30  B0D8               	btfsc	status,0,c
  9947   003F32  2A22               	incf	(___awmod@divisor+1)^0,f,c
  9948   003F34                     l6428:
  9949                           
  9950                           ; BSR set to: 0
  9951   003F34  5021               	movf	___awmod@divisor^0,w,c
  9952   003F36  1022               	iorwf	(___awmod@divisor+1)^0,w,c
  9953   003F38  B4D8               	btfsc	status,2,c
  9954   003F3A  EFA1  F01F         	goto	u7141
  9955   003F3E  EFA3  F01F         	goto	u7140
  9956   003F42                     u7141:
  9957   003F42  EFC7  F01F         	goto	l6444
  9958   003F46                     u7140:
  9959   003F46                     
  9960                           ; BSR set to: 0
  9961   003F46  0E01               	movlw	1
  9962   003F48  6F60               	movwf	___awmod@counter& (0+255),b
  9963   003F4A  EFAB  F01F         	goto	l6434
  9964   003F4E                     l6432:
  9965                           
  9966                           ; BSR set to: 0
  9967   003F4E  90D8               	bcf	status,0,c
  9968   003F50  3621               	rlcf	___awmod@divisor^0,f,c
  9969   003F52  3622               	rlcf	(___awmod@divisor+1)^0,f,c
  9970   003F54  2B60               	incf	___awmod@counter& (0+255),f,b
  9971   003F56                     l6434:
  9972                           
  9973                           ; BSR set to: 0
  9974   003F56  AE22               	btfss	(___awmod@divisor+1)^0,7,c
  9975   003F58  EFB0  F01F         	goto	u7151
  9976   003F5C  EFB2  F01F         	goto	u7150
  9977   003F60                     u7151:
  9978   003F60  EFA7  F01F         	goto	l6432
  9979   003F64                     u7150:
  9980   003F64                     l6436:
  9981                           
  9982                           ; BSR set to: 0
  9983   003F64  5021               	movf	___awmod@divisor^0,w,c
  9984   003F66  5C1F               	subwf	___awmod@dividend^0,w,c
  9985   003F68  5022               	movf	(___awmod@divisor+1)^0,w,c
  9986   003F6A  5820               	subwfb	(___awmod@dividend+1)^0,w,c
  9987   003F6C  A0D8               	btfss	status,0,c
  9988   003F6E  EFBB  F01F         	goto	u7161
  9989   003F72  EFBD  F01F         	goto	u7160
  9990   003F76                     u7161:
  9991   003F76  EFC1  F01F         	goto	l6440
  9992   003F7A                     u7160:
  9993   003F7A                     
  9994                           ; BSR set to: 0
  9995   003F7A  5021               	movf	___awmod@divisor^0,w,c
  9996   003F7C  5E1F               	subwf	___awmod@dividend^0,f,c
  9997   003F7E  5022               	movf	(___awmod@divisor+1)^0,w,c
  9998   003F80  5A20               	subwfb	(___awmod@dividend+1)^0,f,c
  9999   003F82                     l6440:
 10000                           
 10001                           ; BSR set to: 0
 10002   003F82  90D8               	bcf	status,0,c
 10003   003F84  3222               	rrcf	(___awmod@divisor+1)^0,f,c
 10004   003F86  3221               	rrcf	___awmod@divisor^0,f,c
 10005   003F88                     
 10006                           ; BSR set to: 0
 10007   003F88  2F60               	decfsz	___awmod@counter& (0+255),f,b
 10008   003F8A  EFB2  F01F         	goto	l6436
 10009   003F8E                     l6444:
 10010                           
 10011                           ; BSR set to: 0
 10012   003F8E  5161               	movf	___awmod@sign& (0+255),w,b
 10013   003F90  B4D8               	btfsc	status,2,c
 10014   003F92  EFCD  F01F         	goto	u7171
 10015   003F96  EFCF  F01F         	goto	u7170
 10016   003F9A                     u7171:
 10017   003F9A  EFD3  F01F         	goto	l6448
 10018   003F9E                     u7170:
 10019   003F9E                     
 10020                           ; BSR set to: 0
 10021   003F9E  6C1F               	negf	___awmod@dividend^0,c
 10022   003FA0  1E20               	comf	(___awmod@dividend+1)^0,f,c
 10023   003FA2  B0D8               	btfsc	status,0,c
 10024   003FA4  2A20               	incf	(___awmod@dividend+1)^0,f,c
 10025   003FA6                     l6448:
 10026                           
 10027                           ; BSR set to: 0
 10028   003FA6  C01F  F01F         	movff	___awmod@dividend,?___awmod
 10029   003FAA  C020  F020         	movff	___awmod@dividend+1,?___awmod+1
 10030   003FAE                     
 10031                           ; BSR set to: 0
 10032   003FAE  0012               	return		;funcret
 10033   003FB0                     __end_of___awmod:
 10034                           	callstack 0
 10035                           
 10036 ;; *************** function ___awdiv *****************
 10037 ;; Defined at:
 10038 ;;		line 7 in file "C:\Program Files\Microchip\xc8\v2.41\pic\sources\c99\common\awdiv.c"
 10039 ;; Parameters:    Size  Location     Type
 10040 ;;  dividend        2   30[COMRAM] int 
 10041 ;;  divisor         2   32[COMRAM] int 
 10042 ;; Auto vars:     Size  Location     Type
 10043 ;;  quotient        2    2[BANK0 ] int 
 10044 ;;  sign            1    1[BANK0 ] unsigned char 
 10045 ;;  counter         1    0[BANK0 ] unsigned char 
 10046 ;; Return value:  Size  Location     Type
 10047 ;;                  2   30[COMRAM] int 
 10048 ;; Registers used:
 10049 ;;		wreg, status,2, status,0
 10050 ;; Tracked objects:
 10051 ;;		On entry : 0/0
 10052 ;;		On exit  : 0/0
 10053 ;;		Unchanged: 0/0
 10054 ;; Data sizes:     COMRAM   BANK0   BANK1   BANK2   BANK3   BANK4   BANK5   BANK6   BANK7
 10055 ;;      Params:         4       0       0       0       0       0       0       0       0
 10056 ;;      Locals:         0       4       0       0       0       0       0       0       0
 10057 ;;      Temps:          0       0       0       0       0       0       0       0       0
 10058 ;;      Totals:         4       4       0       0       0       0       0       0       0
 10059 ;;Total ram usage:        8 bytes
 10060 ;; Hardware stack levels used: 1
 10061 ;; Hardware stack levels required when called: 4
 10062 ;; This function calls:
 10063 ;;		Nothing
 10064 ;; This function is called by:
 10065 ;;		_dtoa
 10066 ;; This function uses a non-reentrant model
 10067 ;;
 10068                           
 10069                           	psect	text30
 10070   003D84                     __ptext30:
 10071                           	callstack 0
 10072   003D84                     ___awdiv:
 10073                           	callstack 22
 10074   003D84  0E00               	movlw	0
 10075   003D86  0100               	movlb	0	; () banked
 10076   003D88  6F61               	movwf	___awdiv@sign& (0+255),b
 10077   003D8A                     
 10078                           ; BSR set to: 0
 10079   003D8A  BE22               	btfsc	(___awdiv@divisor+1)^0,7,c
 10080   003D8C  EFCC  F01E         	goto	u7060
 10081   003D90  EFCA  F01E         	goto	u7061
 10082   003D94                     u7061:
 10083   003D94  EFD2  F01E         	goto	l6380
 10084   003D98                     u7060:
 10085   003D98                     
 10086                           ; BSR set to: 0
 10087   003D98  6C21               	negf	___awdiv@divisor^0,c
 10088   003D9A  1E22               	comf	(___awdiv@divisor+1)^0,f,c
 10089   003D9C  B0D8               	btfsc	status,0,c
 10090   003D9E  2A22               	incf	(___awdiv@divisor+1)^0,f,c
 10091   003DA0                     
 10092                           ; BSR set to: 0
 10093   003DA0  0E01               	movlw	1
 10094   003DA2  6F61               	movwf	___awdiv@sign& (0+255),b
 10095   003DA4                     l6380:
 10096                           
 10097                           ; BSR set to: 0
 10098   003DA4  BE20               	btfsc	(___awdiv@dividend+1)^0,7,c
 10099   003DA6  EFD9  F01E         	goto	u7070
 10100   003DAA  EFD7  F01E         	goto	u7071
 10101   003DAE                     u7071:
 10102   003DAE  EFDF  F01E         	goto	l6386
 10103   003DB2                     u7070:
 10104   003DB2                     
 10105                           ; BSR set to: 0
 10106   003DB2  6C1F               	negf	___awdiv@dividend^0,c
 10107   003DB4  1E20               	comf	(___awdiv@dividend+1)^0,f,c
 10108   003DB6  B0D8               	btfsc	status,0,c
 10109   003DB8  2A20               	incf	(___awdiv@dividend+1)^0,f,c
 10110   003DBA                     
 10111                           ; BSR set to: 0
 10112   003DBA  0E01               	movlw	1
 10113   003DBC  1B61               	xorwf	___awdiv@sign& (0+255),f,b
 10114   003DBE                     l6386:
 10115                           
 10116                           ; BSR set to: 0
 10117   003DBE  0E00               	movlw	0
 10118   003DC0  6F63               	movwf	(___awdiv@quotient+1)& (0+255),b
 10119   003DC2  0E00               	movlw	0
 10120   003DC4  6F62               	movwf	___awdiv@quotient& (0+255),b
 10121   003DC6                     
 10122                           ; BSR set to: 0
 10123   003DC6  5021               	movf	___awdiv@divisor^0,w,c
 10124   003DC8  1022               	iorwf	(___awdiv@divisor+1)^0,w,c
 10125   003DCA  B4D8               	btfsc	status,2,c
 10126   003DCC  EFEA  F01E         	goto	u7081
 10127   003DD0  EFEC  F01E         	goto	u7080
 10128   003DD4                     u7081:
 10129   003DD4  EF14  F01F         	goto	l6408
 10130   003DD8                     u7080:
 10131   003DD8                     
 10132                           ; BSR set to: 0
 10133   003DD8  0E01               	movlw	1
 10134   003DDA  6F60               	movwf	___awdiv@counter& (0+255),b
 10135   003DDC  EFF4  F01E         	goto	l6394
 10136   003DE0                     l6392:
 10137                           
 10138                           ; BSR set to: 0
 10139   003DE0  90D8               	bcf	status,0,c
 10140   003DE2  3621               	rlcf	___awdiv@divisor^0,f,c
 10141   003DE4  3622               	rlcf	(___awdiv@divisor+1)^0,f,c
 10142   003DE6  2B60               	incf	___awdiv@counter& (0+255),f,b
 10143   003DE8                     l6394:
 10144                           
 10145                           ; BSR set to: 0
 10146   003DE8  AE22               	btfss	(___awdiv@divisor+1)^0,7,c
 10147   003DEA  EFF9  F01E         	goto	u7091
 10148   003DEE  EFFB  F01E         	goto	u7090
 10149   003DF2                     u7091:
 10150   003DF2  EFF0  F01E         	goto	l6392
 10151   003DF6                     u7090:
 10152   003DF6                     l6396:
 10153                           
 10154                           ; BSR set to: 0
 10155   003DF6  90D8               	bcf	status,0,c
 10156   003DF8  3762               	rlcf	___awdiv@quotient& (0+255),f,b
 10157   003DFA  3763               	rlcf	(___awdiv@quotient+1)& (0+255),f,b
 10158   003DFC                     
 10159                           ; BSR set to: 0
 10160   003DFC  5021               	movf	___awdiv@divisor^0,w,c
 10161   003DFE  5C1F               	subwf	___awdiv@dividend^0,w,c
 10162   003E00  5022               	movf	(___awdiv@divisor+1)^0,w,c
 10163   003E02  5820               	subwfb	(___awdiv@dividend+1)^0,w,c
 10164   003E04  A0D8               	btfss	status,0,c
 10165   003E06  EF07  F01F         	goto	u7101
 10166   003E0A  EF09  F01F         	goto	u7100
 10167   003E0E                     u7101:
 10168   003E0E  EF0E  F01F         	goto	l6404
 10169   003E12                     u7100:
 10170   003E12                     
 10171                           ; BSR set to: 0
 10172   003E12  5021               	movf	___awdiv@divisor^0,w,c
 10173   003E14  5E1F               	subwf	___awdiv@dividend^0,f,c
 10174   003E16  5022               	movf	(___awdiv@divisor+1)^0,w,c
 10175   003E18  5A20               	subwfb	(___awdiv@dividend+1)^0,f,c
 10176   003E1A                     
 10177                           ; BSR set to: 0
 10178   003E1A  8162               	bsf	___awdiv@quotient& (0+255),0,b
 10179   003E1C                     l6404:
 10180                           
 10181                           ; BSR set to: 0
 10182   003E1C  90D8               	bcf	status,0,c
 10183   003E1E  3222               	rrcf	(___awdiv@divisor+1)^0,f,c
 10184   003E20  3221               	rrcf	___awdiv@divisor^0,f,c
 10185   003E22                     
 10186                           ; BSR set to: 0
 10187   003E22  2F60               	decfsz	___awdiv@counter& (0+255),f,b
 10188   003E24  EFFB  F01E         	goto	l6396
 10189   003E28                     l6408:
 10190                           
 10191                           ; BSR set to: 0
 10192   003E28  5161               	movf	___awdiv@sign& (0+255),w,b
 10193   003E2A  B4D8               	btfsc	status,2,c
 10194   003E2C  EF1A  F01F         	goto	u7111
 10195   003E30  EF1C  F01F         	goto	u7110
 10196   003E34                     u7111:
 10197   003E34  EF20  F01F         	goto	l6412
 10198   003E38                     u7110:
 10199   003E38                     
 10200                           ; BSR set to: 0
 10201   003E38  6D62               	negf	___awdiv@quotient& (0+255),b
 10202   003E3A  1F63               	comf	(___awdiv@quotient+1)& (0+255),f,b
 10203   003E3C  B0D8               	btfsc	status,0,c
 10204   003E3E  2B63               	incf	(___awdiv@quotient+1)& (0+255),f,b
 10205   003E40                     l6412:
 10206                           
 10207                           ; BSR set to: 0
 10208   003E40  C062  F01F         	movff	___awdiv@quotient,?___awdiv
 10209   003E44  C063  F020         	movff	___awdiv@quotient+1,?___awdiv+1
 10210   003E48                     
 10211                           ; BSR set to: 0
 10212   003E48  0012               	return		;funcret
 10213   003E4A                     __end_of___awdiv:
 10214                           	callstack 0
 10215                           
 10216 ;; *************** function ___xxtofl *****************
 10217 ;; Defined at:
 10218 ;;		line 10 in file "C:\Program Files\Microchip\xc8\v2.41\pic\sources\c99\common\xxtofl.c"
 10219 ;; Parameters:    Size  Location     Type
 10220 ;;  sign            1    wreg     unsigned char 
 10221 ;;  val             4   30[COMRAM] long 
 10222 ;; Auto vars:     Size  Location     Type
 10223 ;;  sign            1    4[BANK0 ] unsigned char 
 10224 ;;  arg             4    6[BANK0 ] unsigned long 
 10225 ;;  exp             1    5[BANK0 ] unsigned char 
 10226 ;; Return value:  Size  Location     Type
 10227 ;;                  4   30[COMRAM] unsigned char 
 10228 ;; Registers used:
 10229 ;;		wreg, status,2, status,0
 10230 ;; Tracked objects:
 10231 ;;		On entry : 0/0
 10232 ;;		On exit  : 0/0
 10233 ;;		Unchanged: 0/0
 10234 ;; Data sizes:     COMRAM   BANK0   BANK1   BANK2   BANK3   BANK4   BANK5   BANK6   BANK7
 10235 ;;      Params:         4       0       0       0       0       0       0       0       0
 10236 ;;      Locals:         0       6       0       0       0       0       0       0       0
 10237 ;;      Temps:          0       4       0       0       0       0       0       0       0
 10238 ;;      Totals:         4      10       0       0       0       0       0       0       0
 10239 ;;Total ram usage:       14 bytes
 10240 ;; Hardware stack levels used: 1
 10241 ;; Hardware stack levels required when called: 4
 10242 ;; This function calls:
 10243 ;;		Nothing
 10244 ;; This function is called by:
 10245 ;;		_main
 10246 ;; This function uses a non-reentrant model
 10247 ;;
 10248                           
 10249                           	psect	text31
 10250   003410                     __ptext31:
 10251                           	callstack 0
 10252   003410                     ___xxtofl:
 10253                           	callstack 26
 10254                           
 10255                           ; BSR set to: 0
 10256                           ;incstack = 0
 10257                           ;___xxtofl@sign stored from wreg
 10258   003410  0100               	movlb	0	; () banked
 10259   003412  6F64               	movwf	___xxtofl@sign& (0+255),b
 10260   003414  0100               	movlb	0	; () banked
 10261   003416  5164               	movf	___xxtofl@sign& (0+255),w,b
 10262   003418  B4D8               	btfsc	status,2,c
 10263   00341A  EF11  F01A         	goto	u8131
 10264   00341E  EF13  F01A         	goto	u8130
 10265   003422                     u8131:
 10266   003422  EF35  F01A         	goto	l1251
 10267   003426                     u8130:
 10268   003426                     
 10269                           ; BSR set to: 0
 10270   003426  BE22               	btfsc	(___xxtofl@val+3)^0,7,c
 10271   003428  EF1A  F01A         	goto	u8140
 10272   00342C  EF18  F01A         	goto	u8141
 10273   003430                     u8141:
 10274   003430  EF35  F01A         	goto	l1251
 10275   003434                     u8140:
 10276   003434                     
 10277                           ; BSR set to: 0
 10278   003434  C01F  F060         	movff	___xxtofl@val,??___xxtofl
 10279   003438  C020  F061         	movff	___xxtofl@val+1,??___xxtofl+1
 10280   00343C  C021  F062         	movff	___xxtofl@val+2,??___xxtofl+2
 10281   003440  C022  F063         	movff	___xxtofl@val+3,??___xxtofl+3
 10282   003444  1F60               	comf	??___xxtofl& (0+255),f,b
 10283   003446  1F61               	comf	(??___xxtofl+1)& (0+255),f,b
 10284   003448  1F62               	comf	(??___xxtofl+2)& (0+255),f,b
 10285   00344A  1F63               	comf	(??___xxtofl+3)& (0+255),f,b
 10286   00344C  2B60               	incf	??___xxtofl& (0+255),f,b
 10287   00344E  0E00               	movlw	0
 10288   003450  2361               	addwfc	(??___xxtofl+1)& (0+255),f,b
 10289   003452  2362               	addwfc	(??___xxtofl+2)& (0+255),f,b
 10290   003454  2363               	addwfc	(??___xxtofl+3)& (0+255),f,b
 10291   003456  C060  F066         	movff	??___xxtofl,___xxtofl@arg
 10292   00345A  C061  F067         	movff	??___xxtofl+1,___xxtofl@arg+1
 10293   00345E  C062  F068         	movff	??___xxtofl+2,___xxtofl@arg+2
 10294   003462  C063  F069         	movff	??___xxtofl+3,___xxtofl@arg+3
 10295   003466  EF3D  F01A         	goto	l7122
 10296   00346A                     l1251:
 10297                           
 10298                           ; BSR set to: 0
 10299   00346A  C01F  F066         	movff	___xxtofl@val,___xxtofl@arg
 10300   00346E  C020  F067         	movff	___xxtofl@val+1,___xxtofl@arg+1
 10301   003472  C021  F068         	movff	___xxtofl@val+2,___xxtofl@arg+2
 10302   003476  C022  F069         	movff	___xxtofl@val+3,___xxtofl@arg+3
 10303   00347A                     l7122:
 10304                           
 10305                           ; BSR set to: 0
 10306   00347A  501F               	movf	___xxtofl@val^0,w,c
 10307   00347C  1020               	iorwf	(___xxtofl@val+1)^0,w,c
 10308   00347E  1021               	iorwf	(___xxtofl@val+2)^0,w,c
 10309   003480  1022               	iorwf	(___xxtofl@val+3)^0,w,c
 10310   003482  A4D8               	btfss	status,2,c
 10311   003484  EF46  F01A         	goto	u8151
 10312   003488  EF48  F01A         	goto	u8150
 10313   00348C                     u8151:
 10314   00348C  EF52  F01A         	goto	l7128
 10315   003490                     u8150:
 10316   003490                     
 10317                           ; BSR set to: 0
 10318   003490  0E00               	movlw	0
 10319   003492  6E1F               	movwf	?___xxtofl^0,c
 10320   003494  0E00               	movlw	0
 10321   003496  6E20               	movwf	(?___xxtofl+1)^0,c
 10322   003498  0E00               	movlw	0
 10323   00349A  6E21               	movwf	(?___xxtofl+2)^0,c
 10324   00349C  0E00               	movlw	0
 10325   00349E  6E22               	movwf	(?___xxtofl+3)^0,c
 10326   0034A0  EFE3  F01A         	goto	l1254
 10327   0034A4                     l7128:
 10328                           
 10329                           ; BSR set to: 0
 10330   0034A4  0E96               	movlw	150
 10331   0034A6  6F65               	movwf	___xxtofl@exp& (0+255),b
 10332   0034A8  EF5C  F01A         	goto	l7132
 10333   0034AC                     l7130:
 10334                           
 10335                           ; BSR set to: 0
 10336   0034AC  2B65               	incf	___xxtofl@exp& (0+255),f,b
 10337   0034AE  90D8               	bcf	status,0,c
 10338   0034B0  3369               	rrcf	(___xxtofl@arg+3)& (0+255),f,b
 10339   0034B2  3368               	rrcf	(___xxtofl@arg+2)& (0+255),f,b
 10340   0034B4  3367               	rrcf	(___xxtofl@arg+1)& (0+255),f,b
 10341   0034B6  3366               	rrcf	___xxtofl@arg& (0+255),f,b
 10342   0034B8                     l7132:
 10343                           
 10344                           ; BSR set to: 0
 10345   0034B8  0E00               	movlw	0
 10346   0034BA  1566               	andwf	___xxtofl@arg& (0+255),w,b
 10347   0034BC  6F60               	movwf	??___xxtofl& (0+255),b
 10348   0034BE  0E00               	movlw	0
 10349   0034C0  1567               	andwf	(___xxtofl@arg+1)& (0+255),w,b
 10350   0034C2  6F61               	movwf	(??___xxtofl+1)& (0+255),b
 10351   0034C4  0E00               	movlw	0
 10352   0034C6  1568               	andwf	(___xxtofl@arg+2)& (0+255),w,b
 10353   0034C8  6F62               	movwf	(??___xxtofl+2)& (0+255),b
 10354   0034CA  0EFE               	movlw	254
 10355   0034CC  1569               	andwf	(___xxtofl@arg+3)& (0+255),w,b
 10356   0034CE  6F63               	movwf	(??___xxtofl+3)& (0+255),b
 10357   0034D0  5160               	movf	??___xxtofl& (0+255),w,b
 10358   0034D2  1161               	iorwf	(??___xxtofl+1)& (0+255),w,b
 10359   0034D4  1162               	iorwf	(??___xxtofl+2)& (0+255),w,b
 10360   0034D6  1163               	iorwf	(??___xxtofl+3)& (0+255),w,b
 10361   0034D8  A4D8               	btfss	status,2,c
 10362   0034DA  EF71  F01A         	goto	u8161
 10363   0034DE  EF73  F01A         	goto	u8160
 10364   0034E2                     u8161:
 10365   0034E2  EF56  F01A         	goto	l7130
 10366   0034E6                     u8160:
 10367   0034E6  EF81  F01A         	goto	l1258
 10368   0034EA                     l7134:
 10369                           
 10370                           ; BSR set to: 0
 10371   0034EA  2B65               	incf	___xxtofl@exp& (0+255),f,b
 10372   0034EC                     
 10373                           ; BSR set to: 0
 10374   0034EC  0E01               	movlw	1
 10375   0034EE  2766               	addwf	___xxtofl@arg& (0+255),f,b
 10376   0034F0  0E00               	movlw	0
 10377   0034F2  2367               	addwfc	(___xxtofl@arg+1)& (0+255),f,b
 10378   0034F4  2368               	addwfc	(___xxtofl@arg+2)& (0+255),f,b
 10379   0034F6  2369               	addwfc	(___xxtofl@arg+3)& (0+255),f,b
 10380   0034F8                     
 10381                           ; BSR set to: 0
 10382   0034F8  90D8               	bcf	status,0,c
 10383   0034FA  3369               	rrcf	(___xxtofl@arg+3)& (0+255),f,b
 10384   0034FC  3368               	rrcf	(___xxtofl@arg+2)& (0+255),f,b
 10385   0034FE  3367               	rrcf	(___xxtofl@arg+1)& (0+255),f,b
 10386   003500  3366               	rrcf	___xxtofl@arg& (0+255),f,b
 10387   003502                     l1258:
 10388                           
 10389                           ; BSR set to: 0
 10390   003502  0E00               	movlw	0
 10391   003504  1566               	andwf	___xxtofl@arg& (0+255),w,b
 10392   003506  6F60               	movwf	??___xxtofl& (0+255),b
 10393   003508  0E00               	movlw	0
 10394   00350A  1567               	andwf	(___xxtofl@arg+1)& (0+255),w,b
 10395   00350C  6F61               	movwf	(??___xxtofl+1)& (0+255),b
 10396   00350E  0E00               	movlw	0
 10397   003510  1568               	andwf	(___xxtofl@arg+2)& (0+255),w,b
 10398   003512  6F62               	movwf	(??___xxtofl+2)& (0+255),b
 10399   003514  0EFF               	movlw	255
 10400   003516  1569               	andwf	(___xxtofl@arg+3)& (0+255),w,b
 10401   003518  6F63               	movwf	(??___xxtofl+3)& (0+255),b
 10402   00351A  5160               	movf	??___xxtofl& (0+255),w,b
 10403   00351C  1161               	iorwf	(??___xxtofl+1)& (0+255),w,b
 10404   00351E  1162               	iorwf	(??___xxtofl+2)& (0+255),w,b
 10405   003520  1163               	iorwf	(??___xxtofl+3)& (0+255),w,b
 10406   003522  A4D8               	btfss	status,2,c
 10407   003524  EF96  F01A         	goto	u8171
 10408   003528  EF98  F01A         	goto	u8170
 10409   00352C                     u8171:
 10410   00352C  EF75  F01A         	goto	l7134
 10411   003530                     u8170:
 10412   003530  EFA0  F01A         	goto	l7142
 10413   003534                     l7140:
 10414                           
 10415                           ; BSR set to: 0
 10416   003534  0765               	decf	___xxtofl@exp& (0+255),f,b
 10417   003536  90D8               	bcf	status,0,c
 10418   003538  3766               	rlcf	___xxtofl@arg& (0+255),f,b
 10419   00353A  3767               	rlcf	(___xxtofl@arg+1)& (0+255),f,b
 10420   00353C  3768               	rlcf	(___xxtofl@arg+2)& (0+255),f,b
 10421   00353E  3769               	rlcf	(___xxtofl@arg+3)& (0+255),f,b
 10422   003540                     l7142:
 10423                           
 10424                           ; BSR set to: 0
 10425   003540  BF68               	btfsc	(___xxtofl@arg+2)& (0+255),7,b
 10426   003542  EFA5  F01A         	goto	u8181
 10427   003546  EFA7  F01A         	goto	u8180
 10428   00354A                     u8181:
 10429   00354A  EFAF  F01A         	goto	l1265
 10430   00354E                     u8180:
 10431   00354E                     
 10432                           ; BSR set to: 0
 10433   00354E  0E02               	movlw	2
 10434   003550  6165               	cpfslt	___xxtofl@exp& (0+255),b
 10435   003552  EFAD  F01A         	goto	u8191
 10436   003556  EFAF  F01A         	goto	u8190
 10437   00355A                     u8191:
 10438   00355A  EF9A  F01A         	goto	l7140
 10439   00355E                     u8190:
 10440   00355E                     l1265:
 10441                           
 10442                           ; BSR set to: 0
 10443   00355E  B165               	btfsc	___xxtofl@exp& (0+255),0,b
 10444   003560  EFB4  F01A         	goto	u8201
 10445   003564  EFB6  F01A         	goto	u8200
 10446   003568                     u8201:
 10447   003568  EFB7  F01A         	goto	l7148
 10448   00356C                     u8200:
 10449   00356C                     
 10450                           ; BSR set to: 0
 10451   00356C  9F68               	bcf	(___xxtofl@arg+2)& (0+255),7,b
 10452   00356E                     l7148:
 10453                           
 10454                           ; BSR set to: 0
 10455   00356E  90D8               	bcf	status,0,c
 10456   003570  3365               	rrcf	___xxtofl@exp& (0+255),f,b
 10457   003572                     
 10458                           ; BSR set to: 0
 10459   003572  C065  F060         	movff	___xxtofl@exp,??___xxtofl
 10460   003576  6B61               	clrf	(??___xxtofl+1)& (0+255),b
 10461   003578  6B62               	clrf	(??___xxtofl+2)& (0+255),b
 10462   00357A  6B63               	clrf	(??___xxtofl+3)& (0+255),b
 10463   00357C  C060  F063         	movff	??___xxtofl,??___xxtofl+3
 10464   003580  6B62               	clrf	(??___xxtofl+2)& (0+255),b
 10465   003582  6B61               	clrf	(??___xxtofl+1)& (0+255),b
 10466   003584  6B60               	clrf	??___xxtofl& (0+255),b
 10467   003586  5160               	movf	??___xxtofl& (0+255),w,b
 10468   003588  1366               	iorwf	___xxtofl@arg& (0+255),f,b
 10469   00358A  5161               	movf	(??___xxtofl+1)& (0+255),w,b
 10470   00358C  1367               	iorwf	(___xxtofl@arg+1)& (0+255),f,b
 10471   00358E  5162               	movf	(??___xxtofl+2)& (0+255),w,b
 10472   003590  1368               	iorwf	(___xxtofl@arg+2)& (0+255),f,b
 10473   003592  5163               	movf	(??___xxtofl+3)& (0+255),w,b
 10474   003594  1369               	iorwf	(___xxtofl@arg+3)& (0+255),f,b
 10475   003596                     
 10476                           ; BSR set to: 0
 10477   003596  5164               	movf	___xxtofl@sign& (0+255),w,b
 10478   003598  B4D8               	btfsc	status,2,c
 10479   00359A  EFD1  F01A         	goto	u8211
 10480   00359E  EFD3  F01A         	goto	u8210
 10481   0035A2                     u8211:
 10482   0035A2  EFDB  F01A         	goto	l7158
 10483   0035A6                     u8210:
 10484   0035A6                     
 10485                           ; BSR set to: 0
 10486   0035A6  BE22               	btfsc	(___xxtofl@val+3)^0,7,c
 10487   0035A8  EFDA  F01A         	goto	u8220
 10488   0035AC  EFD8  F01A         	goto	u8221
 10489   0035B0                     u8221:
 10490   0035B0  EFDB  F01A         	goto	l7158
 10491   0035B4                     u8220:
 10492   0035B4                     
 10493                           ; BSR set to: 0
 10494   0035B4  8F69               	bsf	(___xxtofl@arg+3)& (0+255),7,b
 10495   0035B6                     l7158:
 10496                           
 10497                           ; BSR set to: 0
 10498   0035B6  C066  F01F         	movff	___xxtofl@arg,?___xxtofl
 10499   0035BA  C067  F020         	movff	___xxtofl@arg+1,?___xxtofl+1
 10500   0035BE  C068  F021         	movff	___xxtofl@arg+2,?___xxtofl+2
 10501   0035C2  C069  F022         	movff	___xxtofl@arg+3,?___xxtofl+3
 10502   0035C6                     l1254:
 10503                           
 10504                           ; BSR set to: 0
 10505   0035C6  0012               	return		;funcret
 10506   0035C8                     __end_of___xxtofl:
 10507                           	callstack 0
 10508                           
 10509 ;; *************** function ___lldiv *****************
 10510 ;; Defined at:
 10511 ;;		line 7 in file "C:\Program Files\Microchip\xc8\v2.41\pic\sources\c99\common\__lldiv.c"
 10512 ;; Parameters:    Size  Location     Type
 10513 ;;  dividend        4    0[BANK0 ] unsigned long 
 10514 ;;  divisor         4    4[BANK0 ] unsigned long 
 10515 ;; Auto vars:     Size  Location     Type
 10516 ;;  quotient        4   30[COMRAM] unsigned long 
 10517 ;;  counter         1   34[COMRAM] unsigned char 
 10518 ;; Return value:  Size  Location     Type
 10519 ;;                  4    0[BANK0 ] unsigned long 
 10520 ;; Registers used:
 10521 ;;		wreg, status,2, status,0
 10522 ;; Tracked objects:
 10523 ;;		On entry : 0/0
 10524 ;;		On exit  : 0/0
 10525 ;;		Unchanged: 0/0
 10526 ;; Data sizes:     COMRAM   BANK0   BANK1   BANK2   BANK3   BANK4   BANK5   BANK6   BANK7
 10527 ;;      Params:         0       8       0       0       0       0       0       0       0
 10528 ;;      Locals:         5       0       0       0       0       0       0       0       0
 10529 ;;      Temps:          0       0       0       0       0       0       0       0       0
 10530 ;;      Totals:         5       8       0       0       0       0       0       0       0
 10531 ;;Total ram usage:       13 bytes
 10532 ;; Hardware stack levels used: 1
 10533 ;; Hardware stack levels required when called: 4
 10534 ;; This function calls:
 10535 ;;		Nothing
 10536 ;; This function is called by:
 10537 ;;		_main
 10538 ;; This function uses a non-reentrant model
 10539 ;;
 10540                           
 10541                           	psect	text32
 10542   00410A                     __ptext32:
 10543                           	callstack 0
 10544   00410A                     ___lldiv:
 10545                           	callstack 26
 10546   00410A  0E00               	movlw	0
 10547   00410C  6E1F               	movwf	___lldiv@quotient^0,c
 10548   00410E  0E00               	movlw	0
 10549   004110  6E20               	movwf	(___lldiv@quotient+1)^0,c
 10550   004112  0E00               	movlw	0
 10551   004114  6E21               	movwf	(___lldiv@quotient+2)^0,c
 10552   004116  0E00               	movlw	0
 10553   004118  6E22               	movwf	(___lldiv@quotient+3)^0,c
 10554   00411A  0100               	movlb	0	; () banked
 10555   00411C  5164               	movf	___lldiv@divisor& (0+255),w,b
 10556   00411E  1165               	iorwf	(___lldiv@divisor+1)& (0+255),w,b
 10557   004120  1166               	iorwf	(___lldiv@divisor+2)& (0+255),w,b
 10558   004122  1167               	iorwf	(___lldiv@divisor+3)& (0+255),w,b
 10559   004124  B4D8               	btfsc	status,2,c
 10560   004126  EF97  F020         	goto	u8101
 10561   00412A  EF99  F020         	goto	u8100
 10562   00412E                     u8101:
 10563   00412E  EFCF  F020         	goto	l623
 10564   004132                     u8100:
 10565   004132                     
 10566                           ; BSR set to: 0
 10567   004132  0E01               	movlw	1
 10568   004134  6E23               	movwf	___lldiv@counter^0,c
 10569   004136  EFA3  F020         	goto	l7102
 10570   00413A                     l7100:
 10571                           
 10572                           ; BSR set to: 0
 10573   00413A  90D8               	bcf	status,0,c
 10574   00413C  3764               	rlcf	___lldiv@divisor& (0+255),f,b
 10575   00413E  3765               	rlcf	(___lldiv@divisor+1)& (0+255),f,b
 10576   004140  3766               	rlcf	(___lldiv@divisor+2)& (0+255),f,b
 10577   004142  3767               	rlcf	(___lldiv@divisor+3)& (0+255),f,b
 10578   004144  2A23               	incf	___lldiv@counter^0,f,c
 10579   004146                     l7102:
 10580                           
 10581                           ; BSR set to: 0
 10582   004146  AF67               	btfss	(___lldiv@divisor+3)& (0+255),7,b
 10583   004148  EFA8  F020         	goto	u8111
 10584   00414C  EFAA  F020         	goto	u8110
 10585   004150                     u8111:
 10586   004150  EF9D  F020         	goto	l7100
 10587   004154                     u8110:
 10588   004154                     l7104:
 10589                           
 10590                           ; BSR set to: 0
 10591   004154  90D8               	bcf	status,0,c
 10592   004156  361F               	rlcf	___lldiv@quotient^0,f,c
 10593   004158  3620               	rlcf	(___lldiv@quotient+1)^0,f,c
 10594   00415A  3621               	rlcf	(___lldiv@quotient+2)^0,f,c
 10595   00415C  3622               	rlcf	(___lldiv@quotient+3)^0,f,c
 10596   00415E                     
 10597                           ; BSR set to: 0
 10598   00415E  5164               	movf	___lldiv@divisor& (0+255),w,b
 10599   004160  5D60               	subwf	___lldiv@dividend& (0+255),w,b
 10600   004162  5165               	movf	(___lldiv@divisor+1)& (0+255),w,b
 10601   004164  5961               	subwfb	(___lldiv@dividend+1)& (0+255),w,b
 10602   004166  5166               	movf	(___lldiv@divisor+2)& (0+255),w,b
 10603   004168  5962               	subwfb	(___lldiv@dividend+2)& (0+255),w,b
 10604   00416A  5167               	movf	(___lldiv@divisor+3)& (0+255),w,b
 10605   00416C  5963               	subwfb	(___lldiv@dividend+3)& (0+255),w,b
 10606   00416E  A0D8               	btfss	status,0,c
 10607   004170  EFBC  F020         	goto	u8121
 10608   004174  EFBE  F020         	goto	u8120
 10609   004178                     u8121:
 10610   004178  EFC7  F020         	goto	l7112
 10611   00417C                     u8120:
 10612   00417C                     
 10613                           ; BSR set to: 0
 10614   00417C  5164               	movf	___lldiv@divisor& (0+255),w,b
 10615   00417E  5F60               	subwf	___lldiv@dividend& (0+255),f,b
 10616   004180  5165               	movf	(___lldiv@divisor+1)& (0+255),w,b
 10617   004182  5B61               	subwfb	(___lldiv@dividend+1)& (0+255),f,b
 10618   004184  5166               	movf	(___lldiv@divisor+2)& (0+255),w,b
 10619   004186  5B62               	subwfb	(___lldiv@dividend+2)& (0+255),f,b
 10620   004188  5167               	movf	(___lldiv@divisor+3)& (0+255),w,b
 10621   00418A  5B63               	subwfb	(___lldiv@dividend+3)& (0+255),f,b
 10622   00418C                     
 10623                           ; BSR set to: 0
 10624   00418C  801F               	bsf	___lldiv@quotient^0,0,c
 10625   00418E                     l7112:
 10626                           
 10627                           ; BSR set to: 0
 10628   00418E  90D8               	bcf	status,0,c
 10629   004190  3367               	rrcf	(___lldiv@divisor+3)& (0+255),f,b
 10630   004192  3366               	rrcf	(___lldiv@divisor+2)& (0+255),f,b
 10631   004194  3365               	rrcf	(___lldiv@divisor+1)& (0+255),f,b
 10632   004196  3364               	rrcf	___lldiv@divisor& (0+255),f,b
 10633   004198                     
 10634                           ; BSR set to: 0
 10635   004198  2E23               	decfsz	___lldiv@counter^0,f,c
 10636   00419A  EFAA  F020         	goto	l7104
 10637   00419E                     l623:
 10638                           
 10639                           ; BSR set to: 0
 10640   00419E  C01F  F060         	movff	___lldiv@quotient,?___lldiv
 10641   0041A2  C020  F061         	movff	___lldiv@quotient+1,?___lldiv+1
 10642   0041A6  C021  F062         	movff	___lldiv@quotient+2,?___lldiv+2
 10643   0041AA  C022  F063         	movff	___lldiv@quotient+3,?___lldiv+3
 10644   0041AE                     
 10645                           ; BSR set to: 0
 10646   0041AE  0012               	return		;funcret
 10647   0041B0                     __end_of___lldiv:
 10648                           	callstack 0
 10649                           
 10650 ;; *************** function _UART_Enviar_Cadena *****************
 10651 ;; Defined at:
 10652 ;;		line 39 in file "serial.c"
 10653 ;; Parameters:    Size  Location     Type
 10654 ;;  cadena          2   31[COMRAM] PTR const unsigned char 
 10655 ;;		 -> STR_1(2), datos_sensores_afm_pc(90), 
 10656 ;; Auto vars:     Size  Location     Type
 10657 ;;		None
 10658 ;; Return value:  Size  Location     Type
 10659 ;;                  1    wreg      void 
 10660 ;; Registers used:
 10661 ;;		wreg, fsr1l, fsr1h, status,2, status,0, tblptrl, tblptrh, tblptru, cstack
 10662 ;; Tracked objects:
 10663 ;;		On entry : 0/0
 10664 ;;		On exit  : 0/0
 10665 ;;		Unchanged: 0/0
 10666 ;; Data sizes:     COMRAM   BANK0   BANK1   BANK2   BANK3   BANK4   BANK5   BANK6   BANK7
 10667 ;;      Params:         2       0       0       0       0       0       0       0       0
 10668 ;;      Locals:         0       0       0       0       0       0       0       0       0
 10669 ;;      Temps:          0       0       0       0       0       0       0       0       0
 10670 ;;      Totals:         2       0       0       0       0       0       0       0       0
 10671 ;;Total ram usage:        2 bytes
 10672 ;; Hardware stack levels used: 1
 10673 ;; Hardware stack levels required when called: 5
 10674 ;; This function calls:
 10675 ;;		_UART_Enviar_Caracter
 10676 ;; This function is called by:
 10677 ;;		_main
 10678 ;; This function uses a non-reentrant model
 10679 ;;
 10680                           
 10681                           	psect	text33
 10682   00449E                     __ptext33:
 10683                           	callstack 0
 10684   00449E                     _UART_Enviar_Cadena:
 10685                           	callstack 25
 10686   00449E                     
 10687                           ;serial.c: 41:     while (*cadena) {
 10688   00449E  EF65  F022         	goto	l5366
 10689   0044A2                     l5362:
 10690                           
 10691                           ;serial.c: 43:         UART_Enviar_Caracter(*cadena);
 10692   0044A2  C020  FFF6         	movff	UART_Enviar_Cadena@cadena,tblptrl
 10693   0044A6  C021  FFF7         	movff	UART_Enviar_Cadena@cadena+1,tblptrh
 10694   0044AA  6AF8               	clrf	tblptru,c
 10695   0044AC  0E07               	movlw	(high __ramtop+-1)
 10696   0044AE  64F7               	cpfsgt	tblptrh,c
 10697   0044B0  D003               	bra	u5577
 10698   0044B2  0008               	tblrd		*
 10699   0044B4  50F5               	movf	tablat,w,c
 10700   0044B6  D005               	bra	u5570
 10701   0044B8                     u5577:
 10702   0044B8  CFF6 FFE1          	movff	tblptrl,fsr1l
 10703   0044BC  CFF7 FFE2          	movff	tblptrh,fsr1h
 10704   0044C0  50E7               	movf	indf1,w,c
 10705   0044C2                     u5570:
 10706   0044C2  EC40  F024         	call	_UART_Enviar_Caracter
 10707   0044C6                     
 10708                           ;serial.c: 45:         cadena++;
 10709   0044C6  4A20               	infsnz	UART_Enviar_Cadena@cadena^0,f,c
 10710   0044C8  2A21               	incf	(UART_Enviar_Cadena@cadena+1)^0,f,c
 10711   0044CA                     l5366:
 10712                           
 10713                           ;serial.c: 41:     while (*cadena) {
 10714   0044CA  C020  FFF6         	movff	UART_Enviar_Cadena@cadena,tblptrl
 10715   0044CE  C021  FFF7         	movff	UART_Enviar_Cadena@cadena+1,tblptrh
 10716   0044D2  6AF8               	clrf	tblptru,c
 10717   0044D4  0E07               	movlw	(high __ramtop+-1)
 10718   0044D6  64F7               	cpfsgt	tblptrh,c
 10719   0044D8  D003               	bra	u5587
 10720   0044DA  0008               	tblrd		*
 10721   0044DC  50F5               	movf	tablat,w,c
 10722   0044DE  D005               	bra	u5580
 10723   0044E0                     u5587:
 10724   0044E0  CFF6 FFE1          	movff	tblptrl,fsr1l
 10725   0044E4  CFF7 FFE2          	movff	tblptrh,fsr1h
 10726   0044E8  50E7               	movf	indf1,w,c
 10727   0044EA                     u5580:
 10728   0044EA  0900               	iorlw	0
 10729   0044EC  A4D8               	btfss	status,2,c
 10730   0044EE  EF7B  F022         	goto	u5591
 10731   0044F2  EF7D  F022         	goto	u5590
 10732   0044F6                     u5591:
 10733   0044F6  EF51  F022         	goto	l5362
 10734   0044FA                     u5590:
 10735   0044FA  0012               	return		;funcret
 10736   0044FC                     __end_of_UART_Enviar_Cadena:
 10737                           	callstack 0
 10738                           
 10739 ;; *************** function _UART_Enviar_Caracter *****************
 10740 ;; Defined at:
 10741 ;;		line 30 in file "serial.c"
 10742 ;; Parameters:    Size  Location     Type
 10743 ;;  dato            1    wreg     unsigned char 
 10744 ;; Auto vars:     Size  Location     Type
 10745 ;;  dato            1   30[COMRAM] unsigned char 
 10746 ;; Return value:  Size  Location     Type
 10747 ;;                  1    wreg      void 
 10748 ;; Registers used:
 10749 ;;		wreg
 10750 ;; Tracked objects:
 10751 ;;		On entry : 0/0
 10752 ;;		On exit  : 0/0
 10753 ;;		Unchanged: 0/0
 10754 ;; Data sizes:     COMRAM   BANK0   BANK1   BANK2   BANK3   BANK4   BANK5   BANK6   BANK7
 10755 ;;      Params:         0       0       0       0       0       0       0       0       0
 10756 ;;      Locals:         1       0       0       0       0       0       0       0       0
 10757 ;;      Temps:          0       0       0       0       0       0       0       0       0
 10758 ;;      Totals:         1       0       0       0       0       0       0       0       0
 10759 ;;Total ram usage:        1 bytes
 10760 ;; Hardware stack levels used: 1
 10761 ;; Hardware stack levels required when called: 4
 10762 ;; This function calls:
 10763 ;;		Nothing
 10764 ;; This function is called by:
 10765 ;;		_UART_Enviar_Cadena
 10766 ;; This function uses a non-reentrant model
 10767 ;;
 10768                           
 10769                           	psect	text34
 10770   004880                     __ptext34:
 10771                           	callstack 0
 10772   004880                     _UART_Enviar_Caracter:
 10773                           	callstack 25
 10774                           
 10775                           ;incstack = 0
 10776                           ;UART_Enviar_Caracter@dato stored from wreg
 10777   004880  6E1F               	movwf	UART_Enviar_Caracter@dato^0,c
 10778   004882                     l534:
 10779   004882  A89E               	btfss	158,4,c	;volatile
 10780   004884  EF46  F024         	goto	u5221
 10781   004888  EF48  F024         	goto	u5220
 10782   00488C                     u5221:
 10783   00488C  EF41  F024         	goto	l534
 10784   004890                     u5220:
 10785   004890                     
 10786                           ;serial.c: 35:     TXREG = dato;
 10787   004890  C01F  FFAD         	movff	UART_Enviar_Caracter@dato,4013	;volatile
 10788   004894  0012               	return		;funcret
 10789   004896                     __end_of_UART_Enviar_Caracter:
 10790                           	callstack 0
 10791                           
 10792 ;; *************** function _SPI_Recibir_Caracter *****************
 10793 ;; Defined at:
 10794 ;;		line 50 in file "spi.c"
 10795 ;; Parameters:    Size  Location     Type
 10796 ;;		None
 10797 ;; Auto vars:     Size  Location     Type
 10798 ;;		None
 10799 ;; Return value:  Size  Location     Type
 10800 ;;                  1    wreg      unsigned char 
 10801 ;; Registers used:
 10802 ;;		wreg, status,2
 10803 ;; Tracked objects:
 10804 ;;		On entry : 0/0
 10805 ;;		On exit  : 0/0
 10806 ;;		Unchanged: 0/0
 10807 ;; Data sizes:     COMRAM   BANK0   BANK1   BANK2   BANK3   BANK4   BANK5   BANK6   BANK7
 10808 ;;      Params:         0       0       0       0       0       0       0       0       0
 10809 ;;      Locals:         0       0       0       0       0       0       0       0       0
 10810 ;;      Temps:          0       0       0       0       0       0       0       0       0
 10811 ;;      Totals:         0       0       0       0       0       0       0       0       0
 10812 ;;Total ram usage:        0 bytes
 10813 ;; Hardware stack levels used: 1
 10814 ;; Hardware stack levels required when called: 4
 10815 ;; This function calls:
 10816 ;;		Nothing
 10817 ;; This function is called by:
 10818 ;;		_main
 10819 ;; This function uses a non-reentrant model
 10820 ;;
 10821                           
 10822                           	psect	text35
 10823   004896                     __ptext35:
 10824                           	callstack 0
 10825   004896                     _SPI_Recibir_Caracter:
 10826                           	callstack 26
 10827   004896                     
 10828                           ;spi.c: 51:     SSPBUF = 0xFF;
 10829   004896  68C9               	setf	201,c	;volatile
 10830   004898                     l571:
 10831   004898  A0C7               	btfss	199,0,c	;volatile
 10832   00489A  EF51  F024         	goto	u5611
 10833   00489E  EF53  F024         	goto	u5610
 10834   0048A2                     u5611:
 10835   0048A2  EF4C  F024         	goto	l571
 10836   0048A6                     u5610:
 10837   0048A6                     
 10838                           ;spi.c: 53:     return SSPBUF;
 10839   0048A6  50C9               	movf	201,w,c	;volatile
 10840   0048A8  0012               	return		;funcret
 10841   0048AA                     __end_of_SPI_Recibir_Caracter:
 10842                           	callstack 0
 10843                           
 10844 ;; *************** function _SPI_Enviar_Caracter *****************
 10845 ;; Defined at:
 10846 ;;		line 43 in file "spi.c"
 10847 ;; Parameters:    Size  Location     Type
 10848 ;;  spi_tx          1    wreg     unsigned char 
 10849 ;; Auto vars:     Size  Location     Type
 10850 ;;  spi_tx          1   30[COMRAM] unsigned char 
 10851 ;; Return value:  Size  Location     Type
 10852 ;;                  1    wreg      unsigned char 
 10853 ;; Registers used:
 10854 ;;		wreg
 10855 ;; Tracked objects:
 10856 ;;		On entry : 0/0
 10857 ;;		On exit  : 0/0
 10858 ;;		Unchanged: 0/0
 10859 ;; Data sizes:     COMRAM   BANK0   BANK1   BANK2   BANK3   BANK4   BANK5   BANK6   BANK7
 10860 ;;      Params:         0       0       0       0       0       0       0       0       0
 10861 ;;      Locals:         1       0       0       0       0       0       0       0       0
 10862 ;;      Temps:          0       0       0       0       0       0       0       0       0
 10863 ;;      Totals:         1       0       0       0       0       0       0       0       0
 10864 ;;Total ram usage:        1 bytes
 10865 ;; Hardware stack levels used: 1
 10866 ;; Hardware stack levels required when called: 4
 10867 ;; This function calls:
 10868 ;;		Nothing
 10869 ;; This function is called by:
 10870 ;;		_main
 10871 ;; This function uses a non-reentrant model
 10872 ;;
 10873                           
 10874                           	psect	text36
 10875   004868                     __ptext36:
 10876                           	callstack 0
 10877   004868                     _SPI_Enviar_Caracter:
 10878                           	callstack 26
 10879                           
 10880                           ;incstack = 0
 10881                           ;SPI_Enviar_Caracter@spi_tx stored from wreg
 10882   004868  6E1F               	movwf	SPI_Enviar_Caracter@spi_tx^0,c
 10883   00486A                     
 10884                           ;spi.c: 44:     SSPBUF = spi_tx;
 10885   00486A  C01F  FFC9         	movff	SPI_Enviar_Caracter@spi_tx,4041	;volatile
 10886   00486E                     l565:
 10887   00486E  A0C7               	btfss	199,0,c	;volatile
 10888   004870  EF3C  F024         	goto	u5561
 10889   004874  EF3E  F024         	goto	u5560
 10890   004878                     u5561:
 10891   004878  EF37  F024         	goto	l565
 10892   00487C                     u5560:
 10893   00487C                     
 10894                           ;spi.c: 46:     return SSPBUF;;	Return value of _SPI_Enviar_Caracter is never used
 10895   00487C  50C9               	movf	201,w,c	;volatile
 10896   00487E  0012               	return		;funcret
 10897   004880                     __end_of_SPI_Enviar_Caracter:
 10898                           	callstack 0
 10899                           
 10900 ;; *************** function _Leer_ADC *****************
 10901 ;; Defined at:
 10902 ;;		line 35 in file "adc.c"
 10903 ;; Parameters:    Size  Location     Type
 10904 ;;		None
 10905 ;; Auto vars:     Size  Location     Type
 10906 ;;		None
 10907 ;; Return value:  Size  Location     Type
 10908 ;;                  2   30[COMRAM] unsigned short 
 10909 ;; Registers used:
 10910 ;;		wreg, status,2
 10911 ;; Tracked objects:
 10912 ;;		On entry : 0/0
 10913 ;;		On exit  : 0/0
 10914 ;;		Unchanged: 0/0
 10915 ;; Data sizes:     COMRAM   BANK0   BANK1   BANK2   BANK3   BANK4   BANK5   BANK6   BANK7
 10916 ;;      Params:         2       0       0       0       0       0       0       0       0
 10917 ;;      Locals:         0       0       0       0       0       0       0       0       0
 10918 ;;      Temps:          2       0       0       0       0       0       0       0       0
 10919 ;;      Totals:         4       0       0       0       0       0       0       0       0
 10920 ;;Total ram usage:        4 bytes
 10921 ;; Hardware stack levels used: 1
 10922 ;; Hardware stack levels required when called: 4
 10923 ;; This function calls:
 10924 ;;		Nothing
 10925 ;; This function is called by:
 10926 ;;		_main
 10927 ;; This function uses a non-reentrant model
 10928 ;;
 10929                           
 10930                           	psect	text37
 10931   004812                     __ptext37:
 10932                           	callstack 0
 10933   004812                     _Leer_ADC:
 10934                           	callstack 26
 10935   004812                     
 10936                           ;adc.c: 36:     ADCON0bits.GO_DONE = 1;
 10937   004812  82C2               	bsf	194,1,c	;volatile
 10938   004814                     l590:
 10939   004814  B2C2               	btfsc	194,1,c	;volatile
 10940   004816  EF0F  F024         	goto	u5601
 10941   00481A  EF11  F024         	goto	u5600
 10942   00481E                     u5601:
 10943   00481E  EF0A  F024         	goto	l590
 10944   004822                     u5600:
 10945   004822                     
 10946                           ;adc.c: 38:     return (uint16_t)(ADRESH << 8) | ADRESL;
 10947   004822  50C4               	movf	196,w,c	;volatile
 10948   004824  6E21               	movwf	??_Leer_ADC^0,c
 10949   004826  50C3               	movf	195,w,c	;volatile
 10950   004828  6E1F               	movwf	?_Leer_ADC^0,c
 10951   00482A  C021  F020         	movff	??_Leer_ADC,?_Leer_ADC+1
 10952   00482E  0012               	return		;funcret
 10953   004830                     __end_of_Leer_ADC:
 10954                           	callstack 0
 10955                           
 10956 ;; *************** function _Lectura_Numero_Est *****************
 10957 ;; Defined at:
 10958 ;;		line 13 in file "pin_manager.c"
 10959 ;; Parameters:    Size  Location     Type
 10960 ;;		None
 10961 ;; Auto vars:     Size  Location     Type
 10962 ;;		None
 10963 ;; Return value:  Size  Location     Type
 10964 ;;                  1    wreg      unsigned char 
 10965 ;; Registers used:
 10966 ;;		wreg, status,2, status,0, prodl, prodh
 10967 ;; Tracked objects:
 10968 ;;		On entry : 0/0
 10969 ;;		On exit  : 0/0
 10970 ;;		Unchanged: 0/0
 10971 ;; Data sizes:     COMRAM   BANK0   BANK1   BANK2   BANK3   BANK4   BANK5   BANK6   BANK7
 10972 ;;      Params:         0       0       0       0       0       0       0       0       0
 10973 ;;      Locals:         0       0       0       0       0       0       0       0       0
 10974 ;;      Temps:          3       0       0       0       0       0       0       0       0
 10975 ;;      Totals:         3       0       0       0       0       0       0       0       0
 10976 ;;Total ram usage:        3 bytes
 10977 ;; Hardware stack levels used: 1
 10978 ;; Hardware stack levels required when called: 4
 10979 ;; This function calls:
 10980 ;;		Nothing
 10981 ;; This function is called by:
 10982 ;;		_main
 10983 ;; This function uses a non-reentrant model
 10984 ;;
 10985                           
 10986                           	psect	text38
 10987   0043DA                     __ptext38:
 10988                           	callstack 0
 10989   0043DA                     _Lectura_Numero_Est:
 10990                           	callstack 26
 10991   0043DA                     
 10992                           ;pin_manager.c: 14:     return (PORTCbits.RC0*1 + PORTCbits.RC1*2 + PORTCbits.RC2*4 + PO
      +                          RTCbits.RC5*8);
 10993   0043DA  B082               	btfsc	130,0,c	;volatile
 10994   0043DC  EFF2  F021         	goto	u5621
 10995   0043E0  EFF6  F021         	goto	u5620
 10996   0043E4                     u5621:
 10997   0043E4  6A1F               	clrf	??_Lectura_Numero_Est^0,c
 10998   0043E6  2A1F               	incf	??_Lectura_Numero_Est^0,f,c
 10999   0043E8  EFF7  F021         	goto	u5628
 11000   0043EC                     u5620:
 11001   0043EC  6A1F               	clrf	??_Lectura_Numero_Est^0,c
 11002   0043EE                     u5628:
 11003   0043EE  B282               	btfsc	130,1,c	;volatile
 11004   0043F0  EFFC  F021         	goto	u5631
 11005   0043F4  EFFF  F021         	goto	u5630
 11006   0043F8                     u5631:
 11007   0043F8  0E01               	movlw	1
 11008   0043FA  EF00  F022         	goto	u5636
 11009   0043FE                     u5630:
 11010   0043FE  0E00               	movlw	0
 11011   004400                     u5636:
 11012   004400  0D02               	mullw	2
 11013   004402  CFF3 F020          	movff	prodl,??_Lectura_Numero_Est+1
 11014   004406  B482               	btfsc	130,2,c	;volatile
 11015   004408  EF08  F022         	goto	u5641
 11016   00440C  EF0B  F022         	goto	u5640
 11017   004410                     u5641:
 11018   004410  0E01               	movlw	1
 11019   004412  EF0C  F022         	goto	u5646
 11020   004416                     u5640:
 11021   004416  0E00               	movlw	0
 11022   004418                     u5646:
 11023   004418  0D04               	mullw	4
 11024   00441A  CFF3 F021          	movff	prodl,??_Lectura_Numero_Est+2
 11025   00441E  BA82               	btfsc	130,5,c	;volatile
 11026   004420  EF14  F022         	goto	u5651
 11027   004424  EF17  F022         	goto	u5650
 11028   004428                     u5651:
 11029   004428  0E01               	movlw	1
 11030   00442A  EF18  F022         	goto	u5656
 11031   00442E                     u5650:
 11032   00442E  0E00               	movlw	0
 11033   004430                     u5656:
 11034   004430  0D08               	mullw	8
 11035   004432  50F3               	movf	243,w,c
 11036   004434  2421               	addwf	(??_Lectura_Numero_Est+2)^0,w,c
 11037   004436  2420               	addwf	(??_Lectura_Numero_Est+1)^0,w,c
 11038   004438  241F               	addwf	??_Lectura_Numero_Est^0,w,c
 11039   00443A  0012               	return		;funcret
 11040   00443C                     __end_of_Lectura_Numero_Est:
 11041                           	callstack 0
 11042                           
 11043 ;; *************** function _Lectura_Frecuencia_tx *****************
 11044 ;; Defined at:
 11045 ;;		line 8 in file "pin_manager.c"
 11046 ;; Parameters:    Size  Location     Type
 11047 ;;		None
 11048 ;; Auto vars:     Size  Location     Type
 11049 ;;		None
 11050 ;; Return value:  Size  Location     Type
 11051 ;;                  1    wreg      unsigned char 
 11052 ;; Registers used:
 11053 ;;		wreg, status,2, status,0, prodl, prodh
 11054 ;; Tracked objects:
 11055 ;;		On entry : 0/0
 11056 ;;		On exit  : 0/0
 11057 ;;		Unchanged: 0/0
 11058 ;; Data sizes:     COMRAM   BANK0   BANK1   BANK2   BANK3   BANK4   BANK5   BANK6   BANK7
 11059 ;;      Params:         0       0       0       0       0       0       0       0       0
 11060 ;;      Locals:         0       0       0       0       0       0       0       0       0
 11061 ;;      Temps:          3       0       0       0       0       0       0       0       0
 11062 ;;      Totals:         3       0       0       0       0       0       0       0       0
 11063 ;;Total ram usage:        3 bytes
 11064 ;; Hardware stack levels used: 1
 11065 ;; Hardware stack levels required when called: 4
 11066 ;; This function calls:
 11067 ;;		Nothing
 11068 ;; This function is called by:
 11069 ;;		_main
 11070 ;; This function uses a non-reentrant model
 11071 ;;
 11072                           
 11073                           	psect	text39
 11074   00443C                     __ptext39:
 11075                           	callstack 0
 11076   00443C                     _Lectura_Frecuencia_tx:
 11077                           	callstack 26
 11078   00443C                     
 11079                           ;pin_manager.c: 9:     return (PORTCbits.RC4*1 + PORTAbits.RA1*2 + PORTAbits.RA4*4 + POR
      +                          TAbits.RA5*8);
 11080   00443C  B882               	btfsc	130,4,c	;volatile
 11081   00443E  EF23  F022         	goto	u5661
 11082   004442  EF27  F022         	goto	u5660
 11083   004446                     u5661:
 11084   004446  6A1F               	clrf	??_Lectura_Frecuencia_tx^0,c
 11085   004448  2A1F               	incf	??_Lectura_Frecuencia_tx^0,f,c
 11086   00444A  EF28  F022         	goto	u5668
 11087   00444E                     u5660:
 11088   00444E  6A1F               	clrf	??_Lectura_Frecuencia_tx^0,c
 11089   004450                     u5668:
 11090   004450  B280               	btfsc	128,1,c	;volatile
 11091   004452  EF2D  F022         	goto	u5671
 11092   004456  EF30  F022         	goto	u5670
 11093   00445A                     u5671:
 11094   00445A  0E01               	movlw	1
 11095   00445C  EF31  F022         	goto	u5676
 11096   004460                     u5670:
 11097   004460  0E00               	movlw	0
 11098   004462                     u5676:
 11099   004462  0D02               	mullw	2
 11100   004464  CFF3 F020          	movff	prodl,??_Lectura_Frecuencia_tx+1
 11101   004468  B880               	btfsc	128,4,c	;volatile
 11102   00446A  EF39  F022         	goto	u5681
 11103   00446E  EF3C  F022         	goto	u5680
 11104   004472                     u5681:
 11105   004472  0E01               	movlw	1
 11106   004474  EF3D  F022         	goto	u5686
 11107   004478                     u5680:
 11108   004478  0E00               	movlw	0
 11109   00447A                     u5686:
 11110   00447A  0D04               	mullw	4
 11111   00447C  CFF3 F021          	movff	prodl,??_Lectura_Frecuencia_tx+2
 11112   004480  BA80               	btfsc	128,5,c	;volatile
 11113   004482  EF45  F022         	goto	u5691
 11114   004486  EF48  F022         	goto	u5690
 11115   00448A                     u5691:
 11116   00448A  0E01               	movlw	1
 11117   00448C  EF49  F022         	goto	u5696
 11118   004490                     u5690:
 11119   004490  0E00               	movlw	0
 11120   004492                     u5696:
 11121   004492  0D08               	mullw	8
 11122   004494  50F3               	movf	243,w,c
 11123   004496  2421               	addwf	(??_Lectura_Frecuencia_tx+2)^0,w,c
 11124   004498  2420               	addwf	(??_Lectura_Frecuencia_tx+1)^0,w,c
 11125   00449A  241F               	addwf	??_Lectura_Frecuencia_tx^0,w,c
 11126   00449C  0012               	return		;funcret
 11127   00449E                     __end_of_Lectura_Frecuencia_tx:
 11128                           	callstack 0
 11129                           
 11130 ;; *************** function _Inicializar_Sistema *****************
 11131 ;; Defined at:
 11132 ;;		line 7 in file "mcc.c"
 11133 ;; Parameters:    Size  Location     Type
 11134 ;;		None
 11135 ;; Auto vars:     Size  Location     Type
 11136 ;;		None
 11137 ;; Return value:  Size  Location     Type
 11138 ;;                  1    wreg      void 
 11139 ;; Registers used:
 11140 ;;		wreg, status,2, cstack
 11141 ;; Tracked objects:
 11142 ;;		On entry : 0/0
 11143 ;;		On exit  : 0/0
 11144 ;;		Unchanged: 0/0
 11145 ;; Data sizes:     COMRAM   BANK0   BANK1   BANK2   BANK3   BANK4   BANK5   BANK6   BANK7
 11146 ;;      Params:         0       0       0       0       0       0       0       0       0
 11147 ;;      Locals:         0       0       0       0       0       0       0       0       0
 11148 ;;      Temps:          0       0       0       0       0       0       0       0       0
 11149 ;;      Totals:         0       0       0       0       0       0       0       0       0
 11150 ;;Total ram usage:        0 bytes
 11151 ;; Hardware stack levels used: 1
 11152 ;; Hardware stack levels required when called: 5
 11153 ;; This function calls:
 11154 ;;		_Asignar_Minutos_Timer0
 11155 ;;		_Configurar_ADC
 11156 ;;		_Configurar_SPI
 11157 ;;		_Configurar_Timer0
 11158 ;;		_Configurar_Timer2
 11159 ;;		_Inicializar_Administrador_PIN
 11160 ;;		_Inicializar_Oscilador
 11161 ;;		_Inicializar_UART
 11162 ;; This function is called by:
 11163 ;;		_main
 11164 ;; This function uses a non-reentrant model
 11165 ;;
 11166                           
 11167                           	psect	text40
 11168   004704                     __ptext40:
 11169                           	callstack 0
 11170   004704                     _Inicializar_Sistema:
 11171                           	callstack 25
 11172   004704                     
 11173                           ;mcc.c: 10:     Inicializar_Administrador_PIN();
 11174   004704  ECE5  F023         	call	_Inicializar_Administrador_PIN	;wreg free
 11175   004708                     
 11176                           ;mcc.c: 13:     Inicializar_Oscilador();
 11177   004708  EC67  F024         	call	_Inicializar_Oscilador	;wreg free
 11178   00470C                     
 11179                           ;mcc.c: 20:     Configurar_Timer0();
 11180   00470C  ECF9  F023         	call	_Configurar_Timer0	;wreg free
 11181   004710                     
 11182                           ;mcc.c: 23:     Asignar_Minutos_Timer0(1);
 11183   004710  0E00               	movlw	0
 11184   004712  0100               	movlb	0	; () banked
 11185   004714  6F6A               	movwf	Asignar_Minutos_Timer0@minutos& (0+255),b
 11186   004716  0E00               	movlw	0
 11187   004718  6F6B               	movwf	(Asignar_Minutos_Timer0@minutos+1)& (0+255),b
 11188   00471A  0E80               	movlw	128
 11189   00471C  6F6C               	movwf	(Asignar_Minutos_Timer0@minutos+2)& (0+255),b
 11190   00471E  0E3F               	movlw	63
 11191   004720  6F6D               	movwf	(Asignar_Minutos_Timer0@minutos+3)& (0+255),b
 11192   004722  EC5E  F024         	call	_Asignar_Minutos_Timer0	;wreg free
 11193   004726                     
 11194                           ;mcc.c: 26:     Configurar_Timer2();
 11195   004726  EC18  F024         	call	_Configurar_Timer2	;wreg free
 11196   00472A                     
 11197                           ;mcc.c: 29:     Inicializar_UART();
 11198   00472A  EC55  F024         	call	_Inicializar_UART	;wreg free
 11199   00472E                     
 11200                           ;mcc.c: 32:     Configurar_ADC();
 11201   00472E  ECBB  F023         	call	_Configurar_ADC	;wreg free
 11202   004732                     
 11203                           ;mcc.c: 35:     Configurar_SPI();
 11204   004732  EC27  F024         	call	_Configurar_SPI	;wreg free
 11205   004736                     
 11206                           ;mcc.c: 38:     RCONbits.IPEN = 1;
 11207   004736  8ED0               	bsf	208,7,c	;volatile
 11208   004738                     
 11209                           ;mcc.c: 39:     INTCONbits.GIEH = 1;
 11210   004738  8EF2               	bsf	242,7,c	;volatile
 11211   00473A                     
 11212                           ;mcc.c: 40:     INTCONbits.GIEL = 1;
 11213   00473A  8CF2               	bsf	242,6,c	;volatile
 11214   00473C  0012               	return		;funcret
 11215   00473E                     __end_of_Inicializar_Sistema:
 11216                           	callstack 0
 11217                           
 11218 ;; *************** function _Inicializar_UART *****************
 11219 ;; Defined at:
 11220 ;;		line 5 in file "serial.c"
 11221 ;; Parameters:    Size  Location     Type
 11222 ;;		None
 11223 ;; Auto vars:     Size  Location     Type
 11224 ;;		None
 11225 ;; Return value:  Size  Location     Type
 11226 ;;                  1    wreg      void 
 11227 ;; Registers used:
 11228 ;;		wreg, status,2
 11229 ;; Tracked objects:
 11230 ;;		On entry : 0/0
 11231 ;;		On exit  : 0/0
 11232 ;;		Unchanged: 0/0
 11233 ;; Data sizes:     COMRAM   BANK0   BANK1   BANK2   BANK3   BANK4   BANK5   BANK6   BANK7
 11234 ;;      Params:         0       0       0       0       0       0       0       0       0
 11235 ;;      Locals:         0       0       0       0       0       0       0       0       0
 11236 ;;      Temps:          0       0       0       0       0       0       0       0       0
 11237 ;;      Totals:         0       0       0       0       0       0       0       0       0
 11238 ;;Total ram usage:        0 bytes
 11239 ;; Hardware stack levels used: 1
 11240 ;; Hardware stack levels required when called: 4
 11241 ;; This function calls:
 11242 ;;		Nothing
 11243 ;; This function is called by:
 11244 ;;		_Inicializar_Sistema
 11245 ;; This function uses a non-reentrant model
 11246 ;;
 11247                           
 11248                           	psect	text41
 11249   0048AA                     __ptext41:
 11250                           	callstack 0
 11251   0048AA                     _Inicializar_UART:
 11252                           	callstack 25
 11253   0048AA                     
 11254                           ;serial.c: 7:     BAUDCONbits.BRG16 = 0;
 11255   0048AA  96B8               	bcf	184,3,c	;volatile
 11256   0048AC                     
 11257                           ;serial.c: 8:     SPBRG = 127;
 11258   0048AC  0E7F               	movlw	127
 11259   0048AE  6EAF               	movwf	175,c	;volatile
 11260   0048B0                     
 11261                           ;serial.c: 18:     TXSTAbits.BRGH = 1;
 11262   0048B0  84AC               	bsf	172,2,c	;volatile
 11263   0048B2                     
 11264                           ;serial.c: 19:     TXSTAbits.TXEN = 1;
 11265   0048B2  8AAC               	bsf	172,5,c	;volatile
 11266   0048B4                     
 11267                           ;serial.c: 20:     RCSTAbits.SPEN = 1;
 11268   0048B4  8EAB               	bsf	171,7,c	;volatile
 11269   0048B6                     
 11270                           ;serial.c: 22:     IPR1bits.RCIP = 0;
 11271   0048B6  9A9F               	bcf	159,5,c	;volatile
 11272   0048B8                     
 11273                           ;serial.c: 23:     PIE1bits.RCIE = 1;
 11274   0048B8  8A9D               	bsf	157,5,c	;volatile
 11275   0048BA  0012               	return		;funcret
 11276   0048BC                     __end_of_Inicializar_UART:
 11277                           	callstack 0
 11278                           
 11279 ;; *************** function _Inicializar_Oscilador *****************
 11280 ;; Defined at:
 11281 ;;		line 6 in file "device_config.c"
 11282 ;; Parameters:    Size  Location     Type
 11283 ;;		None
 11284 ;; Auto vars:     Size  Location     Type
 11285 ;;		None
 11286 ;; Return value:  Size  Location     Type
 11287 ;;                  1    wreg      void 
 11288 ;; Registers used:
 11289 ;;		wreg, status,2
 11290 ;; Tracked objects:
 11291 ;;		On entry : 0/0
 11292 ;;		On exit  : 0/0
 11293 ;;		Unchanged: 0/0
 11294 ;; Data sizes:     COMRAM   BANK0   BANK1   BANK2   BANK3   BANK4   BANK5   BANK6   BANK7
 11295 ;;      Params:         0       0       0       0       0       0       0       0       0
 11296 ;;      Locals:         0       0       0       0       0       0       0       0       0
 11297 ;;      Temps:          0       0       0       0       0       0       0       0       0
 11298 ;;      Totals:         0       0       0       0       0       0       0       0       0
 11299 ;;Total ram usage:        0 bytes
 11300 ;; Hardware stack levels used: 1
 11301 ;; Hardware stack levels required when called: 4
 11302 ;; This function calls:
 11303 ;;		Nothing
 11304 ;; This function is called by:
 11305 ;;		_Inicializar_Sistema
 11306 ;; This function uses a non-reentrant model
 11307 ;;
 11308                           
 11309                           	psect	text42
 11310   0048CE                     __ptext42:
 11311                           	callstack 0
 11312   0048CE                     _Inicializar_Oscilador:
 11313                           	callstack 25
 11314   0048CE                     
 11315                           ;device_config.c: 8:     OSCCONbits.IRCF = 0b000;
 11316   0048CE  0E8F               	movlw	-113
 11317   0048D0  16D3               	andwf	211,f,c	;volatile
 11318   0048D2                     
 11319                           ;device_config.c: 9:     UCFGbits.UTRDIS = 1;
 11320   0048D2  866F               	bsf	111,3,c	;volatile
 11321   0048D4                     
 11322                           ;device_config.c: 10:     UCONbits.USBEN = 0;
 11323   0048D4  966D               	bcf	109,3,c	;volatile
 11324   0048D6  0012               	return		;funcret
 11325   0048D8                     __end_of_Inicializar_Oscilador:
 11326                           	callstack 0
 11327                           
 11328 ;; *************** function _Inicializar_Administrador_PIN *****************
 11329 ;; Defined at:
 11330 ;;		line 17 in file "pin_manager.c"
 11331 ;; Parameters:    Size  Location     Type
 11332 ;;		None
 11333 ;; Auto vars:     Size  Location     Type
 11334 ;;		None
 11335 ;; Return value:  Size  Location     Type
 11336 ;;                  1    wreg      void 
 11337 ;; Registers used:
 11338 ;;		None
 11339 ;; Tracked objects:
 11340 ;;		On entry : 0/0
 11341 ;;		On exit  : 0/0
 11342 ;;		Unchanged: 0/0
 11343 ;; Data sizes:     COMRAM   BANK0   BANK1   BANK2   BANK3   BANK4   BANK5   BANK6   BANK7
 11344 ;;      Params:         0       0       0       0       0       0       0       0       0
 11345 ;;      Locals:         0       0       0       0       0       0       0       0       0
 11346 ;;      Temps:          0       0       0       0       0       0       0       0       0
 11347 ;;      Totals:         0       0       0       0       0       0       0       0       0
 11348 ;;Total ram usage:        0 bytes
 11349 ;; Hardware stack levels used: 1
 11350 ;; Hardware stack levels required when called: 4
 11351 ;; This function calls:
 11352 ;;		Nothing
 11353 ;; This function is called by:
 11354 ;;		_Inicializar_Sistema
 11355 ;; This function uses a non-reentrant model
 11356 ;;
 11357                           
 11358                           	psect	text43
 11359   0047CA                     __ptext43:
 11360                           	callstack 0
 11361   0047CA                     _Inicializar_Administrador_PIN:
 11362                           	callstack 25
 11363   0047CA                     
 11364                           ;pin_manager.c: 22:     TRISBbits.TRISB0 = 1;
 11365   0047CA  8093               	bsf	147,0,c	;volatile
 11366                           
 11367                           ;pin_manager.c: 23:     TRISBbits.TRISB1 = 0;
 11368   0047CC  9293               	bcf	147,1,c	;volatile
 11369                           
 11370                           ;pin_manager.c: 24:     TRISBbits.TRISB2 = 1;
 11371   0047CE  8493               	bsf	147,2,c	;volatile
 11372                           
 11373                           ;pin_manager.c: 26:     TRISBbits.TRISB3 = 0;
 11374   0047D0  9693               	bcf	147,3,c	;volatile
 11375                           
 11376                           ;pin_manager.c: 28:     TRISBbits.TRISB4 = 0;
 11377   0047D2  9893               	bcf	147,4,c	;volatile
 11378                           
 11379                           ;pin_manager.c: 29:     TRISBbits.TRISB5 = 1;
 11380   0047D4  8A93               	bsf	147,5,c	;volatile
 11381                           
 11382                           ;pin_manager.c: 33:     TRISCbits.TRISC0 = 1;
 11383   0047D6  8094               	bsf	148,0,c	;volatile
 11384                           
 11385                           ;pin_manager.c: 34:     TRISCbits.TRISC1 = 1;
 11386   0047D8  8294               	bsf	148,1,c	;volatile
 11387                           
 11388                           ;pin_manager.c: 35:     TRISCbits.TRISC2 = 1;
 11389   0047DA  8494               	bsf	148,2,c	;volatile
 11390                           
 11391                           ;pin_manager.c: 38:     UCFGbits.UTRDIS = 1;
 11392   0047DC  866F               	bsf	111,3,c	;volatile
 11393                           
 11394                           ;pin_manager.c: 42:     TRISCbits.TRISC6 = 1;
 11395   0047DE  8C94               	bsf	148,6,c	;volatile
 11396                           
 11397                           ;pin_manager.c: 43:     TRISCbits.TRISC7 = 1;
 11398   0047E0  8E94               	bsf	148,7,c	;volatile
 11399                           
 11400                           ;pin_manager.c: 47:     TRISAbits.TRISA0 = 1;
 11401   0047E2  8092               	bsf	146,0,c	;volatile
 11402                           
 11403                           ;pin_manager.c: 48:     TRISAbits.TRISA1 = 1;
 11404   0047E4  8292               	bsf	146,1,c	;volatile
 11405                           
 11406                           ;pin_manager.c: 49:     TRISAbits.TRISA2 = 1;
 11407   0047E6  8492               	bsf	146,2,c	;volatile
 11408                           
 11409                           ;pin_manager.c: 50:     TRISAbits.TRISA3 = 1;
 11410   0047E8  8692               	bsf	146,3,c	;volatile
 11411                           
 11412                           ;pin_manager.c: 51:     TRISAbits.TRISA4 = 1;
 11413   0047EA  8892               	bsf	146,4,c	;volatile
 11414                           
 11415                           ;pin_manager.c: 52:     TRISAbits.TRISA5 = 1;
 11416   0047EC  8A92               	bsf	146,5,c	;volatile
 11417                           
 11418                           ;pin_manager.c: 54:     TRISAbits.TRISA6 = 0;
 11419   0047EE  9C92               	bcf	146,6,c	;volatile
 11420   0047F0  0012               	return		;funcret
 11421   0047F2                     __end_of_Inicializar_Administrador_PIN:
 11422                           	callstack 0
 11423                           
 11424 ;; *************** function _Configurar_Timer2 *****************
 11425 ;; Defined at:
 11426 ;;		line 31 in file "timers.c"
 11427 ;; Parameters:    Size  Location     Type
 11428 ;;		None
 11429 ;; Auto vars:     Size  Location     Type
 11430 ;;		None
 11431 ;; Return value:  Size  Location     Type
 11432 ;;                  1    wreg      void 
 11433 ;; Registers used:
 11434 ;;		wreg, status,2
 11435 ;; Tracked objects:
 11436 ;;		On entry : 0/0
 11437 ;;		On exit  : 0/0
 11438 ;;		Unchanged: 0/0
 11439 ;; Data sizes:     COMRAM   BANK0   BANK1   BANK2   BANK3   BANK4   BANK5   BANK6   BANK7
 11440 ;;      Params:         0       0       0       0       0       0       0       0       0
 11441 ;;      Locals:         0       0       0       0       0       0       0       0       0
 11442 ;;      Temps:          0       0       0       0       0       0       0       0       0
 11443 ;;      Totals:         0       0       0       0       0       0       0       0       0
 11444 ;;Total ram usage:        0 bytes
 11445 ;; Hardware stack levels used: 1
 11446 ;; Hardware stack levels required when called: 4
 11447 ;; This function calls:
 11448 ;;		Nothing
 11449 ;; This function is called by:
 11450 ;;		_Inicializar_Sistema
 11451 ;; This function uses a non-reentrant model
 11452 ;;
 11453                           
 11454                           	psect	text44
 11455   004830                     __ptext44:
 11456                           	callstack 0
 11457   004830                     _Configurar_Timer2:
 11458                           	callstack 25
 11459   004830                     
 11460                           ;timers.c: 32:     T2CON = 0;
 11461   004830  0E00               	movlw	0
 11462   004832  6ECA               	movwf	202,c	;volatile
 11463   004834                     
 11464                           ;timers.c: 33:     T2CONbits.TMR2ON = 0;
 11465   004834  94CA               	bcf	202,2,c	;volatile
 11466                           
 11467                           ;timers.c: 34:     T2CONbits.T2CKPS = 0b11;
 11468   004836  0E03               	movlw	3
 11469   004838  12CA               	iorwf	202,f,c	;volatile
 11470   00483A                     
 11471                           ;timers.c: 35:     PR2 = 255;
 11472   00483A  68CB               	setf	203,c	;volatile
 11473                           
 11474                           ;timers.c: 36:     T2CONbits.TOUTPS = 0b1111;
 11475   00483C  0E78               	movlw	120
 11476   00483E  12CA               	iorwf	202,f,c	;volatile
 11477   004840                     
 11478                           ;timers.c: 37:     PIR1bits.TMR2IF = 0;
 11479   004840  929E               	bcf	158,1,c	;volatile
 11480   004842                     
 11481                           ;timers.c: 38:     PIE1bits.TMR2IE = 1;
 11482   004842  829D               	bsf	157,1,c	;volatile
 11483   004844                     
 11484                           ;timers.c: 39:     T2CONbits.TMR2ON = 1;
 11485   004844  84CA               	bsf	202,2,c	;volatile
 11486   004846                     
 11487                           ;timers.c: 40:     IPR1bits.TMR2IP = 0;
 11488   004846  929F               	bcf	159,1,c	;volatile
 11489                           
 11490                           ;timers.c: 41:     TMR2 = 0;
 11491   004848  0E00               	movlw	0
 11492   00484A  6ECC               	movwf	204,c	;volatile
 11493   00484C  0012               	return		;funcret
 11494   00484E                     __end_of_Configurar_Timer2:
 11495                           	callstack 0
 11496                           
 11497 ;; *************** function _Configurar_Timer0 *****************
 11498 ;; Defined at:
 11499 ;;		line 5 in file "timers.c"
 11500 ;; Parameters:    Size  Location     Type
 11501 ;;		None
 11502 ;; Auto vars:     Size  Location     Type
 11503 ;;		None
 11504 ;; Return value:  Size  Location     Type
 11505 ;;                  1    wreg      void 
 11506 ;; Registers used:
 11507 ;;		wreg, status,2
 11508 ;; Tracked objects:
 11509 ;;		On entry : 0/0
 11510 ;;		On exit  : 0/0
 11511 ;;		Unchanged: 0/0
 11512 ;; Data sizes:     COMRAM   BANK0   BANK1   BANK2   BANK3   BANK4   BANK5   BANK6   BANK7
 11513 ;;      Params:         0       0       0       0       0       0       0       0       0
 11514 ;;      Locals:         0       0       0       0       0       0       0       0       0
 11515 ;;      Temps:          0       0       0       0       0       0       0       0       0
 11516 ;;      Totals:         0       0       0       0       0       0       0       0       0
 11517 ;;Total ram usage:        0 bytes
 11518 ;; Hardware stack levels used: 1
 11519 ;; Hardware stack levels required when called: 4
 11520 ;; This function calls:
 11521 ;;		Nothing
 11522 ;; This function is called by:
 11523 ;;		_Inicializar_Sistema
 11524 ;; This function uses a non-reentrant model
 11525 ;;
 11526                           
 11527                           	psect	text45
 11528   0047F2                     __ptext45:
 11529                           	callstack 0
 11530   0047F2                     _Configurar_Timer0:
 11531                           	callstack 25
 11532   0047F2                     
 11533                           ;timers.c: 6:     T0CONbits.T08BIT = 0;
 11534   0047F2  9CD5               	bcf	213,6,c	;volatile
 11535                           
 11536                           ;timers.c: 7:     T0CONbits.T0CS = 0;
 11537   0047F4  9AD5               	bcf	213,5,c	;volatile
 11538                           
 11539                           ;timers.c: 8:     T0CONbits.PSA = 0;
 11540   0047F6  96D5               	bcf	213,3,c	;volatile
 11541   0047F8                     
 11542                           ;timers.c: 9:     T0CONbits.T0PS = 0b010;
 11543   0047F8  50D5               	movf	213,w,c	;volatile
 11544   0047FA  0BF8               	andlw	-8
 11545   0047FC  0902               	iorlw	2
 11546   0047FE  6ED5               	movwf	213,c	;volatile
 11547                           
 11548                           ;timers.c: 10:     TMR0H = 0x00;
 11549   004800  0E00               	movlw	0
 11550   004802  6ED7               	movwf	215,c	;volatile
 11551                           
 11552                           ;timers.c: 11:     TMR0L = 0x00;
 11553   004804  0E00               	movlw	0
 11554   004806  6ED6               	movwf	214,c	;volatile
 11555   004808                     
 11556                           ;timers.c: 12:     T0CONbits.TMR0ON = 1;
 11557   004808  8ED5               	bsf	213,7,c	;volatile
 11558   00480A                     
 11559                           ;timers.c: 13:     INTCONbits.TMR0IF =0;
 11560   00480A  94F2               	bcf	242,2,c	;volatile
 11561   00480C                     
 11562                           ;timers.c: 15:     INTCONbits.T0IE = 1;
 11563   00480C  8AF2               	bsf	242,5,c	;volatile
 11564   00480E                     
 11565                           ;timers.c: 16:     INTCON2bits.TMR0IP = 0;
 11566   00480E  94F1               	bcf	241,2,c	;volatile
 11567   004810  0012               	return		;funcret
 11568   004812                     __end_of_Configurar_Timer0:
 11569                           	callstack 0
 11570                           
 11571 ;; *************** function _Configurar_SPI *****************
 11572 ;; Defined at:
 11573 ;;		line 6 in file "spi.c"
 11574 ;; Parameters:    Size  Location     Type
 11575 ;;		None
 11576 ;; Auto vars:     Size  Location     Type
 11577 ;;		None
 11578 ;; Return value:  Size  Location     Type
 11579 ;;                  1    wreg      void 
 11580 ;; Registers used:
 11581 ;;		wreg, status,2
 11582 ;; Tracked objects:
 11583 ;;		On entry : 0/0
 11584 ;;		On exit  : 0/0
 11585 ;;		Unchanged: 0/0
 11586 ;; Data sizes:     COMRAM   BANK0   BANK1   BANK2   BANK3   BANK4   BANK5   BANK6   BANK7
 11587 ;;      Params:         0       0       0       0       0       0       0       0       0
 11588 ;;      Locals:         0       0       0       0       0       0       0       0       0
 11589 ;;      Temps:          0       0       0       0       0       0       0       0       0
 11590 ;;      Totals:         0       0       0       0       0       0       0       0       0
 11591 ;;Total ram usage:        0 bytes
 11592 ;; Hardware stack levels used: 1
 11593 ;; Hardware stack levels required when called: 4
 11594 ;; This function calls:
 11595 ;;		Nothing
 11596 ;; This function is called by:
 11597 ;;		_Inicializar_Sistema
 11598 ;; This function uses a non-reentrant model
 11599 ;;
 11600                           
 11601                           	psect	text46
 11602   00484E                     __ptext46:
 11603                           	callstack 0
 11604   00484E                     _Configurar_SPI:
 11605                           	callstack 25
 11606   00484E                     
 11607                           ;spi.c: 9:     SSPSTAT = 0x3F;
 11608   00484E  0E3F               	movlw	63
 11609   004850  6EC7               	movwf	199,c	;volatile
 11610                           
 11611                           ;spi.c: 12:     SSPCON1 = 0x00;
 11612   004852  0E00               	movlw	0
 11613   004854  6EC6               	movwf	198,c	;volatile
 11614   004856                     
 11615                           ;spi.c: 13:     SSPCON1bits.CKP = 1;
 11616   004856  88C6               	bsf	198,4,c	;volatile
 11617   004858                     
 11618                           ;spi.c: 14:     SSPSTATbits.SMP = 0;
 11619   004858  9EC7               	bcf	199,7,c	;volatile
 11620   00485A                     
 11621                           ;spi.c: 15:     SSPSTATbits.CKE = 0;
 11622   00485A  9CC7               	bcf	199,6,c	;volatile
 11623   00485C                     
 11624                           ;spi.c: 16:     SSPCON1bits.WCOL = 0;
 11625   00485C  9EC6               	bcf	198,7,c	;volatile
 11626   00485E                     
 11627                           ;spi.c: 21:     SSPCON1bits.SSPM0 = 1;
 11628   00485E  80C6               	bsf	198,0,c	;volatile
 11629   004860                     
 11630                           ;spi.c: 22:     SSPCON1bits.SSPM1 = 0;
 11631   004860  92C6               	bcf	198,1,c	;volatile
 11632   004862                     
 11633                           ;spi.c: 23:     SSPCON1bits.SSPM2 = 0;
 11634   004862  94C6               	bcf	198,2,c	;volatile
 11635   004864                     
 11636                           ;spi.c: 24:     SSPCON1bits.SSPM3 = 0;
 11637   004864  96C6               	bcf	198,3,c	;volatile
 11638   004866  0012               	return		;funcret
 11639   004868                     __end_of_Configurar_SPI:
 11640                           	callstack 0
 11641                           
 11642 ;; *************** function _Configurar_ADC *****************
 11643 ;; Defined at:
 11644 ;;		line 5 in file "adc.c"
 11645 ;; Parameters:    Size  Location     Type
 11646 ;;		None
 11647 ;; Auto vars:     Size  Location     Type
 11648 ;;		None
 11649 ;; Return value:  Size  Location     Type
 11650 ;;                  1    wreg      void 
 11651 ;; Registers used:
 11652 ;;		wreg, status,2
 11653 ;; Tracked objects:
 11654 ;;		On entry : 0/0
 11655 ;;		On exit  : 0/0
 11656 ;;		Unchanged: 0/0
 11657 ;; Data sizes:     COMRAM   BANK0   BANK1   BANK2   BANK3   BANK4   BANK5   BANK6   BANK7
 11658 ;;      Params:         0       0       0       0       0       0       0       0       0
 11659 ;;      Locals:         0       0       0       0       0       0       0       0       0
 11660 ;;      Temps:          0       0       0       0       0       0       0       0       0
 11661 ;;      Totals:         0       0       0       0       0       0       0       0       0
 11662 ;;Total ram usage:        0 bytes
 11663 ;; Hardware stack levels used: 1
 11664 ;; Hardware stack levels required when called: 4
 11665 ;; This function calls:
 11666 ;;		Nothing
 11667 ;; This function is called by:
 11668 ;;		_Inicializar_Sistema
 11669 ;; This function uses a non-reentrant model
 11670 ;;
 11671                           
 11672                           	psect	text47
 11673   004776                     __ptext47:
 11674                           	callstack 0
 11675   004776                     _Configurar_ADC:
 11676                           	callstack 25
 11677   004776                     
 11678                           ;adc.c: 8:     ADCON1bits.VCFG0 = 1;
 11679   004776  88C1               	bsf	193,4,c	;volatile
 11680                           
 11681                           ;adc.c: 9:     ADCON1bits.VCFG1 = 1;
 11682   004778  8AC1               	bsf	193,5,c	;volatile
 11683   00477A                     
 11684                           ;adc.c: 10:     ADCON1bits.PCFG = 0b1110;
 11685   00477A  50C1               	movf	193,w,c	;volatile
 11686   00477C  0BF0               	andlw	-16
 11687   00477E  090E               	iorlw	14
 11688   004780  6EC1               	movwf	193,c	;volatile
 11689   004782                     
 11690                           ;adc.c: 13:     ADCON2bits.ADFM = 1;
 11691   004782  8EC0               	bsf	192,7,c	;volatile
 11692                           
 11693                           ;adc.c: 17:     ADCON2bits.ACQT = 0b110;
 11694   004784  50C0               	movf	192,w,c	;volatile
 11695   004786  0BC7               	andlw	-57
 11696   004788  0930               	iorlw	48
 11697   00478A  6EC0               	movwf	192,c	;volatile
 11698                           
 11699                           ;adc.c: 18:     ADCON2bits.ADCS = 0b101;
 11700   00478C  50C0               	movf	192,w,c	;volatile
 11701   00478E  0BF8               	andlw	-8
 11702   004790  0905               	iorlw	5
 11703   004792  6EC0               	movwf	192,c	;volatile
 11704   004794                     
 11705                           ;adc.c: 20:     ADCON0bits.CHS0 = 0;
 11706   004794  94C2               	bcf	194,2,c	;volatile
 11707   004796                     
 11708                           ;adc.c: 21:     ADCON0bits.CHS1 = 0;
 11709   004796  96C2               	bcf	194,3,c	;volatile
 11710   004798                     
 11711                           ;adc.c: 22:     ADCON0bits.CHS2 = 0;
 11712   004798  98C2               	bcf	194,4,c	;volatile
 11713   00479A                     
 11714                           ;adc.c: 23:     ADCON0bits.CHS3 = 0;
 11715   00479A  9AC2               	bcf	194,5,c	;volatile
 11716   00479C                     
 11717                           ;adc.c: 30:     ADCON0bits.ADON = 1;
 11718   00479C  80C2               	bsf	194,0,c	;volatile
 11719   00479E                     
 11720                           ;adc.c: 31:     ADCON0bits.GO = 1;
 11721   00479E  82C2               	bsf	194,1,c	;volatile
 11722   0047A0  0012               	return		;funcret
 11723   0047A2                     __end_of_Configurar_ADC:
 11724                           	callstack 0
 11725                           
 11726 ;; *************** function _Asignar_Minutos_Timer0 *****************
 11727 ;; Defined at:
 11728 ;;		line 23 in file "timers.c"
 11729 ;; Parameters:    Size  Location     Type
 11730 ;;  minutos         4   10[BANK0 ] void 
 11731 ;; Auto vars:     Size  Location     Type
 11732 ;;		None
 11733 ;; Return value:  Size  Location     Type
 11734 ;;                  1    wreg      void 
 11735 ;; Registers used:
 11736 ;;		None
 11737 ;; Tracked objects:
 11738 ;;		On entry : 0/0
 11739 ;;		On exit  : 0/0
 11740 ;;		Unchanged: 0/0
 11741 ;; Data sizes:     COMRAM   BANK0   BANK1   BANK2   BANK3   BANK4   BANK5   BANK6   BANK7
 11742 ;;      Params:         0       4       0       0       0       0       0       0       0
 11743 ;;      Locals:         0       0       0       0       0       0       0       0       0
 11744 ;;      Temps:          0       0       0       0       0       0       0       0       0
 11745 ;;      Totals:         0       4       0       0       0       0       0       0       0
 11746 ;;Total ram usage:        4 bytes
 11747 ;; Hardware stack levels used: 1
 11748 ;; Hardware stack levels required when called: 4
 11749 ;; This function calls:
 11750 ;;		Nothing
 11751 ;; This function is called by:
 11752 ;;		_main
 11753 ;;		_Inicializar_Sistema
 11754 ;; This function uses a non-reentrant model
 11755 ;;
 11756                           
 11757                           	psect	text48
 11758   0048BC                     __ptext48:
 11759                           	callstack 0
 11760   0048BC                     _Asignar_Minutos_Timer0:
 11761                           	callstack 25
 11762   0048BC                     
 11763                           ;timers.c: 25:     NUM_MINUTOS_T0 = minutos;
 11764   0048BC  C06A  F1C8         	movff	Asignar_Minutos_Timer0@minutos,_NUM_MINUTOS_T0	;volatile
 11765   0048C0  C06B  F1C9         	movff	Asignar_Minutos_Timer0@minutos+1,_NUM_MINUTOS_T0+1	;volatile
 11766   0048C4  C06C  F1CA         	movff	Asignar_Minutos_Timer0@minutos+2,_NUM_MINUTOS_T0+2	;volatile
 11767   0048C8  C06D  F1CB         	movff	Asignar_Minutos_Timer0@minutos+3,_NUM_MINUTOS_T0+3	;volatile
 11768   0048CC  0012               	return		;funcret
 11769   0048CE                     __end_of_Asignar_Minutos_Timer0:
 11770                           	callstack 0
 11771                           
 11772 ;; *************** function _low_isr *****************
 11773 ;; Defined at:
 11774 ;;		line 10 in file "interrupt_manager.c"
 11775 ;; Parameters:    Size  Location     Type
 11776 ;;		None
 11777 ;; Auto vars:     Size  Location     Type
 11778 ;;		None
 11779 ;; Return value:  Size  Location     Type
 11780 ;;                  1    wreg      void 
 11781 ;; Registers used:
 11782 ;;		wreg, status,2, status,0, prodl, prodh, cstack
 11783 ;; Tracked objects:
 11784 ;;		On entry : 0/0
 11785 ;;		On exit  : 0/0
 11786 ;;		Unchanged: 0/0
 11787 ;; Data sizes:     COMRAM   BANK0   BANK1   BANK2   BANK3   BANK4   BANK5   BANK6   BANK7
 11788 ;;      Params:         0       0       0       0       0       0       0       0       0
 11789 ;;      Locals:         0       0       0       0       0       0       0       0       0
 11790 ;;      Temps:          5       0       0       0       0       0       0       0       0
 11791 ;;      Totals:         5       0       0       0       0       0       0       0       0
 11792 ;;Total ram usage:        5 bytes
 11793 ;; Hardware stack levels used: 1
 11794 ;; Hardware stack levels required when called: 3
 11795 ;; This function calls:
 11796 ;;		_Atencion_Int_Timer_0
 11797 ;;		_Atencion_Int_Timer_2
 11798 ;; This function is called by:
 11799 ;;		Interrupt level 1
 11800 ;; This function uses a non-reentrant model
 11801 ;;
 11802                           
 11803                           	psect	intcodelo
 11804   000018                     __pintcodelo:
 11805                           	callstack 0
 11806   000018                     _low_isr:
 11807                           	callstack 19
 11808                           
 11809                           ;incstack = 0
 11810   000018  8041               	bsf	int$flags,0,c	;set compiler interrupt flag (level 1)
 11811   00001A  CFD8 F01A          	movff	status,??_low_isr
 11812   00001E  CFE8 F01B          	movff	wreg,??_low_isr+1
 11813   000022  CFE0 F01C          	movff	bsr,??_low_isr+2
 11814   000026  CFF3 F01D          	movff	prodl,??_low_isr+3
 11815   00002A  CFF4 F01E          	movff	prodh,??_low_isr+4
 11816   00002E                     
 11817                           ;interrupt_manager.c: 11:     (INTCONbits.GIE = 0);
 11818   00002E  9EF2               	bcf	242,7,c	;volatile
 11819                           
 11820                           ;interrupt_manager.c: 14:     if (INTCONbits.TMR0IF) {
 11821   000030  A4F2               	btfss	242,2,c	;volatile
 11822   000032  EF1D  F000         	goto	i1u583_21
 11823   000036  EF1F  F000         	goto	i1u583_20
 11824   00003A                     i1u583_21:
 11825   00003A  EF21  F000         	goto	i1l5472
 11826   00003E                     i1u583_20:
 11827   00003E                     
 11828                           ;interrupt_manager.c: 15:         Atencion_Int_Timer_0();
 11829   00003E  ECD8  F020         	call	_Atencion_Int_Timer_0	;wreg free
 11830   000042                     i1l5472:
 11831                           
 11832                           ;interrupt_manager.c: 19:     if (PIR1bits.TMR2IF) {
 11833   000042  A29E               	btfss	158,1,c	;volatile
 11834   000044  EF26  F000         	goto	i1u584_21
 11835   000048  EF28  F000         	goto	i1u584_20
 11836   00004C                     i1u584_21:
 11837   00004C  EF2A  F000         	goto	i1l5476
 11838   000050                     i1u584_20:
 11839   000050                     
 11840                           ;interrupt_manager.c: 20:         Atencion_Int_Timer_2();
 11841   000050  EC86  F01D         	call	_Atencion_Int_Timer_2	;wreg free
 11842   000054                     i1l5476:
 11843                           
 11844                           ;interrupt_manager.c: 24:     if (PIR1bits.RCIF && PIE1bits.RCIE) {
 11845   000054  AA9E               	btfss	158,5,c	;volatile
 11846   000056  EF2F  F000         	goto	i1u585_21
 11847   00005A  EF31  F000         	goto	i1u585_20
 11848   00005E                     i1u585_21:
 11849   00005E  EF3B  F000         	goto	i1l107
 11850   000062                     i1u585_20:
 11851   000062  AA9D               	btfss	157,5,c	;volatile
 11852   000064  EF36  F000         	goto	i1u586_21
 11853   000068  EF38  F000         	goto	i1u586_20
 11854   00006C                     i1u586_21:
 11855   00006C  EF3B  F000         	goto	i1l107
 11856   000070                     i1u586_20:
 11857   000070                     
 11858                           ;interrupt_manager.c: 26:         dato_recibido = RCREG;
 11859   000070  CFAE F039          	movff	4014,_dato_recibido	;volatile
 11860                           
 11861                           ;interrupt_manager.c: 29:         PIR1bits.RCIF = 0;
 11862   000074  9A9E               	bcf	158,5,c	;volatile
 11863   000076                     i1l107:
 11864                           
 11865                           ;interrupt_manager.c: 31:     (INTCONbits.GIE = 1);
 11866   000076  8EF2               	bsf	242,7,c	;volatile
 11867   000078  C01E  FFF4         	movff	??_low_isr+4,prodh
 11868   00007C  C01D  FFF3         	movff	??_low_isr+3,prodl
 11869   000080  C01C  FFE0         	movff	??_low_isr+2,bsr
 11870   000084  C01B  FFE8         	movff	??_low_isr+1,wreg
 11871   000088  C01A  FFD8         	movff	??_low_isr,status
 11872   00008C  9041               	bcf	int$flags,0,c	;clear compiler interrupt flag (level 1)
 11873   00008E  0010               	retfie	
 11874   000090                     __end_of_low_isr:
 11875                           	callstack 0
 11876                           
 11877 ;; *************** function _Atencion_Int_Timer_2 *****************
 11878 ;; Defined at:
 11879 ;;		line 51 in file "interrupt_manager.c"
 11880 ;; Parameters:    Size  Location     Type
 11881 ;;		None
 11882 ;; Auto vars:     Size  Location     Type
 11883 ;;		None
 11884 ;; Return value:  Size  Location     Type
 11885 ;;                  1    wreg      void 
 11886 ;; Registers used:
 11887 ;;		wreg, status,2, status,0
 11888 ;; Tracked objects:
 11889 ;;		On entry : 0/0
 11890 ;;		On exit  : 0/0
 11891 ;;		Unchanged: 0/0
 11892 ;; Data sizes:     COMRAM   BANK0   BANK1   BANK2   BANK3   BANK4   BANK5   BANK6   BANK7
 11893 ;;      Params:         0       0       0       0       0       0       0       0       0
 11894 ;;      Locals:         0       0       0       0       0       0       0       0       0
 11895 ;;      Temps:          0       0       0       0       0       0       0       0       0
 11896 ;;      Totals:         0       0       0       0       0       0       0       0       0
 11897 ;;Total ram usage:        0 bytes
 11898 ;; Hardware stack levels used: 1
 11899 ;; Hardware stack levels required when called: 1
 11900 ;; This function calls:
 11901 ;;		Nothing
 11902 ;; This function is called by:
 11903 ;;		_low_isr
 11904 ;; This function uses a non-reentrant model
 11905 ;;
 11906                           
 11907                           	psect	text50
 11908   003B0C                     __ptext50:
 11909                           	callstack 0
 11910   003B0C                     _Atencion_Int_Timer_2:
 11911                           	callstack 20
 11912   003B0C                     
 11913                           ;interrupt_manager.c: 52:      PIR1bits.TMR2IF = 0;
 11914   003B0C  929E               	bcf	158,1,c	;volatile
 11915   003B0E                     
 11916                           ;interrupt_manager.c: 56:     if( cont_task0 >= 3 ) {
 11917   003B0E  5033               	movf	(_cont_task0+1)^0,w,c	;volatile
 11918   003B10  E109               	bnz	i1u551_20
 11919   003B12  0E03               	movlw	3
 11920   003B14  5C32               	subwf	_cont_task0^0,w,c	;volatile
 11921   003B16  A0D8               	btfss	status,0,c
 11922   003B18  EF90  F01D         	goto	i1u551_21
 11923   003B1C  EF92  F01D         	goto	i1u551_20
 11924   003B20                     i1u551_21:
 11925   003B20  EF9B  F01D         	goto	i1l5310
 11926   003B24                     i1u551_20:
 11927   003B24                     
 11928                           ;interrupt_manager.c: 57:         cont_task0 = 0;
 11929   003B24  0E00               	movlw	0
 11930   003B26  6E33               	movwf	(_cont_task0+1)^0,c	;volatile
 11931   003B28  0E00               	movlw	0
 11932   003B2A  6E32               	movwf	_cont_task0^0,c	;volatile
 11933                           
 11934                           ;interrupt_manager.c: 58:         HABILITAR_TASK0 = 1;
 11935   003B2C  0E01               	movlw	1
 11936   003B2E  0100               	movlb	0	; () banked
 11937   003B30  6FFC               	movwf	_HABILITAR_TASK0& (0+255),b	;volatile
 11938                           
 11939                           ;interrupt_manager.c: 59:     }
 11940   003B32  EF9D  F01D         	goto	i1l5312
 11941   003B36                     i1l5310:
 11942   003B36  4A32               	infsnz	_cont_task0^0,f,c	;volatile
 11943   003B38  2A33               	incf	(_cont_task0+1)^0,f,c	;volatile
 11944   003B3A                     i1l5312:
 11945                           
 11946                           ;interrupt_manager.c: 63:     if( cont_task1 >= 8 ) {
 11947   003B3A  5031               	movf	(_cont_task1+1)^0,w,c	;volatile
 11948   003B3C  E109               	bnz	i1u552_20
 11949   003B3E  0E08               	movlw	8
 11950   003B40  5C30               	subwf	_cont_task1^0,w,c	;volatile
 11951   003B42  A0D8               	btfss	status,0,c
 11952   003B44  EFA6  F01D         	goto	i1u552_21
 11953   003B48  EFA8  F01D         	goto	i1u552_20
 11954   003B4C                     i1u552_21:
 11955   003B4C  EFB1  F01D         	goto	i1l5316
 11956   003B50                     i1u552_20:
 11957   003B50                     
 11958                           ;interrupt_manager.c: 64:         cont_task1 = 0;
 11959   003B50  0E00               	movlw	0
 11960   003B52  6E31               	movwf	(_cont_task1+1)^0,c	;volatile
 11961   003B54  0E00               	movlw	0
 11962   003B56  6E30               	movwf	_cont_task1^0,c	;volatile
 11963                           
 11964                           ;interrupt_manager.c: 65:         HABILITAR_TASK1 = 1;
 11965   003B58  0E01               	movlw	1
 11966   003B5A  0100               	movlb	0	; () banked
 11967   003B5C  6FFB               	movwf	_HABILITAR_TASK1& (0+255),b	;volatile
 11968                           
 11969                           ;interrupt_manager.c: 66:     }
 11970   003B5E  EFB3  F01D         	goto	i1l5318
 11971   003B62                     i1l5316:
 11972   003B62  4A30               	infsnz	_cont_task1^0,f,c	;volatile
 11973   003B64  2A31               	incf	(_cont_task1+1)^0,f,c	;volatile
 11974   003B66                     i1l5318:
 11975                           
 11976                           ;interrupt_manager.c: 70:     if( cont_task2 >= 15 ) {
 11977   003B66  502F               	movf	(_cont_task2+1)^0,w,c	;volatile
 11978   003B68  E109               	bnz	i1u553_20
 11979   003B6A  0E0F               	movlw	15
 11980   003B6C  5C2E               	subwf	_cont_task2^0,w,c	;volatile
 11981   003B6E  A0D8               	btfss	status,0,c
 11982   003B70  EFBC  F01D         	goto	i1u553_21
 11983   003B74  EFBE  F01D         	goto	i1u553_20
 11984   003B78                     i1u553_21:
 11985   003B78  EFC7  F01D         	goto	i1l5322
 11986   003B7C                     i1u553_20:
 11987   003B7C                     
 11988                           ;interrupt_manager.c: 71:         cont_task2 = 0;
 11989   003B7C  0E00               	movlw	0
 11990   003B7E  6E2F               	movwf	(_cont_task2+1)^0,c	;volatile
 11991   003B80  0E00               	movlw	0
 11992   003B82  6E2E               	movwf	_cont_task2^0,c	;volatile
 11993                           
 11994                           ;interrupt_manager.c: 72:         HABILITAR_TASK2 = 1;
 11995   003B84  0E01               	movlw	1
 11996   003B86  0101               	movlb	1	; () banked
 11997   003B88  6F77               	movwf	_HABILITAR_TASK2& (0+255),b	;volatile
 11998                           
 11999                           ;interrupt_manager.c: 73:     }
 12000   003B8A  EFC9  F01D         	goto	i1l5324
 12001   003B8E                     i1l5322:
 12002   003B8E  4A2E               	infsnz	_cont_task2^0,f,c	;volatile
 12003   003B90  2A2F               	incf	(_cont_task2+1)^0,f,c	;volatile
 12004   003B92                     i1l5324:
 12005                           
 12006                           ;interrupt_manager.c: 77:     if( cont_task3 >= 30 ) {
 12007   003B92  502D               	movf	(_cont_task3+1)^0,w,c	;volatile
 12008   003B94  E109               	bnz	i1u554_20
 12009   003B96  0E1E               	movlw	30
 12010   003B98  5C2C               	subwf	_cont_task3^0,w,c	;volatile
 12011   003B9A  A0D8               	btfss	status,0,c
 12012   003B9C  EFD2  F01D         	goto	i1u554_21
 12013   003BA0  EFD4  F01D         	goto	i1u554_20
 12014   003BA4                     i1u554_21:
 12015   003BA4  EFDD  F01D         	goto	i1l5328
 12016   003BA8                     i1u554_20:
 12017   003BA8                     
 12018                           ;interrupt_manager.c: 78:         cont_task3 = 0;
 12019   003BA8  0E00               	movlw	0
 12020   003BAA  6E2D               	movwf	(_cont_task3+1)^0,c	;volatile
 12021   003BAC  0E00               	movlw	0
 12022   003BAE  6E2C               	movwf	_cont_task3^0,c	;volatile
 12023                           
 12024                           ;interrupt_manager.c: 79:         HABILITAR_TASK3 = 1;
 12025   003BB0  0E01               	movlw	1
 12026   003BB2  0101               	movlb	1	; () banked
 12027   003BB4  6F76               	movwf	_HABILITAR_TASK3& (0+255),b	;volatile
 12028                           
 12029                           ;interrupt_manager.c: 80:     }
 12030   003BB6  EFDF  F01D         	goto	i1l5330
 12031   003BBA                     i1l5328:
 12032   003BBA  4A2C               	infsnz	_cont_task3^0,f,c	;volatile
 12033   003BBC  2A2D               	incf	(_cont_task3+1)^0,f,c	;volatile
 12034   003BBE                     i1l5330:
 12035                           
 12036                           ;interrupt_manager.c: 84:     if( cont_task4 >= 60 ) {
 12037   003BBE  502B               	movf	(_cont_task4+1)^0,w,c	;volatile
 12038   003BC0  E109               	bnz	i1u555_20
 12039   003BC2  0E3C               	movlw	60
 12040   003BC4  5C2A               	subwf	_cont_task4^0,w,c	;volatile
 12041   003BC6  A0D8               	btfss	status,0,c
 12042   003BC8  EFE8  F01D         	goto	i1u555_21
 12043   003BCC  EFEA  F01D         	goto	i1u555_20
 12044   003BD0                     i1u555_21:
 12045   003BD0  EFF3  F01D         	goto	i1l5334
 12046   003BD4                     i1u555_20:
 12047   003BD4                     
 12048                           ;interrupt_manager.c: 85:         cont_task4 = 0;
 12049   003BD4  0E00               	movlw	0
 12050   003BD6  6E2B               	movwf	(_cont_task4+1)^0,c	;volatile
 12051   003BD8  0E00               	movlw	0
 12052   003BDA  6E2A               	movwf	_cont_task4^0,c	;volatile
 12053                           
 12054                           ;interrupt_manager.c: 86:         HABILITAR_TASK4 = 1;
 12055   003BDC  0E01               	movlw	1
 12056   003BDE  0101               	movlb	1	; () banked
 12057   003BE0  6F75               	movwf	_HABILITAR_TASK4& (0+255),b	;volatile
 12058                           
 12059                           ;interrupt_manager.c: 87:     }
 12060   003BE2  EFF5  F01D         	goto	i1l126
 12061   003BE6                     i1l5334:
 12062   003BE6  4A2A               	infsnz	_cont_task4^0,f,c	;volatile
 12063   003BE8  2A2B               	incf	(_cont_task4+1)^0,f,c	;volatile
 12064   003BEA                     i1l126:
 12065   003BEA  0012               	return		;funcret
 12066   003BEC                     __end_of_Atencion_Int_Timer_2:
 12067                           	callstack 0
 12068                           
 12069 ;; *************** function _Atencion_Int_Timer_0 *****************
 12070 ;; Defined at:
 12071 ;;		line 35 in file "interrupt_manager.c"
 12072 ;; Parameters:    Size  Location     Type
 12073 ;;		None
 12074 ;; Auto vars:     Size  Location     Type
 12075 ;;		None
 12076 ;; Return value:  Size  Location     Type
 12077 ;;                  1    wreg      void 
 12078 ;; Registers used:
 12079 ;;		wreg, status,2, status,0, prodl, prodh, cstack
 12080 ;; Tracked objects:
 12081 ;;		On entry : 0/0
 12082 ;;		On exit  : 0/0
 12083 ;;		Unchanged: 0/0
 12084 ;; Data sizes:     COMRAM   BANK0   BANK1   BANK2   BANK3   BANK4   BANK5   BANK6   BANK7
 12085 ;;      Params:         0       0       0       0       0       0       0       0       0
 12086 ;;      Locals:         0       0       0       0       0       0       0       0       0
 12087 ;;      Temps:          0       0       0       0       0       0       0       0       0
 12088 ;;      Totals:         0       0       0       0       0       0       0       0       0
 12089 ;;Total ram usage:        0 bytes
 12090 ;; Hardware stack levels used: 1
 12091 ;; Hardware stack levels required when called: 2
 12092 ;; This function calls:
 12093 ;;		i1___flmul
 12094 ;;		i1___fltol
 12095 ;; This function is called by:
 12096 ;;		_low_isr
 12097 ;; This function uses a non-reentrant model
 12098 ;;
 12099                           
 12100                           	psect	text51
 12101   0041B0                     __ptext51:
 12102                           	callstack 0
 12103   0041B0                     _Atencion_Int_Timer_0:
 12104                           	callstack 19
 12105   0041B0                     
 12106                           ;interrupt_manager.c: 37:     TMR0L = 0;
 12107   0041B0  0E00               	movlw	0
 12108   0041B2  6ED6               	movwf	214,c	;volatile
 12109   0041B4                     
 12110                           ;interrupt_manager.c: 38:     INTCONbits.TMR0IF =0;
 12111   0041B4  94F2               	bcf	242,2,c	;volatile
 12112   0041B6                     
 12113                           ;interrupt_manager.c: 41:     temp_num_minutos_t0 = (double)(562*NUM_MINUTOS_T0);
 12114   0041B6  C1C8  F001         	movff	_NUM_MINUTOS_T0,i1___flmul@b	;volatile
 12115   0041BA  C1C9  F002         	movff	_NUM_MINUTOS_T0+1,i1___flmul@b+1	;volatile
 12116   0041BE  C1CA  F003         	movff	_NUM_MINUTOS_T0+2,i1___flmul@b+2	;volatile
 12117   0041C2  C1CB  F004         	movff	_NUM_MINUTOS_T0+3,i1___flmul@b+3	;volatile
 12118   0041C6  0E00               	movlw	0
 12119   0041C8  6E05               	movwf	i1___flmul@a^0,c
 12120   0041CA  0E80               	movlw	128
 12121   0041CC  6E06               	movwf	(i1___flmul@a+1)^0,c
 12122   0041CE  0E0C               	movlw	12
 12123   0041D0  6E07               	movwf	(i1___flmul@a+2)^0,c
 12124   0041D2  0E44               	movlw	68
 12125   0041D4  6E08               	movwf	(i1___flmul@a+3)^0,c
 12126   0041D6  EC31  F014         	call	i1___flmul	;wreg free
 12127   0041DA  C001  F13A         	movff	?i1___flmul,_temp_num_minutos_t0	;volatile
 12128   0041DE  C002  F13B         	movff	?i1___flmul+1,_temp_num_minutos_t0+1	;volatile
 12129   0041E2  C003  F13C         	movff	?i1___flmul+2,_temp_num_minutos_t0+2	;volatile
 12130   0041E6  C004  F13D         	movff	?i1___flmul+3,_temp_num_minutos_t0+3	;volatile
 12131   0041EA                     
 12132                           ;interrupt_manager.c: 42:     if(contador_minutos_t0 >= (uint16_t)(temp_num_minutos_t0))
      +                          {
 12133   0041EA  C13A  F001         	movff	_temp_num_minutos_t0,i1___fltol@f1	;volatile
 12134   0041EE  C13B  F002         	movff	_temp_num_minutos_t0+1,i1___fltol@f1+1	;volatile
 12135   0041F2  C13C  F003         	movff	_temp_num_minutos_t0+2,i1___fltol@f1+2	;volatile
 12136   0041F6  C13D  F004         	movff	_temp_num_minutos_t0+3,i1___fltol@f1+3	;volatile
 12137   0041FA  EC83  F01C         	call	i1___fltol	;wreg free
 12138   0041FE  5001               	movf	?i1___fltol^0,w,c
 12139   004200  5C34               	subwf	_contador_minutos_t0^0,w,c	;volatile
 12140   004202  5002               	movf	(?i1___fltol+1)^0,w,c
 12141   004204  5835               	subwfb	(_contador_minutos_t0+1)^0,w,c	;volatile
 12142   004206  A0D8               	btfss	status,0,c
 12143   004208  EF08  F021         	goto	i1u550_21
 12144   00420C  EF0A  F021         	goto	i1u550_20
 12145   004210                     i1u550_21:
 12146   004210  EF13  F021         	goto	i1l5302
 12147   004214                     i1u550_20:
 12148   004214                     
 12149                           ;interrupt_manager.c: 43:         contador_minutos_t0 = 0;
 12150   004214  0E00               	movlw	0
 12151   004216  6E35               	movwf	(_contador_minutos_t0+1)^0,c	;volatile
 12152   004218  0E00               	movlw	0
 12153   00421A  6E34               	movwf	_contador_minutos_t0^0,c	;volatile
 12154                           
 12155                           ;interrupt_manager.c: 44:         HABILITAR_TAREA_MINUTOS_SOL = 1;
 12156   00421C  0E01               	movlw	1
 12157   00421E  0101               	movlb	1	; () banked
 12158   004220  6F74               	movwf	_HABILITAR_TAREA_MINUTOS_SOL& (0+255),b	;volatile
 12159                           
 12160                           ;interrupt_manager.c: 46:     }
 12161   004222  EF15  F021         	goto	i1l113
 12162   004226                     i1l5302:
 12163   004226  4A34               	infsnz	_contador_minutos_t0^0,f,c	;volatile
 12164   004228  2A35               	incf	(_contador_minutos_t0+1)^0,f,c	;volatile
 12165   00422A                     i1l113:
 12166   00422A  0012               	return		;funcret
 12167   00422C                     __end_of_Atencion_Int_Timer_0:
 12168                           	callstack 0
 12169                           
 12170 ;; *************** function i1___fltol *****************
 12171 ;; Defined at:
 12172 ;;		line 43 in file "C:\Program Files\Microchip\xc8\v2.41\pic\sources\c99\common\fltol.c"
 12173 ;; Parameters:    Size  Location     Type
 12174 ;;  f1              4    0[COMRAM] void 
 12175 ;; Auto vars:     Size  Location     Type
 12176 ;;  exp1            1    9[COMRAM] unsigned char 
 12177 ;;  sign1           1    8[COMRAM] unsigned char 
 12178 ;; Return value:  Size  Location     Type
 12179 ;;                  4    0[COMRAM] long 
 12180 ;; Registers used:
 12181 ;;		wreg, status,2, status,0
 12182 ;; Tracked objects:
 12183 ;;		On entry : 0/0
 12184 ;;		On exit  : 0/0
 12185 ;;		Unchanged: 0/0
 12186 ;; Data sizes:     COMRAM   BANK0   BANK1   BANK2   BANK3   BANK4   BANK5   BANK6   BANK7
 12187 ;;      Params:         4       0       0       0       0       0       0       0       0
 12188 ;;      Locals:         2       0       0       0       0       0       0       0       0
 12189 ;;      Temps:          4       0       0       0       0       0       0       0       0
 12190 ;;      Totals:        10       0       0       0       0       0       0       0       0
 12191 ;;Total ram usage:       10 bytes
 12192 ;; Hardware stack levels used: 1
 12193 ;; Hardware stack levels required when called: 1
 12194 ;; This function calls:
 12195 ;;		Nothing
 12196 ;; This function is called by:
 12197 ;;		_Atencion_Int_Timer_0
 12198 ;; This function uses a non-reentrant model
 12199 ;;
 12200                           
 12201                           	psect	text52
 12202   003906                     __ptext52:
 12203                           	callstack 0
 12204   003906                     i1___fltol:
 12205                           	callstack 19
 12206   003906  3403               	rlcf	(i1___fltol@f1+2)^0,w,c
 12207   003908  3404               	rlcf	(i1___fltol@f1+3)^0,w,c
 12208   00390A  6E0A               	movwf	i1___fltol@exp1^0,c
 12209   00390C  500A               	movf	i1___fltol@exp1^0,w,c
 12210   00390E  A4D8               	btfss	status,2,c
 12211   003910  EF8C  F01C         	goto	i1u524_21
 12212   003914  EF8E  F01C         	goto	i1u524_20
 12213   003918                     i1u524_21:
 12214   003918  EF98  F01C         	goto	i1l5124
 12215   00391C                     i1u524_20:
 12216   00391C                     i1l5120:
 12217   00391C  0E00               	movlw	0
 12218   00391E  6E01               	movwf	?i1___fltol^0,c
 12219   003920  0E00               	movlw	0
 12220   003922  6E02               	movwf	(?i1___fltol+1)^0,c
 12221   003924  0E00               	movlw	0
 12222   003926  6E03               	movwf	(?i1___fltol+2)^0,c
 12223   003928  0E00               	movlw	0
 12224   00392A  6E04               	movwf	(?i1___fltol+3)^0,c
 12225   00392C  EF05  F01D         	goto	i1l893
 12226   003930                     i1l5124:
 12227   003930  C001  F005         	movff	i1___fltol@f1,??i1___fltol
 12228   003934  C002  F006         	movff	i1___fltol@f1+1,??i1___fltol+1
 12229   003938  C003  F007         	movff	i1___fltol@f1+2,??i1___fltol+2
 12230   00393C  C004  F008         	movff	i1___fltol@f1+3,??i1___fltol+3
 12231   003940  0E20               	movlw	32
 12232   003942  EFA8  F01C         	goto	i1u525_20
 12233   003946                     i1u525_25:
 12234   003946  90D8               	bcf	status,0,c
 12235   003948  3208               	rrcf	(??i1___fltol+3)^0,f,c
 12236   00394A  3207               	rrcf	(??i1___fltol+2)^0,f,c
 12237   00394C  3206               	rrcf	(??i1___fltol+1)^0,f,c
 12238   00394E  3205               	rrcf	??i1___fltol^0,f,c
 12239   003950                     i1u525_20:
 12240   003950  2EE8               	decfsz	wreg,f,c
 12241   003952  EFA3  F01C         	goto	i1u525_25
 12242   003956  5005               	movf	??i1___fltol^0,w,c
 12243   003958  6E09               	movwf	i1___fltol@sign1^0,c
 12244   00395A  8E03               	bsf	(i1___fltol@f1+2)^0,7,c
 12245   00395C  0EFF               	movlw	255
 12246   00395E  1601               	andwf	i1___fltol@f1^0,f,c
 12247   003960  0EFF               	movlw	255
 12248   003962  1602               	andwf	(i1___fltol@f1+1)^0,f,c
 12249   003964  0EFF               	movlw	255
 12250   003966  1603               	andwf	(i1___fltol@f1+2)^0,f,c
 12251   003968  0E00               	movlw	0
 12252   00396A  1604               	andwf	(i1___fltol@f1+3)^0,f,c
 12253   00396C  0E96               	movlw	150
 12254   00396E  5E0A               	subwf	i1___fltol@exp1^0,f,c
 12255   003970  BE0A               	btfsc	i1___fltol@exp1^0,7,c
 12256   003972  EFBF  F01C         	goto	i1u526_20
 12257   003976  EFBD  F01C         	goto	i1u526_21
 12258   00397A                     i1u526_21:
 12259   00397A  EFD5  F01C         	goto	i1l5144
 12260   00397E                     i1u526_20:
 12261   00397E  500A               	movf	i1___fltol@exp1^0,w,c
 12262   003980  0A80               	xorlw	128
 12263   003982  0F97               	addlw	151
 12264   003984  B0D8               	btfsc	status,0,c
 12265   003986  EFC7  F01C         	goto	i1u527_21
 12266   00398A  EFC9  F01C         	goto	i1u527_20
 12267   00398E                     i1u527_21:
 12268   00398E  EFCB  F01C         	goto	i1l5140
 12269   003992                     i1u527_20:
 12270   003992  EF8E  F01C         	goto	i1l5120
 12271   003996                     i1l5140:
 12272   003996  90D8               	bcf	status,0,c
 12273   003998  3204               	rrcf	(i1___fltol@f1+3)^0,f,c
 12274   00399A  3203               	rrcf	(i1___fltol@f1+2)^0,f,c
 12275   00399C  3202               	rrcf	(i1___fltol@f1+1)^0,f,c
 12276   00399E  3201               	rrcf	i1___fltol@f1^0,f,c
 12277   0039A0  3E0A               	incfsz	i1___fltol@exp1^0,f,c
 12278   0039A2  EFCB  F01C         	goto	i1l5140
 12279   0039A6  EFED  F01C         	goto	i1l5154
 12280   0039AA                     i1l5144:
 12281   0039AA  0E1F               	movlw	31
 12282   0039AC  640A               	cpfsgt	i1___fltol@exp1^0,c
 12283   0039AE  EFDB  F01C         	goto	i1u528_21
 12284   0039B2  EFDD  F01C         	goto	i1u528_20
 12285   0039B6                     i1u528_21:
 12286   0039B6  EFE5  F01C         	goto	i1l5152
 12287   0039BA                     i1u528_20:
 12288   0039BA  EF8E  F01C         	goto	i1l5120
 12289   0039BE                     i1l5150:
 12290   0039BE  90D8               	bcf	status,0,c
 12291   0039C0  3601               	rlcf	i1___fltol@f1^0,f,c
 12292   0039C2  3602               	rlcf	(i1___fltol@f1+1)^0,f,c
 12293   0039C4  3603               	rlcf	(i1___fltol@f1+2)^0,f,c
 12294   0039C6  3604               	rlcf	(i1___fltol@f1+3)^0,f,c
 12295   0039C8  060A               	decf	i1___fltol@exp1^0,f,c
 12296   0039CA                     i1l5152:
 12297   0039CA  500A               	movf	i1___fltol@exp1^0,w,c
 12298   0039CC  A4D8               	btfss	status,2,c
 12299   0039CE  EFEB  F01C         	goto	i1u529_21
 12300   0039D2  EFED  F01C         	goto	i1u529_20
 12301   0039D6                     i1u529_21:
 12302   0039D6  EFDF  F01C         	goto	i1l5150
 12303   0039DA                     i1u529_20:
 12304   0039DA                     i1l5154:
 12305   0039DA  5009               	movf	i1___fltol@sign1^0,w,c
 12306   0039DC  B4D8               	btfsc	status,2,c
 12307   0039DE  EFF3  F01C         	goto	i1u530_21
 12308   0039E2  EFF5  F01C         	goto	i1u530_20
 12309   0039E6                     i1u530_21:
 12310   0039E6  EFFD  F01C         	goto	i1l5158
 12311   0039EA                     i1u530_20:
 12312   0039EA  1E04               	comf	(i1___fltol@f1+3)^0,f,c
 12313   0039EC  1E03               	comf	(i1___fltol@f1+2)^0,f,c
 12314   0039EE  1E02               	comf	(i1___fltol@f1+1)^0,f,c
 12315   0039F0  6C01               	negf	i1___fltol@f1^0,c
 12316   0039F2  0E00               	movlw	0
 12317   0039F4  2202               	addwfc	(i1___fltol@f1+1)^0,f,c
 12318   0039F6  2203               	addwfc	(i1___fltol@f1+2)^0,f,c
 12319   0039F8  2204               	addwfc	(i1___fltol@f1+3)^0,f,c
 12320   0039FA                     i1l5158:
 12321   0039FA  C001  F001         	movff	i1___fltol@f1,?i1___fltol
 12322   0039FE  C002  F002         	movff	i1___fltol@f1+1,?i1___fltol+1
 12323   003A02  C003  F003         	movff	i1___fltol@f1+2,?i1___fltol+2
 12324   003A06  C004  F004         	movff	i1___fltol@f1+3,?i1___fltol+3
 12325   003A0A                     i1l893:
 12326   003A0A  0012               	return		;funcret
 12327   003A0C                     __end_ofi1___fltol:
 12328                           	callstack 0
 12329                           
 12330 ;; *************** function i1___flmul *****************
 12331 ;; Defined at:
 12332 ;;		line 8 in file "C:\Program Files\Microchip\xc8\v2.41\pic\sources\c99\common\sprcmul.c"
 12333 ;; Parameters:    Size  Location     Type
 12334 ;;  b               4    0[COMRAM] long 
 12335 ;;  a               4    4[COMRAM] long 
 12336 ;; Auto vars:     Size  Location     Type
 12337 ;;  prod            4   19[COMRAM] struct .
 12338 ;;  grs             4   13[COMRAM] unsigned long 
 12339 ;;  temp            2   23[COMRAM] struct .
 12340 ;;  bexp            1   18[COMRAM] unsigned char 
 12341 ;;  aexp            1   17[COMRAM] unsigned char 
 12342 ;;  sign            1   12[COMRAM] unsigned char 
 12343 ;; Return value:  Size  Location     Type
 12344 ;;                  4    0[COMRAM] unsigned char 
 12345 ;; Registers used:
 12346 ;;		wreg, status,2, status,0, prodl, prodh
 12347 ;; Tracked objects:
 12348 ;;		On entry : 0/0
 12349 ;;		On exit  : 0/0
 12350 ;;		Unchanged: 0/0
 12351 ;; Data sizes:     COMRAM   BANK0   BANK1   BANK2   BANK3   BANK4   BANK5   BANK6   BANK7
 12352 ;;      Params:         8       0       0       0       0       0       0       0       0
 12353 ;;      Locals:        13       0       0       0       0       0       0       0       0
 12354 ;;      Temps:          4       0       0       0       0       0       0       0       0
 12355 ;;      Totals:        25       0       0       0       0       0       0       0       0
 12356 ;;Total ram usage:       25 bytes
 12357 ;; Hardware stack levels used: 1
 12358 ;; Hardware stack levels required when called: 1
 12359 ;; This function calls:
 12360 ;;		Nothing
 12361 ;; This function is called by:
 12362 ;;		_Atencion_Int_Timer_0
 12363 ;; This function uses a non-reentrant model
 12364 ;;
 12365                           
 12366                           	psect	text53
 12367   002862                     __ptext53:
 12368                           	callstack 0
 12369   002862                     i1___flmul:
 12370                           	callstack 19
 12371   002862  5004               	movf	(i1___flmul@b+3)^0,w,c
 12372   002864  0B80               	andlw	128
 12373   002866  6E0D               	movwf	i1___flmul@sign^0,c
 12374   002868  5004               	movf	(i1___flmul@b+3)^0,w,c
 12375   00286A  2404               	addwf	(i1___flmul@b+3)^0,w,c
 12376   00286C  6E13               	movwf	i1___flmul@bexp^0,c
 12377   00286E  AE03               	btfss	(i1___flmul@b+2)^0,7,c
 12378   002870  EF3C  F014         	goto	i1u531_21
 12379   002874  EF3E  F014         	goto	i1u531_20
 12380   002878                     i1u531_21:
 12381   002878  EF3F  F014         	goto	i1l5168
 12382   00287C                     i1u531_20:
 12383   00287C  8013               	bsf	i1___flmul@bexp^0,0,c
 12384   00287E                     i1l5168:
 12385   00287E  5013               	movf	i1___flmul@bexp^0,w,c
 12386   002880  B4D8               	btfsc	status,2,c
 12387   002882  EF45  F014         	goto	i1u532_21
 12388   002886  EF47  F014         	goto	i1u532_20
 12389   00288A                     i1u532_21:
 12390   00288A  EF5A  F014         	goto	i1l5176
 12391   00288E                     i1u532_20:
 12392   00288E  2813               	incf	i1___flmul@bexp^0,w,c
 12393   002890  A4D8               	btfss	status,2,c
 12394   002892  EF4D  F014         	goto	i1u533_21
 12395   002896  EF4F  F014         	goto	i1u533_20
 12396   00289A                     i1u533_21:
 12397   00289A  EF57  F014         	goto	i1l5174
 12398   00289E                     i1u533_20:
 12399   00289E  0E00               	movlw	0
 12400   0028A0  6E01               	movwf	i1___flmul@b^0,c
 12401   0028A2  0E00               	movlw	0
 12402   0028A4  6E02               	movwf	(i1___flmul@b+1)^0,c
 12403   0028A6  0E00               	movlw	0
 12404   0028A8  6E03               	movwf	(i1___flmul@b+2)^0,c
 12405   0028AA  0E00               	movlw	0
 12406   0028AC  6E04               	movwf	(i1___flmul@b+3)^0,c
 12407   0028AE                     i1l5174:
 12408   0028AE  8E03               	bsf	(i1___flmul@b+2)^0,7,c
 12409   0028B0  EF62  F014         	goto	i1l5178
 12410   0028B4                     i1l5176:
 12411   0028B4  0E00               	movlw	0
 12412   0028B6  6E01               	movwf	i1___flmul@b^0,c
 12413   0028B8  0E00               	movlw	0
 12414   0028BA  6E02               	movwf	(i1___flmul@b+1)^0,c
 12415   0028BC  0E00               	movlw	0
 12416   0028BE  6E03               	movwf	(i1___flmul@b+2)^0,c
 12417   0028C0  0E00               	movlw	0
 12418   0028C2  6E04               	movwf	(i1___flmul@b+3)^0,c
 12419   0028C4                     i1l5178:
 12420   0028C4  5008               	movf	(i1___flmul@a+3)^0,w,c
 12421   0028C6  0B80               	andlw	128
 12422   0028C8  1A0D               	xorwf	i1___flmul@sign^0,f,c
 12423   0028CA  5008               	movf	(i1___flmul@a+3)^0,w,c
 12424   0028CC  2408               	addwf	(i1___flmul@a+3)^0,w,c
 12425   0028CE  6E12               	movwf	i1___flmul@aexp^0,c
 12426   0028D0  AE07               	btfss	(i1___flmul@a+2)^0,7,c
 12427   0028D2  EF6D  F014         	goto	i1u534_21
 12428   0028D6  EF6F  F014         	goto	i1u534_20
 12429   0028DA                     i1u534_21:
 12430   0028DA  EF70  F014         	goto	i1l5186
 12431   0028DE                     i1u534_20:
 12432   0028DE  8012               	bsf	i1___flmul@aexp^0,0,c
 12433   0028E0                     i1l5186:
 12434   0028E0  5012               	movf	i1___flmul@aexp^0,w,c
 12435   0028E2  B4D8               	btfsc	status,2,c
 12436   0028E4  EF76  F014         	goto	i1u535_21
 12437   0028E8  EF78  F014         	goto	i1u535_20
 12438   0028EC                     i1u535_21:
 12439   0028EC  EF8B  F014         	goto	i1l5194
 12440   0028F0                     i1u535_20:
 12441   0028F0  2812               	incf	i1___flmul@aexp^0,w,c
 12442   0028F2  A4D8               	btfss	status,2,c
 12443   0028F4  EF7E  F014         	goto	i1u536_21
 12444   0028F8  EF80  F014         	goto	i1u536_20
 12445   0028FC                     i1u536_21:
 12446   0028FC  EF88  F014         	goto	i1l5192
 12447   002900                     i1u536_20:
 12448   002900  0E00               	movlw	0
 12449   002902  6E05               	movwf	i1___flmul@a^0,c
 12450   002904  0E00               	movlw	0
 12451   002906  6E06               	movwf	(i1___flmul@a+1)^0,c
 12452   002908  0E00               	movlw	0
 12453   00290A  6E07               	movwf	(i1___flmul@a+2)^0,c
 12454   00290C  0E00               	movlw	0
 12455   00290E  6E08               	movwf	(i1___flmul@a+3)^0,c
 12456   002910                     i1l5192:
 12457   002910  8E07               	bsf	(i1___flmul@a+2)^0,7,c
 12458   002912  EF93  F014         	goto	i1l1210
 12459   002916                     i1l5194:
 12460   002916  0E00               	movlw	0
 12461   002918  6E05               	movwf	i1___flmul@a^0,c
 12462   00291A  0E00               	movlw	0
 12463   00291C  6E06               	movwf	(i1___flmul@a+1)^0,c
 12464   00291E  0E00               	movlw	0
 12465   002920  6E07               	movwf	(i1___flmul@a+2)^0,c
 12466   002922  0E00               	movlw	0
 12467   002924  6E08               	movwf	(i1___flmul@a+3)^0,c
 12468   002926                     i1l1210:
 12469   002926  5012               	movf	i1___flmul@aexp^0,w,c
 12470   002928  B4D8               	btfsc	status,2,c
 12471   00292A  EF99  F014         	goto	i1u537_21
 12472   00292E  EF9B  F014         	goto	i1u537_20
 12473   002932                     i1u537_21:
 12474   002932  EFA3  F014         	goto	i1l5198
 12475   002936                     i1u537_20:
 12476   002936  5013               	movf	i1___flmul@bexp^0,w,c
 12477   002938  A4D8               	btfss	status,2,c
 12478   00293A  EFA1  F014         	goto	i1u538_21
 12479   00293E  EFA3  F014         	goto	i1u538_20
 12480   002942                     i1u538_21:
 12481   002942  EFAD  F014         	goto	i1l5202
 12482   002946                     i1u538_20:
 12483   002946                     i1l5198:
 12484   002946  0E00               	movlw	0
 12485   002948  6E01               	movwf	?i1___flmul^0,c
 12486   00294A  0E00               	movlw	0
 12487   00294C  6E02               	movwf	(?i1___flmul+1)^0,c
 12488   00294E  0E00               	movlw	0
 12489   002950  6E03               	movwf	(?i1___flmul+2)^0,c
 12490   002952  0E00               	movlw	0
 12491   002954  6E04               	movwf	(?i1___flmul+3)^0,c
 12492   002956  EF45  F016         	goto	i1l1214
 12493   00295A                     i1l5202:
 12494   00295A  5007               	movf	(i1___flmul@a+2)^0,w,c
 12495   00295C  0201               	mulwf	i1___flmul@b^0,c
 12496   00295E  CFF3 F018          	movff	prodl,i1___flmul@temp
 12497   002962  CFF4 F019          	movff	prodh,i1___flmul@temp+1
 12498   002966  5018               	movf	i1___flmul@temp^0,w,c
 12499   002968  6E0E               	movwf	i1___flmul@grs^0,c
 12500   00296A  6A0F               	clrf	(i1___flmul@grs+1)^0,c
 12501   00296C  6A10               	clrf	(i1___flmul@grs+2)^0,c
 12502   00296E  6A11               	clrf	(i1___flmul@grs+3)^0,c
 12503   002970  5019               	movf	(i1___flmul@temp+1)^0,w,c
 12504   002972  6E14               	movwf	i1___flmul@prod^0,c
 12505   002974  6A15               	clrf	(i1___flmul@prod+1)^0,c
 12506   002976  6A16               	clrf	(i1___flmul@prod+2)^0,c
 12507   002978  6A17               	clrf	(i1___flmul@prod+3)^0,c
 12508   00297A  5006               	movf	(i1___flmul@a+1)^0,w,c
 12509   00297C  0202               	mulwf	(i1___flmul@b+1)^0,c
 12510   00297E  CFF3 F018          	movff	prodl,i1___flmul@temp
 12511   002982  CFF4 F019          	movff	prodh,i1___flmul@temp+1
 12512   002986  5018               	movf	i1___flmul@temp^0,w,c
 12513   002988  260E               	addwf	i1___flmul@grs^0,f,c
 12514   00298A  0E00               	movlw	0
 12515   00298C  220F               	addwfc	(i1___flmul@grs+1)^0,f,c
 12516   00298E  2210               	addwfc	(i1___flmul@grs+2)^0,f,c
 12517   002990  2211               	addwfc	(i1___flmul@grs+3)^0,f,c
 12518   002992  5019               	movf	(i1___flmul@temp+1)^0,w,c
 12519   002994  2614               	addwf	i1___flmul@prod^0,f,c
 12520   002996  0E00               	movlw	0
 12521   002998  2215               	addwfc	(i1___flmul@prod+1)^0,f,c
 12522   00299A  2216               	addwfc	(i1___flmul@prod+2)^0,f,c
 12523   00299C  2217               	addwfc	(i1___flmul@prod+3)^0,f,c
 12524   00299E  5005               	movf	i1___flmul@a^0,w,c
 12525   0029A0  0203               	mulwf	(i1___flmul@b+2)^0,c
 12526   0029A2  CFF3 F018          	movff	prodl,i1___flmul@temp
 12527   0029A6  CFF4 F019          	movff	prodh,i1___flmul@temp+1
 12528   0029AA  5018               	movf	i1___flmul@temp^0,w,c
 12529   0029AC  260E               	addwf	i1___flmul@grs^0,f,c
 12530   0029AE  0E00               	movlw	0
 12531   0029B0  220F               	addwfc	(i1___flmul@grs+1)^0,f,c
 12532   0029B2  2210               	addwfc	(i1___flmul@grs+2)^0,f,c
 12533   0029B4  2211               	addwfc	(i1___flmul@grs+3)^0,f,c
 12534   0029B6  5019               	movf	(i1___flmul@temp+1)^0,w,c
 12535   0029B8  2614               	addwf	i1___flmul@prod^0,f,c
 12536   0029BA  0E00               	movlw	0
 12537   0029BC  2215               	addwfc	(i1___flmul@prod+1)^0,f,c
 12538   0029BE  2216               	addwfc	(i1___flmul@prod+2)^0,f,c
 12539   0029C0  2217               	addwfc	(i1___flmul@prod+3)^0,f,c
 12540   0029C2  C010  F011         	movff	i1___flmul@grs+2,i1___flmul@grs+3
 12541   0029C6  C00F  F010         	movff	i1___flmul@grs+1,i1___flmul@grs+2
 12542   0029CA  C00E  F00F         	movff	i1___flmul@grs,i1___flmul@grs+1
 12543   0029CE  6A0E               	clrf	i1___flmul@grs^0,c
 12544   0029D0  5005               	movf	i1___flmul@a^0,w,c
 12545   0029D2  0202               	mulwf	(i1___flmul@b+1)^0,c
 12546   0029D4  CFF3 F018          	movff	prodl,i1___flmul@temp
 12547   0029D8  CFF4 F019          	movff	prodh,i1___flmul@temp+1
 12548   0029DC  5018               	movf	i1___flmul@temp^0,w,c
 12549   0029DE  260E               	addwf	i1___flmul@grs^0,f,c
 12550   0029E0  5019               	movf	(i1___flmul@temp+1)^0,w,c
 12551   0029E2  220F               	addwfc	(i1___flmul@grs+1)^0,f,c
 12552   0029E4  0E00               	movlw	0
 12553   0029E6  2210               	addwfc	(i1___flmul@grs+2)^0,f,c
 12554   0029E8  0E00               	movlw	0
 12555   0029EA  2211               	addwfc	(i1___flmul@grs+3)^0,f,c
 12556   0029EC  5006               	movf	(i1___flmul@a+1)^0,w,c
 12557   0029EE  0201               	mulwf	i1___flmul@b^0,c
 12558   0029F0  CFF3 F018          	movff	prodl,i1___flmul@temp
 12559   0029F4  CFF4 F019          	movff	prodh,i1___flmul@temp+1
 12560   0029F8  5018               	movf	i1___flmul@temp^0,w,c
 12561   0029FA  260E               	addwf	i1___flmul@grs^0,f,c
 12562   0029FC  5019               	movf	(i1___flmul@temp+1)^0,w,c
 12563   0029FE  220F               	addwfc	(i1___flmul@grs+1)^0,f,c
 12564   002A00  0E00               	movlw	0
 12565   002A02  2210               	addwfc	(i1___flmul@grs+2)^0,f,c
 12566   002A04  0E00               	movlw	0
 12567   002A06  2211               	addwfc	(i1___flmul@grs+3)^0,f,c
 12568   002A08  C010  F011         	movff	i1___flmul@grs+2,i1___flmul@grs+3
 12569   002A0C  C00F  F010         	movff	i1___flmul@grs+1,i1___flmul@grs+2
 12570   002A10  C00E  F00F         	movff	i1___flmul@grs,i1___flmul@grs+1
 12571   002A14  6A0E               	clrf	i1___flmul@grs^0,c
 12572   002A16  5005               	movf	i1___flmul@a^0,w,c
 12573   002A18  0201               	mulwf	i1___flmul@b^0,c
 12574   002A1A  CFF3 F018          	movff	prodl,i1___flmul@temp
 12575   002A1E  CFF4 F019          	movff	prodh,i1___flmul@temp+1
 12576   002A22  5018               	movf	i1___flmul@temp^0,w,c
 12577   002A24  260E               	addwf	i1___flmul@grs^0,f,c
 12578   002A26  5019               	movf	(i1___flmul@temp+1)^0,w,c
 12579   002A28  220F               	addwfc	(i1___flmul@grs+1)^0,f,c
 12580   002A2A  0E00               	movlw	0
 12581   002A2C  2210               	addwfc	(i1___flmul@grs+2)^0,f,c
 12582   002A2E  0E00               	movlw	0
 12583   002A30  2211               	addwfc	(i1___flmul@grs+3)^0,f,c
 12584   002A32  5007               	movf	(i1___flmul@a+2)^0,w,c
 12585   002A34  0202               	mulwf	(i1___flmul@b+1)^0,c
 12586   002A36  CFF3 F018          	movff	prodl,i1___flmul@temp
 12587   002A3A  CFF4 F019          	movff	prodh,i1___flmul@temp+1
 12588   002A3E  5018               	movf	i1___flmul@temp^0,w,c
 12589   002A40  2614               	addwf	i1___flmul@prod^0,f,c
 12590   002A42  5019               	movf	(i1___flmul@temp+1)^0,w,c
 12591   002A44  2215               	addwfc	(i1___flmul@prod+1)^0,f,c
 12592   002A46  0E00               	movlw	0
 12593   002A48  2216               	addwfc	(i1___flmul@prod+2)^0,f,c
 12594   002A4A  0E00               	movlw	0
 12595   002A4C  2217               	addwfc	(i1___flmul@prod+3)^0,f,c
 12596   002A4E  5006               	movf	(i1___flmul@a+1)^0,w,c
 12597   002A50  0203               	mulwf	(i1___flmul@b+2)^0,c
 12598   002A52  CFF3 F018          	movff	prodl,i1___flmul@temp
 12599   002A56  CFF4 F019          	movff	prodh,i1___flmul@temp+1
 12600   002A5A  5018               	movf	i1___flmul@temp^0,w,c
 12601   002A5C  2614               	addwf	i1___flmul@prod^0,f,c
 12602   002A5E  5019               	movf	(i1___flmul@temp+1)^0,w,c
 12603   002A60  2215               	addwfc	(i1___flmul@prod+1)^0,f,c
 12604   002A62  0E00               	movlw	0
 12605   002A64  2216               	addwfc	(i1___flmul@prod+2)^0,f,c
 12606   002A66  0E00               	movlw	0
 12607   002A68  2217               	addwfc	(i1___flmul@prod+3)^0,f,c
 12608   002A6A  5007               	movf	(i1___flmul@a+2)^0,w,c
 12609   002A6C  0203               	mulwf	(i1___flmul@b+2)^0,c
 12610   002A6E  CFF3 F018          	movff	prodl,i1___flmul@temp
 12611   002A72  CFF4 F019          	movff	prodh,i1___flmul@temp+1
 12612   002A76  5018               	movf	i1___flmul@temp^0,w,c
 12613   002A78  6E09               	movwf	??i1___flmul^0,c
 12614   002A7A  5019               	movf	(i1___flmul@temp+1)^0,w,c
 12615   002A7C  6E0A               	movwf	(??i1___flmul+1)^0,c
 12616   002A7E  6A0B               	clrf	(??i1___flmul+2)^0,c
 12617   002A80  6A0C               	clrf	(??i1___flmul+3)^0,c
 12618   002A82  C00B  F00C         	movff	??i1___flmul+2,??i1___flmul+3
 12619   002A86  C00A  F00B         	movff	??i1___flmul+1,??i1___flmul+2
 12620   002A8A  C009  F00A         	movff	??i1___flmul,??i1___flmul+1
 12621   002A8E  6A09               	clrf	??i1___flmul^0,c
 12622   002A90  5009               	movf	??i1___flmul^0,w,c
 12623   002A92  2614               	addwf	i1___flmul@prod^0,f,c
 12624   002A94  500A               	movf	(??i1___flmul+1)^0,w,c
 12625   002A96  2215               	addwfc	(i1___flmul@prod+1)^0,f,c
 12626   002A98  500B               	movf	(??i1___flmul+2)^0,w,c
 12627   002A9A  2216               	addwfc	(i1___flmul@prod+2)^0,f,c
 12628   002A9C  500C               	movf	(??i1___flmul+3)^0,w,c
 12629   002A9E  2217               	addwfc	(i1___flmul@prod+3)^0,f,c
 12630   002AA0  C00E  F009         	movff	i1___flmul@grs,??i1___flmul
 12631   002AA4  C00F  F00A         	movff	i1___flmul@grs+1,??i1___flmul+1
 12632   002AA8  C010  F00B         	movff	i1___flmul@grs+2,??i1___flmul+2
 12633   002AAC  C011  F00C         	movff	i1___flmul@grs+3,??i1___flmul+3
 12634   002AB0  0E19               	movlw	25
 12635   002AB2  EF60  F015         	goto	i1u539_20
 12636   002AB6                     i1u539_25:
 12637   002AB6  90D8               	bcf	status,0,c
 12638   002AB8  320C               	rrcf	(??i1___flmul+3)^0,f,c
 12639   002ABA  320B               	rrcf	(??i1___flmul+2)^0,f,c
 12640   002ABC  320A               	rrcf	(??i1___flmul+1)^0,f,c
 12641   002ABE  3209               	rrcf	??i1___flmul^0,f,c
 12642   002AC0                     i1u539_20:
 12643   002AC0  2EE8               	decfsz	wreg,f,c
 12644   002AC2  EF5B  F015         	goto	i1u539_25
 12645   002AC6  5009               	movf	??i1___flmul^0,w,c
 12646   002AC8  2614               	addwf	i1___flmul@prod^0,f,c
 12647   002ACA  500A               	movf	(??i1___flmul+1)^0,w,c
 12648   002ACC  2215               	addwfc	(i1___flmul@prod+1)^0,f,c
 12649   002ACE  500B               	movf	(??i1___flmul+2)^0,w,c
 12650   002AD0  2216               	addwfc	(i1___flmul@prod+2)^0,f,c
 12651   002AD2  500C               	movf	(??i1___flmul+3)^0,w,c
 12652   002AD4  2217               	addwfc	(i1___flmul@prod+3)^0,f,c
 12653   002AD6  C010  F011         	movff	i1___flmul@grs+2,i1___flmul@grs+3
 12654   002ADA  C00F  F010         	movff	i1___flmul@grs+1,i1___flmul@grs+2
 12655   002ADE  C00E  F00F         	movff	i1___flmul@grs,i1___flmul@grs+1
 12656   002AE2  6A0E               	clrf	i1___flmul@grs^0,c
 12657   002AE4  5012               	movf	i1___flmul@aexp^0,w,c
 12658   002AE6  C013  F009         	movff	i1___flmul@bexp,??i1___flmul
 12659   002AEA  6A0A               	clrf	(??i1___flmul+1)^0,c
 12660   002AEC  2609               	addwf	??i1___flmul^0,f,c
 12661   002AEE  0E00               	movlw	0
 12662   002AF0  220A               	addwfc	(??i1___flmul+1)^0,f,c
 12663   002AF2  0E82               	movlw	130
 12664   002AF4  2409               	addwf	??i1___flmul^0,w,c
 12665   002AF6  6E18               	movwf	i1___flmul@temp^0,c
 12666   002AF8  0EFF               	movlw	255
 12667   002AFA  200A               	addwfc	(??i1___flmul+1)^0,w,c
 12668   002AFC  6E19               	movwf	(i1___flmul@temp+1)^0,c
 12669   002AFE  EF96  F015         	goto	i1l5250
 12670   002B02                     i1l5244:
 12671   002B02  90D8               	bcf	status,0,c
 12672   002B04  3614               	rlcf	i1___flmul@prod^0,f,c
 12673   002B06  3615               	rlcf	(i1___flmul@prod+1)^0,f,c
 12674   002B08  3616               	rlcf	(i1___flmul@prod+2)^0,f,c
 12675   002B0A  3617               	rlcf	(i1___flmul@prod+3)^0,f,c
 12676   002B0C  AE11               	btfss	(i1___flmul@grs+3)^0,7,c
 12677   002B0E  EF8B  F015         	goto	i1u540_21
 12678   002B12  EF8D  F015         	goto	i1u540_20
 12679   002B16                     i1u540_21:
 12680   002B16  EF8E  F015         	goto	i1l1217
 12681   002B1A                     i1u540_20:
 12682   002B1A  8014               	bsf	i1___flmul@prod^0,0,c
 12683   002B1C                     i1l1217:
 12684   002B1C  90D8               	bcf	status,0,c
 12685   002B1E  360E               	rlcf	i1___flmul@grs^0,f,c
 12686   002B20  360F               	rlcf	(i1___flmul@grs+1)^0,f,c
 12687   002B22  3610               	rlcf	(i1___flmul@grs+2)^0,f,c
 12688   002B24  3611               	rlcf	(i1___flmul@grs+3)^0,f,c
 12689   002B26  0618               	decf	i1___flmul@temp^0,f,c
 12690   002B28  A0D8               	btfss	status,0,c
 12691   002B2A  0619               	decf	(i1___flmul@temp+1)^0,f,c
 12692   002B2C                     i1l5250:
 12693   002B2C  AE16               	btfss	(i1___flmul@prod+2)^0,7,c
 12694   002B2E  EF9B  F015         	goto	i1u541_21
 12695   002B32  EF9D  F015         	goto	i1u541_20
 12696   002B36                     i1u541_21:
 12697   002B36  EF81  F015         	goto	i1l5244
 12698   002B3A                     i1u541_20:
 12699   002B3A  0E00               	movlw	0
 12700   002B3C  6E12               	movwf	i1___flmul@aexp^0,c
 12701   002B3E  AE11               	btfss	(i1___flmul@grs+3)^0,7,c
 12702   002B40  EFA4  F015         	goto	i1u542_21
 12703   002B44  EFA6  F015         	goto	i1u542_20
 12704   002B48                     i1u542_21:
 12705   002B48  EFCA  F015         	goto	i1l1219
 12706   002B4C                     i1u542_20:
 12707   002B4C  0EFF               	movlw	255
 12708   002B4E  140E               	andwf	i1___flmul@grs^0,w,c
 12709   002B50  6E09               	movwf	??i1___flmul^0,c
 12710   002B52  0EFF               	movlw	255
 12711   002B54  140F               	andwf	(i1___flmul@grs+1)^0,w,c
 12712   002B56  6E0A               	movwf	(??i1___flmul+1)^0,c
 12713   002B58  0EFF               	movlw	255
 12714   002B5A  1410               	andwf	(i1___flmul@grs+2)^0,w,c
 12715   002B5C  6E0B               	movwf	(??i1___flmul+2)^0,c
 12716   002B5E  0E7F               	movlw	127
 12717   002B60  1411               	andwf	(i1___flmul@grs+3)^0,w,c
 12718   002B62  6E0C               	movwf	(??i1___flmul+3)^0,c
 12719   002B64  5009               	movf	??i1___flmul^0,w,c
 12720   002B66  100A               	iorwf	(??i1___flmul+1)^0,w,c
 12721   002B68  100B               	iorwf	(??i1___flmul+2)^0,w,c
 12722   002B6A  100C               	iorwf	(??i1___flmul+3)^0,w,c
 12723   002B6C  B4D8               	btfsc	status,2,c
 12724   002B6E  EFBB  F015         	goto	i1u543_21
 12725   002B72  EFBD  F015         	goto	i1u543_20
 12726   002B76                     i1u543_21:
 12727   002B76  EFC1  F015         	goto	i1l1220
 12728   002B7A                     i1u543_20:
 12729   002B7A                     i1l5258:
 12730   002B7A  0E01               	movlw	1
 12731   002B7C  6E12               	movwf	i1___flmul@aexp^0,c
 12732   002B7E  EFCA  F015         	goto	i1l1219
 12733   002B82                     i1l1220:
 12734   002B82  A014               	btfss	i1___flmul@prod^0,0,c
 12735   002B84  EFC6  F015         	goto	i1u544_21
 12736   002B88  EFC8  F015         	goto	i1u544_20
 12737   002B8C                     i1u544_21:
 12738   002B8C  EFCA  F015         	goto	i1l1219
 12739   002B90                     i1u544_20:
 12740   002B90  EFBD  F015         	goto	i1l5258
 12741   002B94                     i1l1219:
 12742   002B94  5012               	movf	i1___flmul@aexp^0,w,c
 12743   002B96  B4D8               	btfsc	status,2,c
 12744   002B98  EFD0  F015         	goto	i1u545_21
 12745   002B9C  EFD2  F015         	goto	i1u545_20
 12746   002BA0                     i1u545_21:
 12747   002BA0  EFF6  F015         	goto	i1l5270
 12748   002BA4                     i1u545_20:
 12749   002BA4  0E01               	movlw	1
 12750   002BA6  2614               	addwf	i1___flmul@prod^0,f,c
 12751   002BA8  0E00               	movlw	0
 12752   002BAA  2215               	addwfc	(i1___flmul@prod+1)^0,f,c
 12753   002BAC  2216               	addwfc	(i1___flmul@prod+2)^0,f,c
 12754   002BAE  2217               	addwfc	(i1___flmul@prod+3)^0,f,c
 12755   002BB0  A017               	btfss	(i1___flmul@prod+3)^0,0,c
 12756   002BB2  EFDD  F015         	goto	i1u546_21
 12757   002BB6  EFDF  F015         	goto	i1u546_20
 12758   002BBA                     i1u546_21:
 12759   002BBA  EFF6  F015         	goto	i1l5270
 12760   002BBE                     i1u546_20:
 12761   002BBE  C014  F009         	movff	i1___flmul@prod,??i1___flmul
 12762   002BC2  C015  F00A         	movff	i1___flmul@prod+1,??i1___flmul+1
 12763   002BC6  C016  F00B         	movff	i1___flmul@prod+2,??i1___flmul+2
 12764   002BCA  C017  F00C         	movff	i1___flmul@prod+3,??i1___flmul+3
 12765   002BCE  340C               	rlcf	(??i1___flmul+3)^0,w,c
 12766   002BD0  320C               	rrcf	(??i1___flmul+3)^0,f,c
 12767   002BD2  320B               	rrcf	(??i1___flmul+2)^0,f,c
 12768   002BD4  320A               	rrcf	(??i1___flmul+1)^0,f,c
 12769   002BD6  3209               	rrcf	??i1___flmul^0,f,c
 12770   002BD8  C009  F014         	movff	??i1___flmul,i1___flmul@prod
 12771   002BDC  C00A  F015         	movff	??i1___flmul+1,i1___flmul@prod+1
 12772   002BE0  C00B  F016         	movff	??i1___flmul+2,i1___flmul@prod+2
 12773   002BE4  C00C  F017         	movff	??i1___flmul+3,i1___flmul@prod+3
 12774   002BE8  4A18               	infsnz	i1___flmul@temp^0,f,c
 12775   002BEA  2A19               	incf	(i1___flmul@temp+1)^0,f,c
 12776   002BEC                     i1l5270:
 12777   002BEC  BE19               	btfsc	(i1___flmul@temp+1)^0,7,c
 12778   002BEE  EF01  F016         	goto	i1u547_21
 12779   002BF2  5019               	movf	(i1___flmul@temp+1)^0,w,c
 12780   002BF4  E108               	bnz	i1u547_20
 12781   002BF6  2818               	incf	i1___flmul@temp^0,w,c
 12782   002BF8  A0D8               	btfss	status,0,c
 12783   002BFA  EF01  F016         	goto	i1u547_21
 12784   002BFE  EF03  F016         	goto	i1u547_20
 12785   002C02                     i1u547_21:
 12786   002C02  EF0D  F016         	goto	i1l5274
 12787   002C06                     i1u547_20:
 12788   002C06  0E00               	movlw	0
 12789   002C08  6E14               	movwf	i1___flmul@prod^0,c
 12790   002C0A  0E00               	movlw	0
 12791   002C0C  6E15               	movwf	(i1___flmul@prod+1)^0,c
 12792   002C0E  0E80               	movlw	128
 12793   002C10  6E16               	movwf	(i1___flmul@prod+2)^0,c
 12794   002C12  0E7F               	movlw	127
 12795   002C14  6E17               	movwf	(i1___flmul@prod+3)^0,c
 12796   002C16  EF3B  F016         	goto	i1l5286
 12797   002C1A                     i1l5274:
 12798   002C1A  BE19               	btfsc	(i1___flmul@temp+1)^0,7,c
 12799   002C1C  EF1A  F016         	goto	i1u548_20
 12800   002C20  5019               	movf	(i1___flmul@temp+1)^0,w,c
 12801   002C22  E106               	bnz	i1u548_21
 12802   002C24  0418               	decf	i1___flmul@temp^0,w,c
 12803   002C26  B0D8               	btfsc	status,0,c
 12804   002C28  EF18  F016         	goto	i1u548_21
 12805   002C2C  EF1A  F016         	goto	i1u548_20
 12806   002C30                     i1u548_21:
 12807   002C30  EF26  F016         	goto	i1l1227
 12808   002C34                     i1u548_20:
 12809   002C34  0E00               	movlw	0
 12810   002C36  6E14               	movwf	i1___flmul@prod^0,c
 12811   002C38  0E00               	movlw	0
 12812   002C3A  6E15               	movwf	(i1___flmul@prod+1)^0,c
 12813   002C3C  0E00               	movlw	0
 12814   002C3E  6E16               	movwf	(i1___flmul@prod+2)^0,c
 12815   002C40  0E00               	movlw	0
 12816   002C42  6E17               	movwf	(i1___flmul@prod+3)^0,c
 12817   002C44  0E00               	movlw	0
 12818   002C46  6E0D               	movwf	i1___flmul@sign^0,c
 12819   002C48  EF3B  F016         	goto	i1l5286
 12820   002C4C                     i1l1227:
 12821   002C4C  C018  F013         	movff	i1___flmul@temp,i1___flmul@bexp
 12822   002C50  0EFF               	movlw	255
 12823   002C52  1614               	andwf	i1___flmul@prod^0,f,c
 12824   002C54  0EFF               	movlw	255
 12825   002C56  1615               	andwf	(i1___flmul@prod+1)^0,f,c
 12826   002C58  0E7F               	movlw	127
 12827   002C5A  1616               	andwf	(i1___flmul@prod+2)^0,f,c
 12828   002C5C  0E00               	movlw	0
 12829   002C5E  1617               	andwf	(i1___flmul@prod+3)^0,f,c
 12830   002C60  A013               	btfss	i1___flmul@bexp^0,0,c
 12831   002C62  EF35  F016         	goto	i1u549_21
 12832   002C66  EF37  F016         	goto	i1u549_20
 12833   002C6A                     i1u549_21:
 12834   002C6A  EF38  F016         	goto	i1l5284
 12835   002C6E                     i1u549_20:
 12836   002C6E  8E16               	bsf	(i1___flmul@prod+2)^0,7,c
 12837   002C70                     i1l5284:
 12838   002C70  90D8               	bcf	status,0,c
 12839   002C72  3013               	rrcf	i1___flmul@bexp^0,w,c
 12840   002C74  6E17               	movwf	(i1___flmul@prod+3)^0,c
 12841   002C76                     i1l5286:
 12842   002C76  500D               	movf	i1___flmul@sign^0,w,c
 12843   002C78  1217               	iorwf	(i1___flmul@prod+3)^0,f,c
 12844   002C7A  C014  F001         	movff	i1___flmul@prod,?i1___flmul
 12845   002C7E  C015  F002         	movff	i1___flmul@prod+1,?i1___flmul+1
 12846   002C82  C016  F003         	movff	i1___flmul@prod+2,?i1___flmul+2
 12847   002C86  C017  F004         	movff	i1___flmul@prod+3,?i1___flmul+3
 12848   002C8A                     i1l1214:
 12849   002C8A  0012               	return		;funcret
 12850   002C8C                     __end_ofi1___flmul:
 12851                           	callstack 0
 12852                           
 12853 ;; *************** function _high_isr *****************
 12854 ;; Defined at:
 12855 ;;		line 7 in file "interrupt_manager.c"
 12856 ;; Parameters:    Size  Location     Type
 12857 ;;		None
 12858 ;; Auto vars:     Size  Location     Type
 12859 ;;		None
 12860 ;; Return value:  Size  Location     Type
 12861 ;;                  1    wreg      void 
 12862 ;; Registers used:
 12863 ;;		None
 12864 ;; Tracked objects:
 12865 ;;		On entry : 0/0
 12866 ;;		On exit  : 0/0
 12867 ;;		Unchanged: 0/0
 12868 ;; Data sizes:     COMRAM   BANK0   BANK1   BANK2   BANK3   BANK4   BANK5   BANK6   BANK7
 12869 ;;      Params:         0       0       0       0       0       0       0       0       0
 12870 ;;      Locals:         0       0       0       0       0       0       0       0       0
 12871 ;;      Temps:          0       0       0       0       0       0       0       0       0
 12872 ;;      Totals:         0       0       0       0       0       0       0       0       0
 12873 ;;Total ram usage:        0 bytes
 12874 ;; Hardware stack levels used: 1
 12875 ;; This function calls:
 12876 ;;		Nothing
 12877 ;; This function is called by:
 12878 ;;		Interrupt level 2
 12879 ;; This function uses a non-reentrant model
 12880 ;;
 12881                           
 12882                           	psect	intcode
 12883   000008                     __pintcode:
 12884                           	callstack 0
 12885   000008                     _high_isr:
 12886                           	callstack 19
 12887                           
 12888                           ;incstack = 0
 12889   000008  8241               	bsf	int$flags,1,c	;set compiler interrupt flag (level 2)
 12890   00000A  ED6C  F024         	call	int_func,f	;refresh shadow registers
 12891                           
 12892                           	psect	intcode_body
 12893   0048D8                     __pintcode_body:
 12894                           	callstack 19
 12895   0048D8                     int_func:
 12896                           	callstack 19
 12897   0048D8  0006               	pop		; remove dummy address from shadow register refresh
 12898   0048DA  9241               	bcf	int$flags,1,c	;clear compiler interrupt flag (level 2)
 12899   0048DC  0011               	retfie		f
 12900   0048DE                     __end_of_high_isr:
 12901                           	callstack 0
 12902                           
 12903                           	psect	rparam
 12904   000000                     
 12905                           	psect	temp
 12906   000041                     btemp:
 12907                           	callstack 0
 12908   000041                     	ds	1
 12909   000000                     int$flags	set	btemp
 12910   000000                     wtemp8	set	btemp+1
 12911   000000                     ttemp5	set	btemp+1
 12912   000000                     ttemp6	set	btemp+4
 12913   000000                     ttemp7	set	btemp+8
 12914                           
 12915                           	psect	idloc
 12916                           
 12917                           ;Config register IDLOC0 @ 0x200000
 12918                           ;	unspecified, using default values
 12919   200000                     	org	2097152
 12920   200000  FF                 	db	255
 12921                           
 12922                           ;Config register IDLOC1 @ 0x200001
 12923                           ;	unspecified, using default values
 12924   200001                     	org	2097153
 12925   200001  FF                 	db	255
 12926                           
 12927                           ;Config register IDLOC2 @ 0x200002
 12928                           ;	unspecified, using default values
 12929   200002                     	org	2097154
 12930   200002  FF                 	db	255
 12931                           
 12932                           ;Config register IDLOC3 @ 0x200003
 12933                           ;	unspecified, using default values
 12934   200003                     	org	2097155
 12935   200003  FF                 	db	255
 12936                           
 12937                           ;Config register IDLOC4 @ 0x200004
 12938                           ;	unspecified, using default values
 12939   200004                     	org	2097156
 12940   200004  FF                 	db	255
 12941                           
 12942                           ;Config register IDLOC5 @ 0x200005
 12943                           ;	unspecified, using default values
 12944   200005                     	org	2097157
 12945   200005  FF                 	db	255
 12946                           
 12947                           ;Config register IDLOC6 @ 0x200006
 12948                           ;	unspecified, using default values
 12949   200006                     	org	2097158
 12950   200006  FF                 	db	255
 12951                           
 12952                           ;Config register IDLOC7 @ 0x200007
 12953                           ;	unspecified, using default values
 12954   200007                     	org	2097159
 12955   200007  FF                 	db	255
 12956                           
 12957                           	psect	config
 12958                           
 12959                           ;Config register CONFIG1L @ 0x300000
 12960                           ;	PLL Prescaler Selection bits
 12961                           ;	PLLDIV = 1, No prescale (4 MHz oscillator input drives PLL directly)
 12962                           ;	System Clock Postscaler Selection bits
 12963                           ;	CPUDIV = OSC1_PLL2, [Primary Oscillator Src: /1][96 MHz PLL Src: /2]
 12964                           ;	USB Clock Selection bit (used in Full-Speed USB mode only; UCFG:FSEN = 1)
 12965                           ;	USBDIV = 1, USB clock source comes directly from the primary oscillator block with no 
      +                          postscale
 12966   300000                     	org	3145728
 12967   300000  00                 	db	0
 12968                           
 12969                           ;Config register CONFIG1H @ 0x300001
 12970                           ;	Oscillator Selection bits
 12971                           ;	FOSC = HS, HS oscillator (HS)
 12972                           ;	Fail-Safe Clock Monitor Enable bit
 12973                           ;	FCMEN = OFF, Fail-Safe Clock Monitor disabled
 12974                           ;	Internal/External Oscillator Switchover bit
 12975                           ;	IESO = OFF, Oscillator Switchover mode disabled
 12976   300001                     	org	3145729
 12977   300001  0C                 	db	12
 12978                           
 12979                           ;Config register CONFIG2L @ 0x300002
 12980                           ;	Power-up Timer Enable bit
 12981                           ;	PWRT = OFF, PWRT disabled
 12982                           ;	Brown-out Reset Enable bits
 12983                           ;	BOR = OFF, Brown-out Reset disabled in hardware and software
 12984                           ;	Brown-out Reset Voltage bits
 12985                           ;	BORV = 3, Minimum setting 2.05V
 12986                           ;	USB Voltage Regulator Enable bit
 12987                           ;	VREGEN = OFF, USB voltage regulator disabled
 12988   300002                     	org	3145730
 12989   300002  19                 	db	25
 12990                           
 12991                           ;Config register CONFIG2H @ 0x300003
 12992                           ;	Watchdog Timer Enable bit
 12993                           ;	WDT = OFF, WDT disabled (control is placed on the SWDTEN bit)
 12994                           ;	Watchdog Timer Postscale Select bits
 12995                           ;	WDTPS = 32768, 1:32768
 12996   300003                     	org	3145731
 12997   300003  1E                 	db	30
 12998                           
 12999                           ; Padding undefined space
 13000   300004                     	org	3145732
 13001   300004  FF                 	db	255
 13002                           
 13003                           ;Config register CONFIG3H @ 0x300005
 13004                           ;	CCP2 MUX bit
 13005                           ;	CCP2MX = ON, CCP2 input/output is multiplexed with RC1
 13006                           ;	PORTB A/D Enable bit
 13007                           ;	PBADEN = OFF, PORTB<4:0> pins are configured as digital I/O on Reset
 13008                           ;	Low-Power Timer 1 Oscillator Enable bit
 13009                           ;	LPT1OSC = OFF, Timer1 configured for higher power operation
 13010                           ;	MCLR Pin Enable bit
 13011                           ;	MCLRE = ON, MCLR pin enabled; RE3 input pin disabled
 13012   300005                     	org	3145733
 13013   300005  81                 	db	129
 13014                           
 13015                           ;Config register CONFIG4L @ 0x300006
 13016                           ;	Stack Full/Underflow Reset Enable bit
 13017                           ;	STVREN = ON, Stack full/underflow will cause Reset
 13018                           ;	Single-Supply ICSP Enable bit
 13019                           ;	LVP = OFF, Single-Supply ICSP disabled
 13020                           ;	Extended Instruction Set Enable bit
 13021                           ;	XINST = OFF, Instruction set extension and Indexed Addressing mode disabled (Legacy mo
      +                          de)
 13022                           ;	Background Debugger Enable bit
 13023                           ;	DEBUG = 0x1, unprogrammed default
 13024   300006                     	org	3145734
 13025   300006  81                 	db	129
 13026                           
 13027                           ; Padding undefined space
 13028   300007                     	org	3145735
 13029   300007  FF                 	db	255
 13030                           
 13031                           ;Config register CONFIG5L @ 0x300008
 13032                           ;	Code Protection bit
 13033                           ;	CP0 = OFF, Block 0 (000800-001FFFh) is not code-protected
 13034                           ;	Code Protection bit
 13035                           ;	CP1 = OFF, Block 1 (002000-003FFFh) is not code-protected
 13036                           ;	Code Protection bit
 13037                           ;	CP2 = OFF, Block 2 (004000-005FFFh) is not code-protected
 13038                           ;	Code Protection bit
 13039                           ;	CP3 = OFF, Block 3 (006000-007FFFh) is not code-protected
 13040   300008                     	org	3145736
 13041   300008  0F                 	db	15
 13042                           
 13043                           ;Config register CONFIG5H @ 0x300009
 13044                           ;	Boot Block Code Protection bit
 13045                           ;	CPB = OFF, Boot block (000000-0007FFh) is not code-protected
 13046                           ;	Data EEPROM Code Protection bit
 13047                           ;	CPD = OFF, Data EEPROM is not code-protected
 13048   300009                     	org	3145737
 13049   300009  C0                 	db	192
 13050                           
 13051                           ;Config register CONFIG6L @ 0x30000A
 13052                           ;	Write Protection bit
 13053                           ;	WRT0 = OFF, Block 0 (000800-001FFFh) is not write-protected
 13054                           ;	Write Protection bit
 13055                           ;	WRT1 = OFF, Block 1 (002000-003FFFh) is not write-protected
 13056                           ;	Write Protection bit
 13057                           ;	WRT2 = OFF, Block 2 (004000-005FFFh) is not write-protected
 13058                           ;	Write Protection bit
 13059                           ;	WRT3 = OFF, Block 3 (006000-007FFFh) is not write-protected
 13060   30000A                     	org	3145738
 13061   30000A  0F                 	db	15
 13062                           
 13063                           ;Config register CONFIG6H @ 0x30000B
 13064                           ;	Configuration Register Write Protection bit
 13065                           ;	WRTC = OFF, Configuration registers (300000-3000FFh) are not write-protected
 13066                           ;	Boot Block Write Protection bit
 13067                           ;	WRTB = OFF, Boot block (000000-0007FFh) is not write-protected
 13068                           ;	Data EEPROM Write Protection bit
 13069                           ;	WRTD = OFF, Data EEPROM is not write-protected
 13070   30000B                     	org	3145739
 13071   30000B  E0                 	db	224
 13072                           
 13073                           ;Config register CONFIG7L @ 0x30000C
 13074                           ;	Table Read Protection bit
 13075                           ;	EBTR0 = OFF, Block 0 (000800-001FFFh) is not protected from table reads executed in ot
      +                          her blocks
 13076                           ;	Table Read Protection bit
 13077                           ;	EBTR1 = OFF, Block 1 (002000-003FFFh) is not protected from table reads executed in ot
      +                          her blocks
 13078                           ;	Table Read Protection bit
 13079                           ;	EBTR2 = OFF, Block 2 (004000-005FFFh) is not protected from table reads executed in ot
      +                          her blocks
 13080                           ;	Table Read Protection bit
 13081                           ;	EBTR3 = OFF, Block 3 (006000-007FFFh) is not protected from table reads executed in ot
      +                          her blocks
 13082   30000C                     	org	3145740
 13083   30000C  0F                 	db	15
 13084                           
 13085                           ;Config register CONFIG7H @ 0x30000D
 13086                           ;	Boot Block Table Read Protection bit
 13087                           ;	EBTRB = OFF, Boot block (000000-0007FFh) is not protected from table reads executed in
      +                           other blocks
 13088   30000D                     	org	3145741
 13089   30000D  40                 	db	64
 13090                           tosu	equ	0xFFF
 13091                           tosh	equ	0xFFE
 13092                           tosl	equ	0xFFD
 13093                           stkptr	equ	0xFFC
 13094                           pclatu	equ	0xFFB
 13095                           pclath	equ	0xFFA
 13096                           pcl	equ	0xFF9
 13097                           tblptru	equ	0xFF8
 13098                           tblptrh	equ	0xFF7
 13099                           tblptrl	equ	0xFF6
 13100                           tablat	equ	0xFF5
 13101                           prodh	equ	0xFF4
 13102                           prodl	equ	0xFF3
 13103                           indf0	equ	0xFEF
 13104                           postinc0	equ	0xFEE
 13105                           postdec0	equ	0xFED
 13106                           preinc0	equ	0xFEC
 13107                           plusw0	equ	0xFEB
 13108                           fsr0h	equ	0xFEA
 13109                           fsr0l	equ	0xFE9
 13110                           wreg	equ	0xFE8
 13111                           indf1	equ	0xFE7
 13112                           postinc1	equ	0xFE6
 13113                           postdec1	equ	0xFE5
 13114                           preinc1	equ	0xFE4
 13115                           plusw1	equ	0xFE3
 13116                           fsr1h	equ	0xFE2
 13117                           fsr1l	equ	0xFE1
 13118                           bsr	equ	0xFE0
 13119                           indf2	equ	0xFDF
 13120                           postinc2	equ	0xFDE
 13121                           postdec2	equ	0xFDD
 13122                           preinc2	equ	0xFDC
 13123                           plusw2	equ	0xFDB
 13124                           fsr2h	equ	0xFDA
 13125                           fsr2l	equ	0xFD9
 13126                           status	equ	0xFD8

Data Sizes:
    Strings     65
    Constant    0
    Data        182
    BSS         239
    Persistent  0
    Stack       0

Auto Spaces:
    Space          Size  Autos    Used
    COMRAM           94     35      64
    BANK0           160    154     160
    BANK1           256     44     250
    BANK2           256      0     180
    BANK3           256      0       0
    BANK4           256      0       0
    BANK5           256      0       0
    BANK6           256      0       0
    BANK7           256      0       0

Pointer List with Targets:

    strcpy@dest	PTR unsigned char  size(2) Largest target is 80
		 -> dbuf(BANK1[80]), 

    strcpy@d	PTR unsigned char  size(2) Largest target is 80
		 -> dbuf(BANK1[80]), 

    strcpy@src	PTR const unsigned char  size(2) Largest target is 4
		 -> STR_6(CODE[4]), STR_3(CODE[4]), 

    strcpy@s	PTR const unsigned char  size(2) Largest target is 4
		 -> STR_6(CODE[4]), STR_3(CODE[4]), 

    fputs@s	PTR const unsigned char  size(2) Largest target is 80
		 -> dbuf(BANK1[80]), 

    fputs@fp	PTR struct _IO_FILE size(2) Largest target is 12
		 -> sprintf@f(BANK1[12]), 

    fputc@fp...source	PTR const unsigned char  size(2) Largest target is 0

    fputc@fp...buffer	PTR unsigned char  size(2) Largest target is 0

    fputc@fp	PTR struct _IO_FILE size(2) Largest target is 12
		 -> sprintf@f(BANK1[12]), 

    memcpy@d1	PTR void  size(2) Largest target is 80
		 -> dbuf(BANK1[80]), 

    memcpy@d	PTR unsigned char  size(2) Largest target is 80
		 -> dbuf(BANK1[80]), 

    memcpy@s1	PTR const void  size(2) Largest target is 80
		 -> dbuf(BANK1[80]), 

    memcpy@s	PTR const unsigned char  size(2) Largest target is 80
		 -> dbuf(BANK1[80]), 

    vfprintf@ap	PTR PTR void  size(2) Largest target is 2
		 -> sprintf@ap(BANK1[2]), 

    vfprintf@fp	PTR struct _IO_FILE size(2) Largest target is 12
		 -> sprintf@f(BANK1[12]), 

    vfprintf@fmt	PTR const unsigned char  size(2) Largest target is 55
		 -> STR_2(CODE[55]), 

    vfprintf@cfmt	PTR unsigned char  size(2) Largest target is 55
		 -> STR_2(CODE[55]), 

    vfpfcnvrt@fp	PTR struct _IO_FILE size(2) Largest target is 12
		 -> sprintf@f(BANK1[12]), 

    vfpfcnvrt@cp	PTR unsigned char  size(2) Largest target is 55
		 -> STR_2(CODE[55]), 

    vfpfcnvrt@ap	PTR PTR void  size(2) Largest target is 2
		 -> sprintf@ap(BANK1[2]), 

    vfpfcnvrt@fmt	PTR PTR unsigned char  size(2) Largest target is 2
		 -> vfprintf@cfmt(BANK0[2]), 

    S2490$vp	PTR void  size(2) Largest target is 0

    convarg.vp	PTR void  size(2) Largest target is 0

    read_prec_or_width@ap	PTR PTR void [1] size(2) Largest target is 2
		 -> sprintf@ap(BANK1[2]), 

    read_prec_or_width@fmt	PTR PTR const unsigned char  size(2) Largest target is 2
		 -> vfprintf@cfmt(BANK0[2]), 

    utoa@fp	PTR struct _IO_FILE size(2) Largest target is 12
		 -> sprintf@f(BANK1[12]), 

    sp__memcpy	PTR void  size(2) Largest target is 80
		 -> dbuf(BANK1[80]), 

    efgtoa@fp	PTR struct _IO_FILE size(2) Largest target is 12
		 -> sprintf@f(BANK1[12]), 

    sp__strcpy	PTR unsigned char  size(2) Largest target is 80
		 -> dbuf(BANK1[80]), 

    dtoa@fp	PTR struct _IO_FILE size(2) Largest target is 12
		 -> sprintf@f(BANK1[12]), 

    pad@fp	PTR struct _IO_FILE size(2) Largest target is 12
		 -> sprintf@f(BANK1[12]), 

    pad@buf	PTR unsigned char  size(2) Largest target is 80
		 -> dbuf(BANK1[80]), 

    sprintf@fmt	PTR const unsigned char  size(2) Largest target is 55
		 -> STR_2(CODE[55]), 

    sprintf@s	PTR unsigned char  size(2) Largest target is 90
		 -> datos_sensores_afm_pc(BANK2[90]), 

    sprintf@ap	PTR void [1] size(2) Largest target is 2
		 -> ?_sprintf(BANK1[2]), 

    S2400$source	PTR const unsigned char  size(2) Largest target is 0

    f...source	PTR const unsigned char  size(2) Largest target is 0

    S2400$buffer	PTR unsigned char  size(2) Largest target is 0

    f...buffer	PTR unsigned char  size(2) Largest target is 0

    UART_Enviar_Cadena@cadena	PTR const unsigned char  size(2) Largest target is 90
		 -> STR_1(CODE[2]), datos_sensores_afm_pc(BANK2[90]), 


Critical Paths under _main in COMRAM

    _main->___lldiv
    _utoa->___lwmod
    _utoa->_pad
    _read_prec_or_width->___wmul
    _efgtoa->_memcpy
    _efgtoa->_pad
    ___fltol->___xxtofl
    ___flsub->___fladd
    ___flmul->___xxtofl
    ___fldiv->___xxtofl
    _dtoa->_pad
    _pad->_fputc
    _fputs->_fputc
    _abs->___awmod
    _UART_Enviar_Cadena->_UART_Enviar_Caracter
    _Asignar_Minutos_Timer0->___xxtofl

Critical Paths under _low_isr in COMRAM

    _Atencion_Int_Timer_0->i1___flmul

Critical Paths under _high_isr in COMRAM

    None.

Critical Paths under _main in BANK0

    _sprintf->_vfprintf
    _vfprintf->_vfpfcnvrt
    _vfpfcnvrt->_efgtoa
    _utoa->_pad
    _read_prec_or_width->___wmul
    _efgtoa->_floorf
    _floorf->___fldiv
    ___fltol->___fldiv
    ___flsub->___flmul
    ___flmul->___xxtofl
    ___flge->___flmul
    ___fldiv->___flmul
    _dtoa->_pad
    _pad->_fputs
    _fputs->_fputc
    _abs->___awmod
    _Inicializar_Sistema->_Asignar_Minutos_Timer0
    _Asignar_Minutos_Timer0->___xxtofl

Critical Paths under _low_isr in BANK0

    None.

Critical Paths under _high_isr in BANK0

    None.

Critical Paths under _main in BANK1

    _main->_sprintf
    _sprintf->_vfprintf

Critical Paths under _low_isr in BANK1

    None.

Critical Paths under _high_isr in BANK1

    None.

Critical Paths under _main in BANK2

    None.

Critical Paths under _low_isr in BANK2

    None.

Critical Paths under _high_isr in BANK2

    None.

Critical Paths under _main in BANK3

    None.

Critical Paths under _low_isr in BANK3

    None.

Critical Paths under _high_isr in BANK3

    None.

Critical Paths under _main in BANK4

    None.

Critical Paths under _low_isr in BANK4

    None.

Critical Paths under _high_isr in BANK4

    None.

Critical Paths under _main in BANK5

    None.

Critical Paths under _low_isr in BANK5

    None.

Critical Paths under _high_isr in BANK5

    None.

Critical Paths under _main in BANK6

    None.

Critical Paths under _low_isr in BANK6

    None.

Critical Paths under _high_isr in BANK6

    None.

Critical Paths under _main in BANK7

    None.

Critical Paths under _low_isr in BANK7

    None.

Critical Paths under _high_isr in BANK7

    None.

Call Graph Tables:

 ---------------------------------------------------------------------------------
 (Depth) Function   	        Calls       Base Space   Used Autos Params    Refs
 ---------------------------------------------------------------------------------
 (0) _main                                                 2     2      0   55284
                                            152 BANK0      2     2      0
             _Asignar_Minutos_Timer0
                _Inicializar_Sistema
              _Lectura_Frecuencia_tx
                 _Lectura_Numero_Est
                           _Leer_ADC
                _SPI_Enviar_Caracter
               _SPI_Recibir_Caracter
                 _UART_Enviar_Cadena
                            ___fldiv
                            ___flmul
                            ___fltol
                            ___lldiv
                           ___xxtofl
                            _sprintf
 ---------------------------------------------------------------------------------
 (1) _sprintf                                             40    16     24   43518
                                              6 BANK1     38    14     24
                           _vfprintf
 ---------------------------------------------------------------------------------
 (2) _vfprintf                                             8     2      6   43008
                                            150 BANK0      2     2      0
                                              0 BANK1      6     0      6
                          _vfpfcnvrt
 ---------------------------------------------------------------------------------
 (3) _vfpfcnvrt                                           19    13      6   42496
                                            133 BANK0     17    11      6
                               _dtoa
                             _efgtoa
                              _fputc
                 _read_prec_or_width
                               _utoa
 ---------------------------------------------------------------------------------
 (4) _utoa                                                10     6      4    5132
                                             22 BANK0     10     6      4
                            ___lwdiv
                            ___lwmod
                                _pad
 ---------------------------------------------------------------------------------
 (5) ___lwmod                                              5     1      4     311
                                             30 COMRAM     5     1      4
 ---------------------------------------------------------------------------------
 (5) ___lwdiv                                              7     3      4     421
                                             30 COMRAM     4     0      4
                                              0 BANK0      3     3      0
 ---------------------------------------------------------------------------------
 (4) _read_prec_or_width                                   9     5      4    1032
                                              2 BANK0      9     5      4
                             ___wmul
 ---------------------------------------------------------------------------------
 (5) ___wmul                                               6     2      4     412
                                             30 COMRAM     4     0      4
                                              0 BANK0      2     2      0
 ---------------------------------------------------------------------------------
 (4) _efgtoa                                              54    47      7   27715
                                             80 BANK0     53    46      7
                            ___fladd
                            ___fldiv
                             ___fleq
                             ___flge
                            ___flmul
                            ___flneg
                            ___flsub
                            ___fltol
                      ___fpclassifyf
                             _floorf
                               _labs
                             _memcpy
                                _pad
                             _strcpy
 ---------------------------------------------------------------------------------
 (5) _strcpy                                               8     4      4     497
                                             30 COMRAM     4     0      4
                                              0 BANK0      4     4      0
 ---------------------------------------------------------------------------------
 (5) _memcpy                                              11     5      6     478
                                             30 COMRAM     5     5      0
                                              0 BANK0      6     0      6
 ---------------------------------------------------------------------------------
 (5) _labs                                                 8     4      4     363
                                             30 COMRAM     4     0      4
                                              0 BANK0      4     4      0
 ---------------------------------------------------------------------------------
 (5) _floorf                                              20    16      4     490
                                             60 BANK0     20    16      4
                            ___fldiv (ARG)
 ---------------------------------------------------------------------------------
 (5) ___fpclassifyf                                       14    10      4     375
                                             30 COMRAM     4     0      4
                                              0 BANK0     10    10      0
 ---------------------------------------------------------------------------------
 (5) ___fltol                                             10     6      4     963
                                             60 BANK0     10     6      4
                            ___fldiv (ARG)
                            ___flmul (ARG)
                           ___xxtofl (ARG)
 ---------------------------------------------------------------------------------
 (5) ___flsub                                              8     0      8    4007
                                             35 BANK0      8     0      8
                            ___fladd
                            ___flmul (ARG)
 ---------------------------------------------------------------------------------
 (6) ___fladd                                             16     8      8    3442
                                             30 COMRAM     4     4      0
                                              0 BANK0     12     4      8
 ---------------------------------------------------------------------------------
 (5) ___flneg                                              4     0      4     121
                                             30 COMRAM     4     0      4
 ---------------------------------------------------------------------------------
 (5) ___flmul                                             25    17      8    4063
                                             10 BANK0     25    17      8
                           ___xxtofl (ARG)
 ---------------------------------------------------------------------------------
 (5) ___flge                                              12     4      8     986
                                             35 BANK0     12     4      8
                            ___flmul (ARG)
 ---------------------------------------------------------------------------------
 (5) ___fleq                                              12     4      8     770
                                             30 COMRAM     4     4      0
                                              0 BANK0      8     0      8
 ---------------------------------------------------------------------------------
 (5) ___fldiv                                             25    17      8    3623
                                             35 BANK0     25    17      8
                            ___flmul (ARG)
                           ___xxtofl (ARG)
 ---------------------------------------------------------------------------------
 (4) _dtoa                                                13     9      4    6121
                                             22 BANK0     13     9      4
                            ___awdiv
                            ___awmod
                                _abs
                                _pad
 ---------------------------------------------------------------------------------
 (5) _pad                                                 11     5      6    3855
                                             34 COMRAM     1     1      0
                                             12 BANK0     10     4      6
                              _fputc
                              _fputs
 ---------------------------------------------------------------------------------
 (6) _fputs                                                7     3      4    1357
                                              5 BANK0      7     3      4
                              _fputc
 ---------------------------------------------------------------------------------
 (7) _fputc                                                9     5      4     857
                                             30 COMRAM     4     0      4
                                              0 BANK0      5     5      0
                              _putch
 ---------------------------------------------------------------------------------
 (8) _putch                                                1     1      0       0
 ---------------------------------------------------------------------------------
 (5) _abs                                                  4     2      2     183
                                              2 BANK0      4     2      2
                            ___awmod (ARG)
 ---------------------------------------------------------------------------------
 (5) ___awmod                                              6     2      4     613
                                             30 COMRAM     4     0      4
                                              0 BANK0      2     2      0
 ---------------------------------------------------------------------------------
 (5) ___awdiv                                              8     4      4     625
                                             30 COMRAM     4     0      4
                                              0 BANK0      4     4      0
 ---------------------------------------------------------------------------------
 (1) ___xxtofl                                            14    10      4    1106
                                             30 COMRAM     4     0      4
                                              0 BANK0     10    10      0
 ---------------------------------------------------------------------------------
 (1) ___lldiv                                             13     5      8     781
                                             30 COMRAM     5     5      0
                                              0 BANK0      8     0      8
 ---------------------------------------------------------------------------------
 (1) _UART_Enviar_Cadena                                   2     0      2     219
                                             31 COMRAM     2     0      2
               _UART_Enviar_Caracter
 ---------------------------------------------------------------------------------
 (2) _UART_Enviar_Caracter                                 1     1      0      22
                                             30 COMRAM     1     1      0
 ---------------------------------------------------------------------------------
 (1) _SPI_Recibir_Caracter                                 0     0      0       0
 ---------------------------------------------------------------------------------
 (1) _SPI_Enviar_Caracter                                  1     1      0      22
                                             30 COMRAM     1     1      0
 ---------------------------------------------------------------------------------
 (1) _Leer_ADC                                             4     2      2       0
                                             30 COMRAM     4     2      2
 ---------------------------------------------------------------------------------
 (1) _Lectura_Numero_Est                                   3     3      0       0
                                             30 COMRAM     3     3      0
 ---------------------------------------------------------------------------------
 (1) _Lectura_Frecuencia_tx                                3     3      0       0
                                             30 COMRAM     3     3      0
 ---------------------------------------------------------------------------------
 (1) _Inicializar_Sistema                                  0     0      0     391
             _Asignar_Minutos_Timer0
                     _Configurar_ADC
                     _Configurar_SPI
                  _Configurar_Timer0
                  _Configurar_Timer2
      _Inicializar_Administrador_PIN
              _Inicializar_Oscilador
                   _Inicializar_UART
 ---------------------------------------------------------------------------------
 (2) _Inicializar_UART                                     0     0      0       0
 ---------------------------------------------------------------------------------
 (2) _Inicializar_Oscilador                                0     0      0       0
 ---------------------------------------------------------------------------------
 (2) _Inicializar_Administrador_PIN                        0     0      0       0
 ---------------------------------------------------------------------------------
 (2) _Configurar_Timer2                                    0     0      0       0
 ---------------------------------------------------------------------------------
 (2) _Configurar_Timer0                                    0     0      0       0
 ---------------------------------------------------------------------------------
 (2) _Configurar_SPI                                       0     0      0       0
 ---------------------------------------------------------------------------------
 (2) _Configurar_ADC                                       0     0      0       0
 ---------------------------------------------------------------------------------
 (2) _Asignar_Minutos_Timer0                               4     0      4     391
                                             10 BANK0      4     0      4
                           ___xxtofl (ARG)
 ---------------------------------------------------------------------------------
 Estimated maximum stack depth 8
 ---------------------------------------------------------------------------------
 (Depth) Function   	        Calls       Base Space   Used Autos Params    Refs
 ---------------------------------------------------------------------------------
 (9) _low_isr                                              5     5      0    1773
                                             25 COMRAM     5     5      0
               _Atencion_Int_Timer_0
               _Atencion_Int_Timer_2
 ---------------------------------------------------------------------------------
 (10) _Atencion_Int_Timer_2                                0     0      0       0
 ---------------------------------------------------------------------------------
 (10) _Atencion_Int_Timer_0                                0     0      0    1773
                          i1___flmul
                          i1___fltol
 ---------------------------------------------------------------------------------
 (11) i1___fltol                                          10     6      4     255
                                              0 COMRAM    10     6      4
 ---------------------------------------------------------------------------------
 (11) i1___flmul                                          25    17      8    1518
                                              0 COMRAM    25    17      8
 ---------------------------------------------------------------------------------
 Estimated maximum stack depth 11
 ---------------------------------------------------------------------------------
 (Depth) Function   	        Calls       Base Space   Used Autos Params    Refs
 ---------------------------------------------------------------------------------
 (12) _high_isr                                            0     0      0       0
 ---------------------------------------------------------------------------------
 Estimated maximum stack depth 12
 ---------------------------------------------------------------------------------

 Call Graph Graphs:

 _main (ROOT)
   _Asignar_Minutos_Timer0
     ___xxtofl (ARG)
   _Inicializar_Sistema
     _Asignar_Minutos_Timer0
     _Configurar_ADC
     _Configurar_SPI
     _Configurar_Timer0
     _Configurar_Timer2
     _Inicializar_Administrador_PIN
     _Inicializar_Oscilador
     _Inicializar_UART
   _Lectura_Frecuencia_tx
   _Lectura_Numero_Est
   _Leer_ADC
   _SPI_Enviar_Caracter
   _SPI_Recibir_Caracter
   _UART_Enviar_Cadena
     _UART_Enviar_Caracter
   ___fldiv
     ___flmul (ARG)
       ___xxtofl (ARG)
     ___xxtofl (ARG)
   ___flmul
   ___fltol
     ___fldiv (ARG)
     ___flmul (ARG)
     ___xxtofl (ARG)
   ___lldiv
   ___xxtofl
   _sprintf
     _vfprintf
       _vfpfcnvrt
         _dtoa
           ___awdiv
           ___awmod
           _abs
             ___awmod (ARG)
           _pad
             _fputc
               _putch
             _fputs
               _fputc
         _efgtoa
           ___fladd
           ___fldiv
           ___fleq
           ___flge
             ___flmul (ARG)
           ___flmul
           ___flneg
           ___flsub
             ___fladd
             ___flmul (ARG)
           ___fltol
           ___fpclassifyf
           _floorf
             ___fldiv (ARG)
           _labs
           _memcpy
           _pad
           _strcpy
         _fputc
         _read_prec_or_width
           ___wmul
         _utoa
           ___lwdiv
           ___lwmod
           _pad

 _low_isr (ROOT)
   _Atencion_Int_Timer_0
     i1___flmul
     i1___fltol
   _Atencion_Int_Timer_2

 _high_isr (ROOT)

 Address spaces:
Name               Size   Autos  Total    Cost      Usage
BIGRAM             7FF      0       0      37        0.0%
EEDATA             100      0       0       0        0.0%
BITBANK7           100      0       0      18        0.0%
BANK7              100      0       0      19        0.0%
BITBANK6           100      0       0      16        0.0%
BANK6              100      0       0      17        0.0%
BITBANK5           100      0       0      14        0.0%
BANK5              100      0       0      15        0.0%
BITBANK4           100      0       0      12        0.0%
BANK4              100      0       0      13        0.0%
BITBANK3           100      0       0      10        0.0%
BANK3              100      0       0      11        0.0%
BITBANK2           100      0       0       8        0.0%
BANK2              100      0      B4       9       70.3%
BITBANK1           100      0       0       6        0.0%
BANK1              100     2C      FA       7       97.7%
BITBANK0            A0      0       0       4        0.0%
BANK0               A0     9A      A0       5      100.0%
BITCOMRAM           5E      0       0       0        0.0%
COMRAM              5E     23      40       1       68.1%
BITBIGSFRhlh        19      0       0      21        0.0%
BITBIGSFRlhlll      10      0       0      33        0.0%
BITBIGSFRhh          D      0       0      20        0.0%
BITBIGSFRlll         D      0       0      35        0.0%
BITBIGSFRlhhll       B      0       0      29        0.0%
BITBIGSFRlhlh        8      0       0      30        0.0%
BITBIGSFRlhhhll      8      0       0      28        0.0%
BITBIGSFRlhhhll      7      0       0      27        0.0%
BITBIGSFRlhllhh      7      0       0      31        0.0%
BITBIGSFRlhllhl      7      0       0      32        0.0%
BITBIGSFRlhhhhl      3      0       0      24        0.0%
BITBIGSFRlhhhhh      2      0       0      23        0.0%
BITBIGSFRlhhhlh      1      0       0      26        0.0%
BITBIGSFRlhhhhl      1      0       0      25        0.0%
BITBIGSFRllh         1      0       0      34        0.0%
BITBIGSFRhll         1      0       0      22        0.0%
BIGSFR               0      0       0     200        0.0%
BITSFR               0      0       0     200        0.0%
SFR                  0      0       0     200        0.0%
STACK                0      0       0       2        0.0%
NULL                 0      0       0       0        0.0%
ABS                  0      0     28E      36        0.0%
DATA                 0      0     28E       3        0.0%
CODE                 0      0       0       0        0.0%


Microchip Technology PIC18 Macro Assembler V2.41 build 20230208172133 
Symbol Table                                                                                   Sun Apr 23 21:10:41 2023

                      _DATOS_LISTOS_SENSOR_AFM 016B                                              l9 48D6  
                                 ___fldiv@aexp 009B                                   ___fldiv@bexp 009A  
                                 ___fldiv@sign 0093                          ?_SPI_Recibir_Caracter 0001  
                                  _SSPSTATbits 0FC7                                   ___awdiv@sign 0061  
                                  i1___flmul@a 0005                                    i1___flmul@b 0001  
                                           bsr 0FE0                            ___wmul@multiplicand 0021  
                     _datos_sensores_afm_radio 0200                                            l302 1388  
                                          l311 14C6                                            l330 185C  
                                          l322 15F8                                            l314 1548  
                                          l306 1498                                            l502 4810  
                                          l334 1AF8                                            l327 1626  
                                          l319 1576                                            l440 473C  
                                          l505 48CC                                            l531 48BA  
                                          l508 484C                                            l470 443A  
                                          l534 4882                                            l630 41AE  
                                          l543 44FA                                            l623 419E  
                                          l473 47F0                                            l537 4894  
                                          l562 4866                                            l298 1346  
                                          l467 449C                                            l571 4898  
                                          l565 486E                                            l590 4814  
                                          l574 48A8                                            l567 487C  
                                          l568 487E                                            l840 3FAE  
                                          l593 482E                                            l587 47A0  
                                          l827 3E48                                            l596 47C8  
                                          l861 38BE                                            l870 4774  
                                          l855 4108                                            l866 3904  
                                          l893 37FE                                            _PR2 0FCB  
                                          _abs 46C2                                            _pad 3FB0  
                                 i1___fltol@f1 0001                                   ___awmod@sign 0061  
                             _suma_lectura_adc 0142                                            wreg 0FE8  
                                 ___flmul@aexp 0077                                   ___flmul@bexp 007C  
                                 ___flmul@sign 0076                                   ___flmul@temp 0081  
                                 ___flmul@prod 007D                                   ___fltol@exp1 00A5  
                                         l1104 43D8                                           l1210 24FC  
                                         ?_abs 0062                                           l1220 2758  
                                         l1124 1D06                                           l1141 1E20  
                                         l1133 1FD6                                           l1125 1CF4  
                                         l1310 403A                                           l1214 2860  
                                         l1150 1EF0                                           l1126 1CBA  
                                         l1151 1EDE                                           l1312 405C  
                                         l1320 329E                                           l1321 32E4  
                                         l1217 26F2                                           l1251 346A  
                                         l1307 3FF6                                           l1227 2822  
                                         l1219 276A                                           l1411 3D7A  
                                         l1180 2E86                                           l1254 35C6  
                                         l1334 340E                                           l1318 3296  
                                         l1166 4636                                           l1350 0A1E  
                                         l1094 42A0                                           l1191 2F44  
                                         l1183 2E4A                                           l1503 459E  
                                         l1415 3D82                                           l1087 4298  
                                         l1407 36F6                                           l1431 2434  
                                         l1192 2F32                                           l1265 355E  
                                         l1345 12AE                                           l1097 43D0  
                                         l1258 3502                                           l1178 3026  
                                         l1274 45EE                                           l1515 3CB8  
                                         l1523 467E                                           l1532 46C0  
                                         l1348 0BDA                                           l1189 2ECC  
                                         l1526 48E0                                           l1474 46FA  
                                         l1378 1026                                           l1483 323C  
                                         l1459 454C                                           l5100 4862  
                                         l5020 48D2                                           l1477 4702  
                                         l1469 3B0A                                           l1397 35F4  
                                         l5102 4864                                           l5030 47F8  
                                         l5022 48D4                                           l1486 3180  
                                         l1494 4364                                           l1399 35FC  
                                         l5032 4808                                           l5040 4830  
                                         l5104 4882                                           l6000 1D82  
                                         l1497 4374                                           l5034 480A  
                                         l5050 4844                                           l5042 4834  
                                         l5026 47CA                                           l5018 48CE  
                                         l5106 4890                                           l6010 1DEE  
                                         l6002 1D84                                           l4410 37DE  
                                         l5036 480C                                           l5028 47F2  
                                         l5052 4846                                           l5044 483A  
                                         l5060 48B2                                           l6100 2C9A  
                                         l6020 1E46                                           l6012 1DF0  
                                         l6004 1D8E                                           l4412 37EE  
                                         l4404 37B2                                           l5070 477A  
                                         l5038 480E                                           l5046 4840  
                                         l5062 48B4                                           l5054 48AA  
                                         l6110 2CDA                                           l6102 2CA8  
                                         l6030 1E74                                           l6014 1E00  
                                         l6006 1D94                                           l4406 37BE  
                                         l4510 30A0                                           l5080 479A  
                                         l5072 4782                                           l5048 4842  
                                         l5064 48B6                                           l5056 48AC  
                                         l6200 2F2A                                           l6120 2D00  
                                         l6112 2CDC                                           l6104 2CAA  
                                         l6032 1E82                                           l6024 1E5A  
                                         l6040 1EA0                                           l6008 1DBA  
                                         l6016 1E10                                           l4408 37CE  
                                         l4520 3170                                           l4512 30B4  
                                         l4440 4388                                           l7000 23A0  
                                         l5082 479C                                           l5074 4794  
                                         l5090 4858                                           l5066 48B8  
                                         l5058 48B0                                           l6210 2F98  
                                         l6130 2D40                                           l6122 2D0E  
                                         l6106 2CBA                                           l6114 2CE4  
                                         l6034 1E8A                                           l6026 1E64  
                                         l6018 1E36                                           l6042 1EAE  
                                         l4530 322C                                           l4514 30C2  
                                         l4522 31A4                                           l4506 3028  
                                         l4450 43C4                                           l4442 4390  
                                         l5084 479E                                           l5076 4796  
                                         l5068 4776                                           l5092 485A  
                                         l7100 413A                                           l6220 3002  
                                         l6204 2F54                                           l6212 2F9C  
                                         l6140 2D80                                           l6132 2D42  
                                         l6124 2D10                                           l6116 2CF4  
                                         l6108 2CCA                                           l6300 25DE  
                                         l4364 473E                                           l6052 1F00  
                                         l6060 1F56                                           l6044 1EB2  
                                         l6036 1E8E                                           l6028 1E72  
                                         l4380 374E                                           l4372 36F8  
                                         l4524 31E0                                           l4508 3048  
                                         l4452 43CA                                           l4444 4398  
                                         l7012 240C                                           l5078 4798  
                                         l5094 485C                                           l5086 484E  
                                         l7110 418C                                           l7102 4146  
                                         l6222 3006                                           l6214 2FB6  
                                         l6206 2F60                                           l6150 2DB0  
                                         l6142 2D88                                           l6126 2D20  
                                         l6134 2D4A                                           l6118 2CFA  
                                         l6310 264C                                           l6302 25F8  
                                         l4366 4754                                           l6070 1FA8  
                                         l6062 1F66                                           l6054 1F0C  
                                         l6046 1EC0                                           l6038 1E9E  
                                         l4382 3750                                           l4374 3710  
                                         l4526 31F4                                           l4518 3134  
                                         l4446 43A6                                           l4438 4376  
                                         l7006 23CE                                           ?_pad 006C  
                                         l5096 485E                                           l5088 4856  
                                         l5360 449E                                           l7112 418E  
                                         l7104 4154                                           l7120 3434  
                                         l6400 3E12                                           l6224 3014  
                                         l6216 2FCC                                           l6208 2F6E  
                                         l6160 2DEE                                           l6152 2DB0  
                                         l6144 2D8C                                           l6136 2D5A  
                                         l6128 2D30                                           l6320 26E2  
                                         l6312 2676                                           l6304 2608  
                                         l6240 2452                                           l4368 4764  
                                         l6080 1FC6                                           l6072 1FAE  
                                         l6064 1F76                                           l6056 1F1A  
                                         l6048 1ED6                                           l4384 3760  
                                         l4528 321C                                           l4448 43BC  
                                         l7008 23FA                                           l7200 12F8  
                                         l5098 4860                                           l5370 4822  
                                         l5362 44A2                                           l7114 4198  
                                         l7106 415E                                           l7130 34AC  
                                         l7122 347A                                           l6410 3E38  
                                         l6402 3E1A                                           l6090 465E  
                                         l6226 301A                                           l6218 2FE6  
                                         l6170 2E3A                                           l6162 2DFE  
                                         l6138 2D70                                           l6330 2722  
                                         l6322 26F0                                           l6314 26AC  
                                         l6306 2624                                           l6250 248A  
                                         l6242 2454                                           l6074 1FB0  
                                         l6066 1F96                                           l6058 1F54  
                                         l4394 378A                                           l4386 3764  
                                         l4378 3724                                           l7050 44FC  
                                         l7210 1324                                           l7202 1308  
                                         l7060 4704                                           l5380 43DA  
                                         l5364 44C6                                           l7108 417C  
                                         l7140 3534                                           l7132 34B8  
                                         l7124 3490                                           l7116 3414  
                                         l6412 3E40                                           l6404 3E1C  
                                         l6420 3F12                                           l6084 4638  
                                         l6228 301C                                           l6180 2E84  
                                         l6172 2E48                                           l6164 2E0E  
                                         l6156 2DC4                                           l6148 2DA0  
                                         l6340 2794                                           l6332 2750  
                                         l6324 2702                                           l6316 26BA  
                                         l6308 2630                                           l6260 24B6  
                                         l6252 249A                                           l6244 2464  
                                         l6236 2436                                           l6076 1FB6  
                                         l6068 1F9A                                           l4396 3794  
                                         l4388 3772                                           l6092 47A2  
                                         l6500 4266                                           l7052 4508  
                                         l7300 15AA                                           l7220 137A  
                                         l7212 1330                                           l7204 1318  
                                         l7070 472A                                           l7062 4708  
                                         l5358 486A                                           l5374 4896  
                                         l5366 44CA                                           l7150 3572  
                                         l7142 3540                                           l7134 34EA  
                                         l7118 3426                                           l6406 3E22  
                                         l6430 3F46                                           l6422 3F1A  
                                         l6086 4646                                           l6190 2ECA  
                                         l6182 2E96                                           l6174 2E54  
                                         l6166 2E16                                           l6158 2DDE  
                                         l6350 280A                                           l6342 27BE  
                                         l6326 2710                                           l6318 26D8  
                                         l6270 250C                                           l6262 24C6  
                                         l6254 24A0                                           l6246 2474  
                                         l6238 2444                                           l6078 1FC4  
                                         l4398 379E                                           l6094 47C0  
                                         l6510 4292                                           l6502 426C  
                                         l7054 4526                                           l7310 15EC  
                                         l7302 15BA                                           l7230 13BE  
                                         l7222 137C                                           l7214 1358  
                                         l7206 1320                                           l7048 48BC  
                                         l7080 473A                                           l7072 472E  
                                         l7064 470C                                           l5384 443C  
                                         l5368 4812                                           l5376 48A6  
                                         l7152 3596                                           l7144 354E  
                                         l7136 34EC                                           l7128 34A4  
                                         l6408 3E28                                           l6440 3F82  
                                         l6432 3F4E                                           l6424 3F1E  
                                         l6416 3EFE                                           l6088 4658  
                                         l6520 3FEE                                           l6512 3FB0  
                                         l6600 32E0                                           l6184 2EAC  
                                         l6192 2EDC                                           l6176 2E72  
                                         l6168 2E26                                           l6352 2826  
                                         l6360 284C                                           l6336 277A  
                                         l6344 27C2                                           l6328 2714  
                                         l6280 2546                                           l6272 251C  
                                         l6264 24D6                                           l6256 24A6  
                                         l6248 2484                                           l6504 4282  
                                         l7056 4542                                           l7320 1620  
                                         l7312 15F2                                           l7304 15CE  
                                         l7232 13C2                                           l7240 144C  
                                         l7224 1384                                           l7216 135C  
                                         l7208 1322                                           l7074 4732  
                                         l7066 4710                                           l7154 35A6  
                                         l7146 356C                                           l7138 34F8  
                                         l6442 3F88                                           l6434 3F56  
                                         l6426 3F2C                                           l6418 3F04  
                                         l6530 46C2                                           l6522 4002  
                                         l6514 3FBE                                           l6610 3336  
                                         l6602 32EC                                           l6194 2EEA  
                                         l6186 2EB2                                           l6178 2E74  
                                         l6098 2C8C                                           l6362 2850  
                                         l6354 2836                                           l6346 27DC  
                                         l6338 2786                                           l6290 2598  
                                         l6282 255C                                           l6266 24E6  
                                         l6258 24B4                                           l6506 428A  
                                         l7090 45DE                                           l7082 45A0  
                                         l7330 166A                                           l7322 1634  
                                         l7314 1606                                           l7306 15E0  
                                         l7250 1480                                           l7242 145E  
                                         l7234 140E                                           l7226 1398  
                                         l7218 136A                                           l7170 12BA  
                                         l7162 12B0                                           l7076 4736  
                                         l7068 4726                                           l7156 35B4  
                                         l7148 356E                                           l6380 3DA4  
                                         l6372 3D84                                           l6436 3F64  
                                         l6444 3F8E                                           l6428 3F34  
                                         l6532 46DE                                           l6524 4016  
                                         l6516 3FD2                                           l6620 33A0  
                                         l6612 333C                                           l6604 32F6  
                                         l6196 2EEE                                           l6188 2EBC  
                                         l6460 40DC                                           l6452 405E  
                                         l6356 2844                                           l6348 27F0  
                                         l6292 25A6                                           l6284 2568  
                                         l6276 2530                                           l6268 24EC  
                                         l5900 1B7E                                           l6540 3A94  
                                         l6700 0A2E                                           l6508 428C  
                                         l7084 45B2                                           l7340 1814  
                                         l7324 163E                                           l7332 167E  
                                         l7316 160C                                           l7308 15E6  
                                         l7260 14AC                                           l7252 1486  
                                         l7244 1462                                           l7236 1448  
                                         l7228 13AE                                           l7180 12D8  
                                         l7172 12C0                                           l7164 12B4  
                                         l7078 4738                                           l7094 410A  
                                         l7158 35B6                                           l6390 3DD8  
                                         l6382 3DB2                                           l6374 3D8A  
                                         l6446 3F9E                                           l6438 3F7A  
                                         l6526 401C                                           l6518 3FE2  
                                         l6630 33EE                                           l6622 33BA  
                                         l6606 32FC                                           l6614 3358  
                                         l6198 2EFC                                           l6462 4100  
                                         l6454 408E                                           l6470 3830  
                                         l6358 2846                                           l6294 25B2  
                                         l6286 2580                                           l6278 253C  
                                         l5910 1BAC                                           l5902 1B84  
                                         l6366 45F0                                           l6542 3AA0  
                                         l6534 3A0C                                           l6710 0B16  
                                         l6702 0A34                                           l7086 45BA  
                                         l7350 1872                                           l7334 1706  
                                         l7326 1648                                           l7270 14E8  
                                         l7254 148C                                           l7246 1464  
                                         l7238 144A                                           l7342 183C  
                                         l7190 12EC                                           l7182 12DE  
                                         l7174 12C6                                           l7166 12B6  
                                         l7096 411A                                           l6392 3DE0  
                                         l6384 3DBA                                           l6376 3D98  
                                         l6448 3FA6                                           l6528 4048  
                                         l6616 3374                                           l6624 33C8  
                                         l6608 3330                                           l6464 4106  
                                         l6456 409E                                           l6480 389E  
                                         l6472 3840                                           l6296 25C2  
                                         l6288 258C                                           l5920 1BE0  
                                         l5912 1BAE                                           l5904 1B96  
                                         l6368 4602                                           l6552 3B02  
                                         l6536 3A2C                                           l6560 430E  
                                         l6800 1046                                           l6712 0B2A  
                                         l6720 0BA6                                           l6704 0A68  
                                         l6640 0868                                           l7088 45C2  
                                         l7360 18F2                                           l7352 187A  
                                         l7344 184E                                           l7336 180A  
                                         l7328 165A                                           l7280 1536  
                                         l7272 14FA                                           l7264 14C0  
                                         l7256 1492                                           l7248 1466  
                                         l7192 12EE                                           l7184 12E2  
                                         l7176 12CC                                           l7168 12B8  
                                         l7098 4132                                           l6394 3DE8  
                                         l6386 3DBE                                           l6378 3DA0  
                                         l6626 33D8                                           l6618 3386  
                                         l6458 40CC                                           l6482 38AC  
                                         l6474 386E                                           l6298 25CE  
                                         l5930 1C1C                                           l5914 1BBE  
                                         l5922 1BE8                                           l5906 1B98  
                                         l6538 3A6C                                           l6546 3AAC  
                                         l6562 432C                                           l6570 4572  
                                         l6810 1078                                           l6802 1056  
                                         l6730 0C0E                                           l6722 0BE2  
                                         l6714 0B5E                                           l6706 0AA6  
                                         l6650 08B2                                           l6642 086C  
                                         l6634 0844                                           l6490 422C  
                                         l7370 1A36                                           l7362 19A2  
                                         l7354 1882                                           l7346 1852  
                                         l7338 1810                                           l7282 153C  
                                         l7274 150A                                           l7266 14D4  
                                         l7258 14A6                                           l7194 12F0  
                                         l7186 12E6                                           l7178 12D2  
                                         l6396 3DF6                                           l6388 3DC6  
                                         l6628 33DE                                           l6580 3264  
                                         l6484 38FC                                           l6476 387E  
                                         l6468 3800                                           l5940 1C30  
                                         l5932 1C20                                           l5924 1BF8  
                                         l5916 1BCE                                           l5908 1B9E  
                                         l6548 3ABE                                           l6572 457E  
                                         l6564 454E                                           l6556 4680  
                                         l6820 10AC                                           l6812 107C  
                                         l6804 105A                                           l6740 0C5E  
                                         l6732 0C14                                           l6724 0BF0  
                                         l6716 0B66                                           l6708 0ADA  
                                         l6660 0900                                           l6652 08C2  
                                         l6644 0890                                           l6636 084A  
                                         l6492 4236                                           l6900 36D6  
                                         l7380 1A72                                           l7372 1A3A  
                                         l7364 1A00                                           l7356 18D2  
                                         l7348 186E                                           l7292 1570  
                                         l7284 1542                                           l7268 14DE  
                                         l7276 151E                                           l7196 12F2  
                                         l7188 12EA                                           l6398 3DFC  
                                         l5870 3BFE                                           l6590 32A6  
                                         l6582 326C                                           l6486 3902  
                                         l6478 388C                                           l5950 1C44  
                                         l5942 1C34                                           l5934 1C24  
                                         l5926 1C0A                                           l5918 1BDE  
                                         l6566 4562                                           l6574 4582  
                                         l6558 4690                                           l6830 114C  
                                         l6822 10B0                                           l6814 1082  
                                         l6806 1060                                           l6750 0CF6  
                                         l6734 0C26                                           l6742 0C66  
                                         l6726 0BFC                                           l6670 093C  
                                         l6662 0912                                           l6654 08CE  
                                         l6646 089A                                           l6638 085A  
                                         l6910 3D22                                           l6494 4248  
                                         l7550 2252                                           l7390 1AB6  
                                         l7382 1A88                                           l7374 1A50  
                                         l7358 18E2                                           l7366 1A06  
                                         l7294 1584                                           l7286 1556  
                                         l7278 1530                                           l7198 12F4  
                                         l5872 3C10                                           l6592 32B6  
                                         l6584 327A                                           l6576 323E  
                                         l5952 1C48                                           l5944 1C38  
                                         l5936 1C28                                           l5928 1C18  
                                         l5960 1C58                                           l6568 456E  
                                         l6840 11A0                                           l6824 10B6  
                                         l6808 1068                                           l6816 1088  
                                         l6832 1150                                           l6760 0DDC  
                                         l6752 0D4E                                           l6744 0C6E  
                                         l6736 0C34                                           l6728 0C06  
                                         l6680 099E                                           l6672 0946  
                                         l6664 0916                                           l6656 08D6  
                                         l6648 08A2                                           l6912 3D44  
                                         l6904 3CBA                                           l6496 4250  
                                         l7552 22B0                                           l6920 200A  
                                         l7392 1ACE                                           l7376 1A54  
                                         l7384 1A92                                           l7368 1A16  
                                         l7296 158E                                           l7288 155C  
                                         l5874 3C1A                                           l6594 32BC  
                                         l6586 327C                                           l6578 3254  
                                         l5970 1CC8                                           l5962 1C5C  
                                         l5954 1C4C                                           l5946 1C3C  
                                         l5938 1C2C                                           l5890 1B44  
                                         l5882 1B16                                           l6850 1208  
                                         l6842 11D0                                           l6834 116E  
                                         l6826 110E                                           l6818 109A  
                                         l6770 0E76                                           l6762 0E10  
                                         l6754 0D84                                           l6746 0C7E  
                                         l6738 0C4C                                           l6682 09A2  
                                         l6666 091C                                           l6658 08DA  
                                         l6914 3D52                                           l6906 3CC4  
                                         l6498 4258                                           l7554 236A  
                                         l6930 203C                                           l6922 2016  
                                         l7386 1A9E                                           l7378 1A6A  
                                         l7394 1AF8                                           l7298 1598  
                                         l5876 3C38                                           l5868 3BEC  
                                         l6596 32CC                                           l6588 328A  
                                         l5980 1CF2                                           l5972 1CD4  
                                         l5964 1C86                                           l5956 1C50  
                                         l5948 1C40                                           l5892 1B54  
                                         l5884 1B24                                           l6860 1270  
                                         l6852 121E                                           l6844 11DE  
                                         l6836 118A                                           l6828 1144  
                                         l6780 0F50                                           l6772 0EAA  
                                         l6764 0E24                                           l6748 0C92  
                                         l6756 0D8A                                           l6684 09A8  
                                         l6668 0924                                           l6676 0966  
                                         l6908 3CE8                                           l7556 23EC  
                                         l6940 20AA                                           l7548 206E  
                                         l6924 201A                                           l6916 1FD8  
                                         l7396 1B0A                                           l7388 1AA6  
                                         l5878 3C70                                           l6598 32D8  
                                         l5990 1D48                                           l5982 1D14  
                                         l5974 1CD8                                           l5966 1CA2  
                                         l5958 1C54                                           l5894 1B64  
                                         l5886 1B32                                           l6862 1286  
                                         l6854 1224                                           l6846 11F6  
                                         l6838 1192                                           l6790 0F78  
                                         l6774 0F04                                           l6782 0F54  
                                         l6766 0E58                                           l6758 0DA8  
                                         l6686 09B0                                           l6678 098C  
                                         l6694 09CC                                           l6870 35D6  
                                         l6950 2110                                           l6942 20B8  
                                         l6934 2048                                           l6926 2028  
                                         l6918 1FFC                                           l5992 1D56  
                                         l5984 1D24                                           l5976 1CE6  
                                         l5968 1CB2                                           l5896 1B66  
                                         l5888 1B34                                           l6864 128E  
                                         l6856 1242                                           l6792 0F84  
                                         l6784 0F64                                           l6776 0F08  
                                         l6768 0E66                                           l6696 09E6  
                                         l6880 3618                                           l6872 35D8  
                                         l6952 2120                                           l6944 20C2  
                                         l6928 202A                                           l6936 207C  
                                         l5994 1D64                                           l5978 1CE8  
                                         l5898 1B6E                                           l6858 1260  
                                         l6794 0FFE                                           l6786 0F6C  
                                         l6778 0F3C                                           l6882 361E  
                                         l6890 366E                                           l6874 35E6  
                                         l6962 21B6                                           l6954 213C  
                                         l6946 20E6                                           l6938 208E  
                                         l5996 1D70                                           l5988 1D38  
                                         l6796 101E                                           l6788 0F70  
                                         l6892 3682                                           l6884 3644  
                                         l6876 3604                                           l6868 35C8  
                                         l6980 228A                                           l6972 2234  
                                         l6964 21D2                                           l6956 2158  
                                         l6948 20F4                                           l5998 1D74  
                                         l6798 1038                                           l6894 3694  
                                         l6886 364C                                           l6878 360E  
                                         l6990 22EE                                           l6982 2292  
                                         l6966 221C                                           l6974 2260  
                                         l6958 219E                                           l6896 36AE  
                                         l6888 3652                                           l6992 2322  
                                         l6976 2270                                           l6898 36C8  
                                         l6978 2282                                           l6986 229A  
                                         l6996 2356                                           l6988 22CE  
                                         l6998 2380                                           STR_1 0840  
                                         STR_2 0801                                           STR_3 0838  
                                         STR_6 083C                                           u4200 3744  
                                         u4210 3772                                           u4211 376E  
                                         u4220 3786                                           u4300 43A6  
                                         u4221 3782                                           u4205 373A  
                                         u4301 43A2                                           u4230 37AE  
                                         u4310 43BC                                           u4231 37AA  
                                         u4311 43B8                                           u4240 37CE  
                                         u4241 37CA                                           u4250 37DE  
                                         u4251 37DA                                           u5220 4890  
                                         u4180 4754                                           u4500 3130  
                                         u5221 488C                                           u4181 4750  
                                         u4501 312C                                           u4190 3710  
                                         u4510 3154                                           u4191 370C  
                                         u6200 3BFE                                           u7000 2766  
                                         u4520 3170                                           u6201 3BFA  
                                         u7001 2762                                           u4521 316C  
                                         u6210 3C10                                           u7010 277A  
                                         u4530 31C4                                           u4290 4388  
                                         u6211 3C0C                                           u7011 2776  
                                         u4515 314A                                           u4291 4384  
                                         u7100 3E12                                           u6220 3C38  
                                         u7020 2794                                           u6300 1BCE  
                                         u4540 31E0                                           u4460 3072  
                                         u7101 3E0E                                           u6221 3C34  
                                         u7021 2790                                           u6301 1BCA  
                                         u4541 31DC                                           u7110 3E38  
                                         u6230 3C70                                           u7030 27DC  
                                         u6310 1C0A                                           u4550 321C  
                                         u4470 30A0                                           u7111 3E34  
                                         u6231 3C6C                                           u7031 27D8  
                                         u6311 1C06                                           u4551 3218  
                                         u4535 31BA                                           u4471 309C  
                                         u5600 4822                                           u7120 3F12  
                                         u7200 4100                                           u7040 280A  
                                         u6400 1D24                                           u6320 1C18  
                                         u6240 1B32                                           u4480 30C2  
                                         u8000 3D7A                                           u5601 481E  
                                         u7121 3F0E                                           u7201 40FC  
                                         u7041 2806                                           u6401 1D20  
                                         u6321 1C14                                           u6241 1B2E  
                                         u4481 30BE                                           u4465 3068  
                                         u8001 3D76                                           u5610 48A6  
                                         u7130 3F2C                                           u7210 3830  
                                         u7050 2844                                           u6410 1D56  
                                         u6330 1C86                                           u6250 1B44  
                                         u8010 1FFC                                           u5611 48A2  
                                         u7131 3F28                                           u7211 382C  
                                         u7051 2840                                           u6411 1D52  
                                         u6331 1C82                                           u6251 1B40  
                                         u8011 1FF8                                           u5620 43EC  
                                         u8100 4132                                           u7060 3D98  
                                         u7140 3F46                                           u7300 3FE2  
                                         u7220 386E                                           u6500 1E9E  
                                         u6420 1D64                                           u6340 1C9E  
                                         u6260 1B54                                           u8020 208E  
                                         u5621 43E4                                           u8101 412E  
                                         u7061 3D94                                           u7141 3F42  
                                         u7301 3FDE                                           u7221 386A  
                                         u6501 1E9A                                           u6421 1D60  
                                         u6341 1C98                                           u6261 1B50  
                                         u8021 208A                                           u5630 43FE  
                                         u8110 4154                                           u7070 3DB2  
                                         u7150 3F64                                           u7310 403A  
                                         u7230 388C                                           u6510 1EAE  
                                         u6430 1D82                                           u6350 1CA0  
                                         u6270 1B96                                           u8030 20B8  
                                         u5631 43F8                                           u8111 4150  
                                         u7071 3DAE                                           u7151 3F60  
                                         u7311 4036                                           u7231 3888  
                                         u6511 1EAA                                           u6431 1D7E  
                                         u6271 1B92                                           u4495 30D6  
                                         u8031 20B4                                           u5640 4416  
                                         u5560 487C                                           u8120 417C  
                                         u8200 356C                                           u7080 3DD8  
                                         u7160 3F7A                                           u7320 4048  
                                         u7240 38AC                                           u6600 1F96  
                                         u6520 1EC0                                           u6440 1DBA  
                                         u6360 1CC8                                           u6280 1BAC  
                                         u7400 3AFA                                           u4496 30E0  
                                         u8040 20E6                                           u5641 4410  
                                         u5561 4878                                           u8121 4178  
                                         u8201 3568                                           u7081 3DD4  
                                         u7161 3F76                                           u7321 4044  
                                         u7241 38A8                                           u6601 1F92  
                                         u6521 1EBC                                           u6441 1DB6  
                                         u6361 1CC4                                           u6281 1BA8  
                                         u4497 30F0                                           u8041 20E2  
                                         u5650 442E                                           u5570 44C2  
                                         u8210 35A6                                           u8130 3426  
                                         u7090 3DF6                                           u7170 3F9E  
                                         u7330 46DE                                           u7250 38FC  
                                         u6610 1FA8                                           u6530 1ED6  
                                         u6450 1E00                                           u6370 1CE6  
                                         u6290 1BBE                                           u7410 46C0  
                                         u8050 213C                                           u5651 4428  
                                         u8211 35A2                                           u8131 3422  
                                         u7091 3DF2                                           u7171 3F9A  
                                         u7331 46DA                                           u7251 38F8  
                                         u6611 1FA4                                           u6531 1ED2  
                                         u6451 1DFC                                           u6371 1CE2  
                                         u6291 1BBA                                           u7411 46BC  
                                         u8051 2138                                           u5660 444E  
                                         u5636 4400                                           u5628 43EE  
                                         u5580 44EA                                           u8220 35B4  
                                         u8140 3434                                           u7500 32CC  
                                         u6700 2D70                                           u7180 408E  
                                         u6620 1FC4                                           u6540 1EEC  
                                         u6460 1E36                                           u6380 1D06  
                                         u7340 3A4E                                           u7420 432C  
                                         u7260 4248                                           u8060 2158  
                                         u8300 145E                                           u5661 4446  
                                         u8221 35B0                                           u8141 3430  
                                         u7501 32C8                                           u6701 2D6C  
                                         u7181 408A                                           u6621 1FC0  
                                         u6541 1EE8                                           u6461 1E32  
                                         u6381 1D02                                           u7421 4328  
                                         u7261 4244                                           u8061 2154  
                                         u8301 145A                                           u5670 4460  
                                         u5646 4418                                           u5590 44FA  
                                         u8150 3490                                           u6630 467E  
                                         u7510 3374                                           u6710 2DB0  
                                         u7190 40CC                                           u6550 1F00  
                                         u6470 1E46                                           u6390 1D14  
                                         u7350 3A6C                                           u7430 459E  
                                         u7270 4266                                           u8070 21D2  
                                         u8310 14A6                                           u8230 1308  
                                         u5671 445A                                           u5591 44F6  
                                         u8151 348C                                           u6631 467A  
                                         u7511 3370                                           u6711 2DAC  
                                         u7191 40C8                                           u6551 1EFC  
                                         u6471 1E42                                           u6391 1D10  
                                         u7351 3A68                                           u7431 459A  
                                         u7271 4262                                           u8071 21CE  
                                         u8311 14A2                                           u8231 1304  
                                         u5680 4478                                           u5656 4430  
                                         u8160 34E6                                           u7520 3386  
                                         u7440 3250                                           u6800 2F2A  
                                         u6720 2E26                                           u6640 2CA8  
                                         u6560 1F1A                                           u6480 1E72  
                                         u7360 3A94                                           u7600 0900  
                                         u7280 4282                                           u8080 22EA  
                                         u8400 161C                                           u8320 14BC  
                                         u8240 1318                                           u5681 4472  
                                         u5577 44B8                                           u8161 34E2  
                                         u7521 3382                                           u7441 324A  
                                         u6801 2F26                                           u6721 2E22  
                                         u6641 2CA4                                           u6561 1F16  
                                         u6481 1E6E                                           u7361 3A90  
                                         u7345 3A42                                           u7601 08FC  
                                         u7281 427E                                           u8081 22E6  
                                         u8401 1618                                           u8321 14B8  
                                         u8241 1314                                           u5690 4490  
                                         u8170 3530                                           u7290 3FBE  
                                         u7530 33A0                                           u7450 3252  
                                         u6810 2F40                                           u6730 2E48  
                                         u6650 2CBA                                           u6570 1F54  
                                         u6490 1E82                                           u7370 3ABE  
                                         u7610 0912                                           u8090 4542  
                                         u8410 1634                                           u8330 14D4  
                                         u8250 1358                                           u5691 448A  
                                         u5587 44E0                                           u8171 352C  
                                         u7291 3FBA                                           u7531 339C  
                                         u6811 2F3C                                           u6731 2E44  
                                         u6651 2CB6                                           u6571 1F50  
                                         u6491 1E7E                                           u7371 3ABA  
                                         u7611 090E                                           u8091 453E  
                                         u8411 1630                                           u8331 14D0  
                                         u8251 1354                                           u5676 4462  
                                         u5668 4450                                           u8180 354E  
                                         u7540 33BA                                           u7460 3264  
                                         u6820 2F54                                           u6740 2E72  
                                         u6660 2CCA                                           u6900 24B4  
                                         u6580 1F66                                           u7700 0BF0  
                                         u7620 098C                                           u8500 1A16  
                                         u8420 167E                                           u8340 151E  
                                         u8260 136A                                           u8181 354A  
                                         u7541 33B6                                           u7461 3260  
                                         u6821 2F50                                           u6741 2E6E  
                                         u6661 2CC6                                           u6901 24B0  
                                         u6581 1F62                                           u7701 0BEC  
                                         u7621 0988                                           u8501 1A12  
                                         u8421 167A                                           u8341 151A  
                                         u8261 1366                                           u5686 447A  
                                         u8190 355E                                           u7550 33C8  
                                         u7470 327A                                           u6830 2F6E  
                                         u6750 2E96                                           u6670 2D0E  
                                         u6910 24C6                                           u6590 1F76  
                                         u7390 3AF8                                           u7710 0C26  
                                         u7630 099E                                           u8510 1A36  
                                         u8430 1828                                           u8350 1556  
                                         u8270 137A                                           u8191 355A  
                                         u7551 33C4                                           u7471 3276  
                                         u6831 2F6A                                           u6751 2E92  
                                         u6671 2D0A                                           u6911 24C2  
                                         u6591 1F72                                           u7391 3AF2  
                                         u7711 0C22                                           u7631 099A  
                                         u8511 1A32                                           u8431 181E  
                                         u8351 1552                                           u8271 1376  
                                         u5696 4492                                           u7560 33D8  
                                         u7480 328A                                           u6840 2FB6  
                                         u6760 2EAC                                           u6680 2D20  
                                         u6920 24D6                                           u7800 0FFE  
                                         u7720 0C34                                           u7640 0A1A  
                                         u8520 1A50                                           u8360 156C  
                                         u8280 1398                                           u7561 33D4  
                                         u7481 3286                                           u6841 2FB2  
                                         u6761 2EA8                                           u6681 2D1C  
                                         u6921 24D2                                           u7385 3AD0  
                                         u7801 0FFA                                           u7721 0C30  
                                         u7641 0A16                                           u8521 1A4C  
                                         u8361 1568                                           u8281 1394  
                                         u7490 32B6                                           u6850 2FE6  
                                         u6770 2ECA                                           u6690 2D30  
                                         u6930 250C                                           u7810 1038  
                                         u7730 0C5E                                           u7650 0AA6  
                                         u7570 0868                                           u8530 1A6A  
                                         u8450 184E                                           u8370 1584  
                                         u8290 13BE                                           u7491 32B2  
                                         u6851 2FE2                                           u6771 2EC6  
                                         u6691 2D2C                                           u6931 2508  
                                         u7811 1034                                           u7731 0C5A  
                                         u7651 0AA2                                           u7571 0864  
                                         u8531 1A66                                           u8451 184A  
                                         u8371 1580                                           u8291 13BA  
                                         u6860 3014                                           u6780 2EEA  
                                         u6940 251C                                           u7900 1260  
                                         u7820 1046                                           u7740 0DA8  
                                         u7660 0ADA                                           u7580 08B2  
                                         u8540 1AB6                                           u8380 15CE  
                                         u6861 3010                                           u6781 2EE6  
                                         u6941 2518                                           u7901 125C  
                                         u7821 1042                                           u7741 0DA4  
                                         u7661 0AD6                                           u7581 08AE  
                                         u8541 1AB2                                           u8381 15CA  
                                         u6790 2EFC                                           u6950 2696  
                                         u6870 2452                                           u7910 1270  
                                         u7830 109A                                           u7750 0E10  
                                         u7670 0B16                                           u7590 08C2  
                                         u8550 1B0A                                           u8470 186E  
                                         u8390 1606                                           u6791 2EF8  
                                         u6871 244E                                           u7911 126C  
                                         u7831 1096                                           u7751 0E0C  
                                         u7671 0B12                                           u7591 08BE  
                                         u8551 1B06                                           u8471 186A  
                                         u8391 1602                                           u6960 26F0  
                                         u6880 2464                                           u7840 116E  
                                         u7760 0E58                                           u7680 0BA2  
                                         u7920 35D6                                           u8480 18E2  
                                         u8448 182C                                           u6961 26EC  
                                         u6881 2460                                           u7841 116A  
                                         u7761 0E54                                           u7681 0B9E  
                                         u7921 35D2                                           u8481 18DE  
                                         u8465 185A                                           u6970 2710  
                                         u6890 2474                                           u7850 118A  
                                         u7770 0E66                                           u7690 0BDA  
                                         u7930 35E6                                           u8490 18F2  
                                         u6971 270C                                           u6955 268C  
                                         u6891 2470                                           u7851 1186  
                                         u7771 0E62                                           u7691 0BD6  
                                         u7931 35E2                                           u8491 18EE  
                                         u8467 185C                                           u6980 2722  
                                         u7860 11F0                                           u7780 0F04  
                                         u7940 3682                                           u6981 271E  
                                         u7861 11EA                                           u7781 0F00  
                                         u7941 367E                                           u6990 2750  
                                         u7870 11F2                                           u7790 0F50  
                                         u7950 3694                                           u6991 274C  
                                         u7791 0F4C                                           u7951 3690  
                                         u7880 1204                                           u7960 36AE  
                                         u7881 1200                                           u7961 36AA  
                                         u7890 1242                                           u7970 36C8  
                                         u7891 123E                                           u7971 36C4  
                                         u7980 36D6                                           u7981 36D2  
                                         u7990 3CE8                                           u7991 3CE4  
                                         _TMR2 0FCC                    __end_of_Inicializar_Sistema 473E  
                                         abs@a 0062                                           _dbuf 0178  
                                         _labs 430E                                           _main 12B0  
                                         _dtoa 323E                                _Lectura_ADC_CH0 0168  
                                i1___flmul@grs 000E                                           _prec 0026  
                                         pad@i 0072                                           pad@p 0070  
                                         fsr1h 0FE2                                           fsr2h 0FDA  
                                         indf1 0FE7                                           indf2 0FDF  
                                         fsr1l 0FE1                                           pad@w 0074  
                                         fsr2l 0FD9                                           btemp 0041  
                                         _utoa 35C8                                  _frec_tx_datos 00FA  
                                ___fpclassifyf 3A0C                                           prodh 0FF4  
                                         prodl 0FF3                                           start 0090  
                              ___fldiv@new_exp 0094                         _Asignar_Minutos_Timer0 48BC  
                                 ___param_bank 0000                                          ??_abs 0064  
                                        ??_pad 0023                                  ___fltol@sign1 00A4  
                                        ?_labs 001F                                __end_of___fladd 1FD8  
                                        ?_main 0001                                          ?_dtoa 0076  
                              __end_of___fldiv 3028                                __end_of___awdiv 3E4A  
                              __end_of___flneg 4776                                __end_of___awmod 3FB0  
                              __end_of___flmul 2862                                __end_of___flsub 4638  
                              __end_of___fltol 3800                                __end_of___lldiv 41B0  
                                        ?_utoa 0076                                ___awdiv@divisor 0021  
                                        _T2CON 0FCA                                __end_of___lwdiv 42A2  
               ?_Inicializar_Administrador_PIN 0001                                          i1l113 422A  
                                        i1l107 0076                                          i1l108 0078  
                                        i1l126 3BEA                                          i2l100 48DA  
                              __end_of___lwmod 43DA                                          i1l893 3A0A  
                              ___awdiv@counter 0060                                          _RCREG 0FAE  
                                 vfpfcnvrt@fmt 00E7                                _num_de_estacion 0173  
                                        _TMR0H 0FD7                                          _TMR0L 0FD6  
                                        _SPBRG 0FAF                                          _TXREG 0FAD  
                                        _flags 0036                                 i1___flmul@aexp 0012  
                          read_prec_or_width@c 0068                                 i1___flmul@bexp 0013  
                          read_prec_or_width@n 0069                                          _fputc 3BEC  
                                        _fputs 4638                                 i1___flmul@sign 000D  
                                        labs@a 001F                                 i1___flmul@temp 0018  
                               i1___flmul@prod 0014                                          pad@fp 006C  
                                        _width 0024                                          _putch 48E0  
                                        main@i 00F9                                          dtoa@d 0078  
                                        dtoa@i 0081                                          dtoa@p 007C  
                                        dtoa@s 0080                                          dtoa@w 007E  
                              __end_of_low_isr 0090                                          tablat 0FF5  
                               i1___fltol@exp1 000A                             _datos_afm_high_str 0100  
                                        ttemp5 0042                                          ttemp6 0045  
                                        ttemp7 0049                                          utoa@d 0078  
                                        utoa@i 007E                                          utoa@p 007A  
                                        utoa@w 007C                                          status 0FD8  
                                        wtemp8 0042                                __end_of_sprintf 45F0  
                               ?___fpclassifyf 001F                         _HABILITAR_TX_DATOS_AFM 016F  
                           _datos_afm_full_str 010C                     __end_of_UART_Enviar_Cadena 44FC  
                              __initialization 42A2                               __end_of_Leer_ADC 4830  
                                 __end_of_labs 4376                         ??_SPI_Recibir_Caracter 001F  
                                 __end_of_main 1B16                                   __end_of_dtoa 3410  
                                 __end_of_utoa 36F8                           _contador_pluviometro 00FD  
                            _dato_spi_low_band 012A                                         ??_labs 0060  
                                       ??_main 00F8                                         ??_dtoa 0024  
                                       ??_utoa 0024                                  __activetblptr 0002  
                   __end_of_read_prec_or_width 3D84                             _NIVEL_UNBRAL_500MV 01F8  
                                       ?_fputc 001F                                         ?_fputs 0065  
                                       _ADRESH 0FC4                                         _ADRESL 0FC3  
                             ___awdiv@dividend 001F                                         ?_putch 0001  
                __end_of_Inicializar_Oscilador 48D8                                         i1l1210 2926  
                                       i1l1220 2B82                                         i1l1214 2C8A  
                                       i1l1217 2B1C                                         i1l1227 2C4C  
                                       i1l1219 2B94                                         i1l5120 391C  
                                       i1l5210 2992                                         i1l5202 295A  
                                       i1l5130 396C                                         i1l5220 29DC  
                                       i1l5212 29AA                                         i1l5204 2966  
                                       i1l5140 3996                                         i1l5132 3970  
                                       i1l5124 3930                                         i1l5300 4214  
                                       i1l5230 2A32                                         i1l5222 29EC  
                                       i1l5214 29B6                                         i1l5206 2970  
                                       i1l5150 39BE                                         i1l5142 39A0  
                                       i1l5134 397E                                         i1l5126 395A  
                                       i1l5118 3906                                         i1l5302 4226  
                                       i1l5310 3B36                                         i1l5240 2AD6  
                                       i1l5232 2A4E                                         i1l5224 29F8  
                                       i1l5216 29C2                                         i1l5208 2986  
                                       i1l5152 39CA                                         i1l5144 39AA  
                                       i1l5128 395C                                         i1l5320 3B7C  
                                       i1l5312 3B3A                                         i1l5304 3B0C  
                                       i1l5250 2B2C                                         i1l5242 2AE4  
                                       i1l5234 2A5A                                         i1l5226 2A08  
                                       i1l5218 29D0                                         i1l5170 288E  
                                       i1l5162 2862                                         i1l5154 39DA  
                                       i1l5330 3BBE                                         i1l5322 3B8E  
                                       i1l5314 3B50                                         i1l5306 3B0E  
                                       i1l5252 2B3A                                         i1l5244 2B02  
                                       i1l5236 2A76                                         i1l5228 2A22  
                                       i1l5180 28CA                                         i1l5172 289E  
                                       i1l5164 286E                                         i1l5156 39EA  
                                       i1l5332 3BD4                                         i1l5324 3B92  
                                       i1l5316 3B62                                         i1l5308 3B24  
                                       i1l5262 2BA4                                         i1l5270 2BEC  
                                       i1l5254 2B3E                                         i1l5246 2B0C  
                                       i1l5238 2AA0                                         i1l5190 2900  
                                       i1l5182 28D0                                         i1l5174 28AE  
                                       i1l5166 287C                                         i1l5158 39FA  
                                       i1l5334 3BE6                                         i1l5326 3BA8  
                                       i1l5318 3B66                                         i1l5280 2C60  
                                       i1l5272 2C06                                         i1l5264 2BB0  
                                       i1l5256 2B4C                                         i1l5248 2B1A  
                                       i1l5192 2910                                         i1l5184 28DE  
                                       i1l5176 28B4                                         i1l5168 287E  
                                       i1l5328 3BBA                                         i1l5282 2C6E  
                                       i1l5274 2C1A                                         i1l5266 2BBE  
                                       i1l5258 2B7A                                         i1l5194 2916  
                                       i1l5186 28E0                                         i1l5178 28C4  
                                       i1l5284 2C70                                         i1l5276 2C34  
                                       i1l5268 2BE8                                         i1l5196 2936  
                                       i1l5188 28F0                                         i1l5292 41B0  
                                       i1l5278 2C50                                         i1l5286 2C76  
                                       i1l5198 2946                                         i1l5294 41B4  
                                       i1l5470 003E                                         i1l5288 2C7A  
                                       i1l5296 41B6                                         i1l5480 0070  
                                       i1l5472 0042                                         i1l5298 41EA  
                                       i1l5474 0050                                         i1l5476 0054  
                                       i1l5468 002E                                         i1l5478 0062  
                                vfpfcnvrt@done 00ED                                         _SSPBUF 0FC9  
                             __end_of___xxtofl 35C8                               _Inicializar_UART 48AA  
                                 vfprintf@cfmt 00F6                               __end_of_high_isr 48DE  
                                       ___flge 3800                                         ___fleq 405E  
                                    ??___fladd 001F                                         ___wmul 47A2  
                                    ??___fldiv 008B                                      ??___awdiv 0023  
                                    ??___flneg 0023                                      ??___awmod 0023  
                                    ??___flmul 0072                                      ??___flsub 0023  
                                    ??___fltol 00A0                                      ??___lldiv 001F  
                                       _efgtoa 0844                                      ??___lwdiv 0023  
                                    ??___lwmod 0023                                         _floorf 3028  
                                       _memcpy 454E                           read_prec_or_width@ap 0064  
                                       clear_0 42E0                                         clear_1 42FA  
                             ___awdiv@quotient 0062                                ___awmod@divisor 0021  
                                       isa$std 0001                                ___awmod@counter 0060  
                                       pad@buf 006E                                         dtoa@fp 0076  
                                       _strcpy 4680                      _check_sum_valor_calculado 0150  
                            __end_ofi1___flmul 2C8C                              __end_ofi1___fltol 3A0C  
                                       fputc@c 001F                                         fputs@c 0069  
                      _lectura_sensor_low_band 0154                                         fputs@i 006A  
                                       fputs@s 0065                                ___fpclassifyf@e 0064  
                              ___fpclassifyf@u 0066                                ___fpclassifyf@x 001F  
                                 __mediumconst 0000                                      ??_low_isr 001A  
                                       tblptrh 0FF7                                         tblptrl 0FF6  
                                       tblptru 0FF8                                i1___fltol@sign1 0009  
                        _Lectura_Frecuencia_tx 443C                                         putch@c 0001  
                             __end_of_vfprintf 454E                                         utoa@fp 0076  
                           _dato_spi_high_band 0126                                      ??_sprintf 0024  
                                   ___flge@ff1 0083                                     ___flge@ff2 0087  
                              ??___fpclassifyf 0060                                   ___xxtofl@arg 0066  
                                 ___xxtofl@exp 0065                                   ___xxtofl@val 001F  
                                   ___fleq@ff1 0060                                     ___fleq@ff2 0064  
                                   __accesstop 0060                        __end_of__initialization 4300  
                                   ___flneg@f1 001F                                  ___rparam_used 0001  
                                   ___fltol@f1 009C                             _dato_spi_full_band 012E  
                               __pcstackCOMRAM 0001                                  _ALARMA_ACTIVA 0171  
                                 __pidataBANK1 48DE                                   __pidataBANK2 3E4A  
                                __end_of_fputc 3CBA                                  __end_of_fputs 4680  
                              _HABILITAR_TASK0 00FC                                _HABILITAR_TASK1 00FB  
                              _HABILITAR_TASK2 0177                                _HABILITAR_TASK3 0176  
                              _HABILITAR_TASK4 0175                                _HABILITAR_TASK5 003F  
                              _HABILITAR_TASK6 003E                                _HABILITAR_TASK7 003D  
                              _HABILITAR_TASK8 003C                                _HABILITAR_TASK9 003B  
                                __end_of_putch 48E2                                        ??_fputc 0060  
                                      ??_fputs 0023                                      ?_Leer_ADC 001F  
                                      ??_putch 001F                                     __pbssBANK0 00FA  
                                   __pbssBANK1 0100                            _temp_num_minutos_t0 013A  
                      ?_Asignar_Minutos_Timer0 006A                   _lectura_sensor_low_band_test 014E  
                                      ?___flge 0083                                        ?___fleq 0060  
                                      ?___wmul 001F                                        ?_efgtoa 00B0  
                                      ?_floorf 009C                                        ?_memcpy 0060  
                                      ?_strcpy 001F                                      ?___xxtofl 001F  
                       ?_Lectura_Frecuencia_tx 0001                        _medida_nivel_bateria_pc 0148  
                                      _SSPCON1 0FC6                                     ??_Leer_ADC 0021  
                                    ?_high_isr 0001                                        _SSPSTAT 0FC7  
                                   _cont_task0 0032                                     _cont_task1 0030  
                                   _cont_task2 002E                                     _cont_task3 002C  
                                   _cont_task4 002A                                     _cont_task5 0028  
                                   _cont_task6 0166                                     _cont_task7 0164  
                                   _cont_task8 0162                                     _cont_task9 0160  
               __end_of_Asignar_Minutos_Timer0 48CE                ??_Inicializar_Administrador_PIN 001F  
                                      __Hparam 0000                                        __Lparam 0000  
                 __end_of_Atencion_Int_Timer_0 422C                   __end_of_Atencion_Int_Timer_2 3BEC  
                                      ___fladd 1B16                                        ___fldiv 2C8C  
                                      ___awdiv 3D84                                        ___flneg 473E  
                                      ___awmod 3EFE                                        ___flmul 2436  
                                      ___flsub 45F0                                        ___fltol 36F8  
                                      ___lldiv 410A                                        ___lwdiv 422C  
                     _lectura_sensor_high_band 0152                                        ___lwmod 4376  
                                    ?_vfprintf 01CC                                   __psmallconst 0800  
                          _SPI_Enviar_Caracter 4868                                        __pcinit 42A2  
                                      __ramtop 0800                                        __ptext0 12B0  
                                      __ptext1 45A0                                        __ptext2 44FC  
                                      __ptext3 1FD8                                        __ptext4 35C8  
                                      __ptext5 4376                                        __ptext6 422C  
                                      __ptext7 3CBA                                        __ptext8 47A2  
                                      __ptext9 0844                                      _T0CONbits 0FD5  
                           _UART_Enviar_Cadena 449E                                      _T2CONbits 0FCA  
                        read_prec_or_width@fmt 0062                                     ??___xxtofl 0060  
                             ___awmod@dividend 001F                                        _low_isr 0018  
                                      efgtoa@c 00B6                                        efgtoa@d 00C4  
                                      efgtoa@e 00C8                                        efgtoa@f 00B2  
                                      efgtoa@g 00DB                                        efgtoa@h 00D0  
                                      efgtoa@i 00D8                                        efgtoa@l 00D4  
                                      efgtoa@m 00C6                                        efgtoa@n 00DF  
                                      efgtoa@p 00BB                                        efgtoa@t 00BD  
                                      efgtoa@u 00E1                                        efgtoa@w 00CE  
                     _lectura_sensor_full_band 0156                       __end_of_Inicializar_UART 48BC  
                                      _sprintf 45A0                            ?_UART_Enviar_Cadena 0020  
                                   ??_high_isr 0001                                 __pintcode_body 48D8  
                         end_of_initialization 4300                                        floorf@e 00AA  
                                      floorf@m 00A6                                        floorf@u 00AC  
                                      floorf@x 009C                           ?_SPI_Enviar_Caracter 0001  
                                      memcpy@d 0020                                        memcpy@n 0064  
                                      memcpy@s 0022                                        fputc@fp 0021  
                                __Lmediumconst 0000                                        int_func 48D8  
                                      fputs@fp 0067                             _read_prec_or_width 3CBA  
                              ___lldiv@divisor 0064                                ___lldiv@counter 0023  
                  _HABILITAR_TAREA_MINUTOS_SOL 0174                              __end_of_vfpfcnvrt 2436  
                                   efgtoa@mode 00C2                                     efgtoa@sign 00DA  
                                    _RCSTAbits 0FAB                                        postdec1 0FE5  
                                      postdec2 0FDD                            ?_read_prec_or_width 0062  
                                      postinc0 0FEE                                        postinc1 0FE6  
                                      postinc2 0FDE                           ??_UART_Enviar_Cadena 0022  
                             vfpfcnvrt@convarg 00F0                                     ??_vfprintf 0024  
                                      strcpy@d 0062                                        strcpy@s 0060  
                                    _PORTAbits 0F80                                      _PORTBbits 0F81  
                                    _PORTCbits 0F82                                    ___fladd@grs 006B  
                                ___xxtofl@sign 0064                                      _TRISAbits 0F92  
                                    _TRISBbits 0F93                                      _TRISCbits 0F94  
                         ??_read_prec_or_width 0066                                      i1___flmul 2862  
                                  ___fldiv@grs 0096                                      i1___fltol 3906  
                                  ___fldiv@rem 008F                          ??_SPI_Enviar_Caracter 001F  
                                  ___flmul@grs 0078                          _Inicializar_Oscilador 48CE  
                          _contador_minutos_t0 0034                                      _TXSTAbits 0FAC  
        __end_of_Inicializar_Administrador_PIN 47F2                  _Inicializar_Administrador_PIN 47CA  
                       _frecuencia_tx_datos_pc 0170                   __end_of_UART_Enviar_Caracter 4896  
                     UART_Enviar_Cadena@cadena 0020                                 __end_of___flge 3906  
                               __end_of___fleq 410A                                    vfpfcnvrt@ap 00E9  
                                  vfpfcnvrt@cp 00F4                                    vfpfcnvrt@fp 00E5  
                               __end_of___wmul 47CA                                    _BAUDCONbits 0FB8  
                               __end_of_efgtoa 12B0                              _Configurar_Timer0 47F2  
                            _Configurar_Timer2 4830                                 __end_of_floorf 323E  
                               __end_of_memcpy 45A0                                     floorf@F526 0112  
                             _HABILITAR_TASK10 003A                             ?_Configurar_Timer0 0001  
                           ?_Configurar_Timer2 0001                                 __end_of_strcpy 46C2  
                          start_initialization 42A2                                 _Configurar_ADC 4776  
                               _NUM_MINUTOS_T0 01C8                                 _Configurar_SPI 484E  
                                  __end_of_abs 4704                     _HABILITAR_VERIFICAR_UMBRAL 016D  
                                  __end_of_pad 405E                                     ?i1___flmul 0001  
                                   ?i1___fltol 0001                              _datos_afm_low_str 0106  
                          ??_Configurar_Timer0 001F                            ??_Configurar_Timer2 001F  
                         _Atencion_Int_Timer_0 41B0                           _Atencion_Int_Timer_2 3B0C  
                   __end_of_Lectura_Numero_Est 443C                          __end_of___fpclassifyf 3B0C  
                                  vfprintf@fmt 01CE                                       ??___flge 008B  
                                     ??___fleq 001F                                       ??___wmul 0023  
                     _HABILITAR_LECTURA_SENSOR 016E                                       ??_efgtoa 00B7  
                    __end_of_Configurar_Timer0 4812                      __end_of_Configurar_Timer2 484E  
                                  __pdataBANK1 01F8                                    __pdataBANK2 0200  
                                     ??_floorf 00A0                                       ??_memcpy 001F  
                      ??_Lectura_Frecuencia_tx 001F                                       ??_strcpy 0023  
                                    ___fladd@a 0064                                      ___fladd@b 0060  
                       __end_of_Configurar_ADC 47A2                                      ___fldiv@a 0087  
                                    ___fldiv@b 0083                         __end_of_Configurar_SPI 4868  
                        _datos_sensores_afm_pc 025A                                      ___flmul@a 006E  
                                    ___flmul@b 006A                                    __pbssCOMRAM 0024  
                                    ___flsub@a 0087                                      ___flsub@b 0083  
                                __pcstackBANK0 0060                                  __pcstackBANK1 01CC  
                          _Inicializar_Sistema 4704                          ?_Atencion_Int_Timer_0 0001  
                        ?_Atencion_Int_Timer_2 0001                         ?_Inicializar_Oscilador 0001  
                                  _efgtoa$2543 00BF                               ___lwdiv@dividend 001F  
                                    _dtoa$2512 007A                           ?_Inicializar_Sistema 0001  
                                    __pintcode 0008    _contador_lectura_adc@interrupt_manager$F904 0037  
      _suma_lectura_adc@interrupt_manager$F905 011E    _contador_lectura_adc@interrupt_manager$F657 0172  
      _suma_lectura_adc@interrupt_manager$F658 0136                                       ?___fladd 0060  
                                     ?___fldiv 0083                                       ?___awdiv 001F  
                                     ?___flneg 001F                                       ?___awmod 001F  
                                     ?___flmul 006A                                       ?___flsub 0083  
                                     ?___fltol 009C                                       ?___lldiv 0060  
                                     ?___lwdiv 001F                                       ?___lwmod 001F  
                                _dato_recibido 0039                                    __pintcodelo 0018  
                                  __smallconst 0800                                ?_Configurar_ADC 0001  
                              ?_Configurar_SPI 0001                                       ?_low_isr 0001  
                                  ??i1___flmul 0009                                    ??i1___fltol 0005  
                            ?_Inicializar_UART 0001                               ___lwdiv@quotient 0061  
                                     ?_sprintf 01D2                           _UART_Enviar_Caracter 4880  
                           ??_Inicializar_UART 001F                                 ___wmul@product 0060  
                                     _LATBbits 0F8A                                       _IPR1bits 0F9F  
                                     _PIE1bits 0F9D                          ??_Inicializar_Sistema 0023  
                                     i1u530_20 39EA                                       i1u530_21 39E6  
                                     i1u531_20 287C                                       i1u531_21 2878  
                                     i1u540_20 2B1A                                       i1u532_20 288E  
                                     i1u524_20 391C                                       i1u540_21 2B16  
                                     i1u532_21 288A                                       i1u524_21 3918  
                                     i1u541_20 2B3A                                       i1u533_20 289E  
                                     i1u525_20 3950                                       i1u541_21 2B36  
                                     i1u533_21 289A                                       i1u525_25 3946  
                                     i1u542_20 2B4C                                       i1u534_20 28DE  
                                     i1u526_20 397E                                       i1u550_20 4214  
                                     i1u542_21 2B48                                       i1u534_21 28DA  
                                     i1u526_21 397A                                       i1u550_21 4210  
                                     i1u543_20 2B7A                                       i1u535_20 28F0  
                                     i1u527_20 3992                                       i1u551_20 3B24  
                                     i1u543_21 2B76                                       i1u535_21 28EC  
                                     i1u527_21 398E                                       i1u551_21 3B20  
                                     i1u544_20 2B90                                       i1u536_20 2900  
                                     i1u528_20 39BA                                       i1u552_20 3B50  
                                     i1u544_21 2B8C                                       i1u536_21 28FC  
                                     i1u528_21 39B6                                       i1u552_21 3B4C  
                                     i1u545_20 2BA4                                       i1u537_20 2936  
                                     i1u529_20 39DA                                       i1u553_20 3B7C  
                                     i1u545_21 2BA0                                       i1u537_21 2932  
                                     i1u529_21 39D6                                       i1u553_21 3B78  
                                     i1u546_20 2BBE                                       i1u538_20 2946  
                                     i1u554_20 3BA8                                       i1u546_21 2BBA  
                                     i1u538_21 2942                                       i1u554_21 3BA4  
                                     i1u547_20 2C06                                       i1u539_20 2AC0  
                                     i1u555_20 3BD4                                       i1u547_21 2C02  
                                     i1u555_21 3BD0                                       i1u539_25 2AB6  
                                     i1u548_20 2C34                                       i1u548_21 2C30  
                                     i1u549_20 2C6E                                       i1u549_21 2C6A  
                                     i1u583_20 003E                                       i1u583_21 003A  
                                     i1u584_20 0050                                       i1u584_21 004C  
                                     i1u585_20 0062                                       i1u585_21 005E  
                                     _PIR1bits 0F9E                                       i1u586_20 0070  
                                     i1u586_21 006C                                       _UCFGbits 0F6F  
                                     _RCONbits 0FD0                       _medida_nivel_bateria_dec 0146  
                     _medida_nivel_bateria_flt 0122                                       _UCONbits 0F6D  
                                    _vfpfcnvrt 1FD8                                     _ADCON0bits 0FC2  
                                   _ADCON1bits 0FC1                                     _ADCON2bits 0FC0  
                            ___wmul@multiplier 001F                                    _cont_task10 015E  
                       ??_Atencion_Int_Timer_0 001A                         ??_Atencion_Int_Timer_2 0001  
                        ?_UART_Enviar_Caracter 0001                                     vfpfcnvrt@c 00EF  
                                  _INTCON2bits 0FF1                   __end_of_SPI_Recibir_Caracter 48AA  
                                     _Leer_ADC 4812                                      copy_data0 42B6  
                     UART_Enviar_Caracter@dato 001F                  Asignar_Minutos_Timer0@minutos 006A  
                              _dato_spi_temp_f 015C                                _dato_spi_temp_h 0158  
                              _dato_spi_temp_l 015A                                       __Hrparam 0000  
                                    memcpy@tmp 001F                                     vfprintf@ap 01D0  
                                     __Lrparam 0000                                     vfprintf@fp 01CC  
                                   ?_vfpfcnvrt 00E5                                     _FLANCO_NEG 00FE  
                           ___fpclassifyf@F465 0116                                     sprintf@fmt 01D4  
                                     ___xxtofl 3410                    __end_of_SPI_Enviar_Caracter 4880  
                              ___lwdiv@divisor 0021                       ??_Asignar_Minutos_Timer0 0023  
                       _resultado_adc_flotante 013E                                ___lwdiv@counter 0060  
                                     __ptext10 4680                                       __ptext11 454E  
                                     __ptext20 3800                                       __ptext12 430E  
                                     __ptext21 405E                                       __ptext13 3028  
                                     __ptext30 3D84                                       __ptext22 2C8C  
                                     __ptext14 3A0C                                       __ptext31 3410  
                                     __ptext23 323E                                       __ptext15 36F8  
                                     __ptext40 4704                                       __ptext32 410A  
                                     __ptext24 3FB0                                       __ptext16 45F0  
                                     __ptext41 48AA                                       __ptext33 449E  
                                     __ptext25 4638                                       __ptext17 1B16  
                                     __ptext50 3B0C                                       __ptext42 48CE  
                                     __ptext34 4880                                       __ptext26 3BEC  
                                     __ptext18 473E                                       __ptext51 41B0  
                                     __ptext43 47CA                                       __ptext35 4896  
                                     __ptext27 48E0                                       __ptext19 2436  
                                     __ptext52 3906                                       __ptext44 4830  
                                     __ptext36 4868                                       __ptext28 46C2  
                                     __ptext53 2862                                       __ptext45 47F2  
                                     __ptext37 4812                                       __ptext29 3EFE  
                                     __ptext46 484E                                       __ptext38 43DA  
                                     __ptext47 4776                                       __ptext39 443C  
                                     __ptext48 48BC                                       _high_isr 0008  
                    SPI_Enviar_Caracter@spi_tx 001F                                     strcpy@dest 001F  
                         _DATOS_LISTOS_ADC_BAT 016C                             _longitud_paq_datos 0038  
                                     efgtoa@fp 00B0                                       efgtoa@ne 00B9  
                       _HABLILITAR_LECTURA_CH0 00FF                                       efgtoa@pp 00C1  
                                     efgtoa@ou 00CA                                       isa$xinst 0000  
                                     int$flags 0041                             _Lectura_Numero_Est 43DA  
                                     _vfprintf 44FC                  __end_of_Lectura_Frecuencia_tx 449E  
                          ?_Lectura_Numero_Est 0001                                     _INTCONbits 0FF2  
                                     memcpy@d1 0060                                       memcpy@s1 0062  
                       ??_UART_Enviar_Caracter 001F                        _DATOS_LISTOS_EMPAQUEADO 016A  
                      ??_Inicializar_Oscilador 001F                                       intlevel1 0000  
                                     intlevel2 0000                                      sprintf@ap 01EA  
                             ___lwmod@dividend 001F                               ___lldiv@dividend 0060  
                         ??_Lectura_Numero_Est 001F                                      strcpy@src 0021  
                                   _OSCCONbits 0FD3                                    efgtoa@nmode 00C3  
                         _contador_lectura_adc 0040                               ??_Configurar_ADC 001F  
                             ??_Configurar_SPI 001F                           _SPI_Recibir_Caracter 4896  
                                  ??_vfpfcnvrt 00EB                                       sprintf@f 01EC  
                                     sprintf@s 01D2                               ___lldiv@quotient 001F  
                              ___lwmod@divisor 0021                             _CONT_TIEMPO_CHEKEO 014A  
                              ___lwmod@counter 0023  _resultado_adc_flotante@interrupt_manager$F906 011A  
_resultado_adc_flotante@interrupt_manager$F659 0132                                    _SSPCON1bits 0FC6  
                           _CONT_TIEMPO_UMBRAL 014C                                  ___fladd@signs 0068  
                                 ___fladd@aexp 0069                                   ___fladd@bexp 006A  
